
STSPIN3201_Portscape-Test.elf:     file format elf32-littlearm

Sections:
Idx Name          Size      VMA       LMA       File off  Algn
  0 .isr_vector   000000c0  08000000  08000000  00010000  2**0
                  CONTENTS, ALLOC, LOAD, READONLY, DATA
  1 .text         00006634  080000c0  080000c0  000100c0  2**2
                  CONTENTS, ALLOC, LOAD, READONLY, CODE
  2 .rodata       00000398  080066f4  080066f4  000166f4  2**2
                  CONTENTS, ALLOC, LOAD, READONLY, DATA
  3 .ARM.extab    00000000  08006a8c  08006a8c  00020694  2**0
                  CONTENTS
  4 .ARM          00000000  08006a8c  08006a8c  00020694  2**0
                  CONTENTS
  5 .preinit_array 00000000  08006a8c  08006a8c  00020694  2**0
                  CONTENTS, ALLOC, LOAD, DATA
  6 .init_array   00000004  08006a8c  08006a8c  00016a8c  2**2
                  CONTENTS, ALLOC, LOAD, DATA
  7 .fini_array   00000004  08006a90  08006a90  00016a90  2**2
                  CONTENTS, ALLOC, LOAD, DATA
  8 .data         00000694  20000000  08006a94  00020000  2**2
                  CONTENTS, ALLOC, LOAD, DATA
  9 .bss          00000454  20000694  08007128  00020694  2**2
                  ALLOC
 10 ._user_heap_stack 00000480  20000ae8  08007128  00020ae8  2**0
                  ALLOC
 11 .ARM.attributes 00000028  00000000  00000000  00020694  2**0
                  CONTENTS, READONLY
 12 .debug_line   000308ef  00000000  00000000  000206bc  2**0
                  CONTENTS, READONLY, DEBUGGING, OCTETS
 13 .debug_info   0004347d  00000000  00000000  00050fab  2**0
                  CONTENTS, READONLY, DEBUGGING, OCTETS
 14 .debug_abbrev 00006b7d  00000000  00000000  00094428  2**0
                  CONTENTS, READONLY, DEBUGGING, OCTETS
 15 .debug_aranges 000016c0  00000000  00000000  0009afa8  2**3
                  CONTENTS, READONLY, DEBUGGING, OCTETS
 16 .debug_str    0007f34e  00000000  00000000  0009c668  2**0
                  CONTENTS, READONLY, DEBUGGING, OCTETS
 17 .debug_ranges 00002d60  00000000  00000000  0011b9b8  2**3
                  CONTENTS, READONLY, DEBUGGING, OCTETS
 18 .debug_loc    00016cea  00000000  00000000  0011e718  2**0
                  CONTENTS, READONLY, DEBUGGING, OCTETS
 19 .debug_macro  00019958  00000000  00000000  00135402  2**0
                  CONTENTS, READONLY, DEBUGGING, OCTETS
 20 .comment      000000cf  00000000  00000000  0014ed5a  2**0
                  CONTENTS, READONLY
 21 .debug_frame  000041c0  00000000  00000000  0014ee2c  2**2
                  CONTENTS, READONLY, DEBUGGING, OCTETS

Disassembly of section .text:

080000c0 <__do_global_dtors_aux>:
 80000c0:	b510      	push	{r4, lr}
 80000c2:	4c06      	ldr	r4, [pc, #24]	; (80000dc <__do_global_dtors_aux+0x1c>)
 80000c4:	7823      	ldrb	r3, [r4, #0]
 80000c6:	2b00      	cmp	r3, #0
 80000c8:	d107      	bne.n	80000da <__do_global_dtors_aux+0x1a>
 80000ca:	4b05      	ldr	r3, [pc, #20]	; (80000e0 <__do_global_dtors_aux+0x20>)
 80000cc:	2b00      	cmp	r3, #0
 80000ce:	d002      	beq.n	80000d6 <__do_global_dtors_aux+0x16>
 80000d0:	4804      	ldr	r0, [pc, #16]	; (80000e4 <__do_global_dtors_aux+0x24>)
 80000d2:	e000      	b.n	80000d6 <__do_global_dtors_aux+0x16>
 80000d4:	bf00      	nop
 80000d6:	2301      	movs	r3, #1
 80000d8:	7023      	strb	r3, [r4, #0]
 80000da:	bd10      	pop	{r4, pc}
 80000dc:	20000694 	.word	0x20000694
 80000e0:	00000000 	.word	0x00000000
 80000e4:	080066dc 	.word	0x080066dc

080000e8 <frame_dummy>:
 80000e8:	4b04      	ldr	r3, [pc, #16]	; (80000fc <frame_dummy+0x14>)
 80000ea:	b510      	push	{r4, lr}
 80000ec:	2b00      	cmp	r3, #0
 80000ee:	d003      	beq.n	80000f8 <frame_dummy+0x10>
 80000f0:	4903      	ldr	r1, [pc, #12]	; (8000100 <frame_dummy+0x18>)
 80000f2:	4804      	ldr	r0, [pc, #16]	; (8000104 <frame_dummy+0x1c>)
 80000f4:	e000      	b.n	80000f8 <frame_dummy+0x10>
 80000f6:	bf00      	nop
 80000f8:	bd10      	pop	{r4, pc}
 80000fa:	46c0      	nop			; (mov r8, r8)
 80000fc:	00000000 	.word	0x00000000
 8000100:	20000698 	.word	0x20000698
 8000104:	080066dc 	.word	0x080066dc

08000108 <__gnu_thumb1_case_sqi>:
 8000108:	b402      	push	{r1}
 800010a:	4671      	mov	r1, lr
 800010c:	0849      	lsrs	r1, r1, #1
 800010e:	0049      	lsls	r1, r1, #1
 8000110:	5609      	ldrsb	r1, [r1, r0]
 8000112:	0049      	lsls	r1, r1, #1
 8000114:	448e      	add	lr, r1
 8000116:	bc02      	pop	{r1}
 8000118:	4770      	bx	lr
 800011a:	46c0      	nop			; (mov r8, r8)

0800011c <__gnu_thumb1_case_uqi>:
 800011c:	b402      	push	{r1}
 800011e:	4671      	mov	r1, lr
 8000120:	0849      	lsrs	r1, r1, #1
 8000122:	0049      	lsls	r1, r1, #1
 8000124:	5c09      	ldrb	r1, [r1, r0]
 8000126:	0049      	lsls	r1, r1, #1
 8000128:	448e      	add	lr, r1
 800012a:	bc02      	pop	{r1}
 800012c:	4770      	bx	lr
 800012e:	46c0      	nop			; (mov r8, r8)

08000130 <__gnu_thumb1_case_shi>:
 8000130:	b403      	push	{r0, r1}
 8000132:	4671      	mov	r1, lr
 8000134:	0849      	lsrs	r1, r1, #1
 8000136:	0040      	lsls	r0, r0, #1
 8000138:	0049      	lsls	r1, r1, #1
 800013a:	5e09      	ldrsh	r1, [r1, r0]
 800013c:	0049      	lsls	r1, r1, #1
 800013e:	448e      	add	lr, r1
 8000140:	bc03      	pop	{r0, r1}
 8000142:	4770      	bx	lr

08000144 <__gnu_thumb1_case_uhi>:
 8000144:	b403      	push	{r0, r1}
 8000146:	4671      	mov	r1, lr
 8000148:	0849      	lsrs	r1, r1, #1
 800014a:	0040      	lsls	r0, r0, #1
 800014c:	0049      	lsls	r1, r1, #1
 800014e:	5a09      	ldrh	r1, [r1, r0]
 8000150:	0049      	lsls	r1, r1, #1
 8000152:	448e      	add	lr, r1
 8000154:	bc03      	pop	{r0, r1}
 8000156:	4770      	bx	lr

08000158 <__udivsi3>:
 8000158:	2200      	movs	r2, #0
 800015a:	0843      	lsrs	r3, r0, #1
 800015c:	428b      	cmp	r3, r1
 800015e:	d374      	bcc.n	800024a <__udivsi3+0xf2>
 8000160:	0903      	lsrs	r3, r0, #4
 8000162:	428b      	cmp	r3, r1
 8000164:	d35f      	bcc.n	8000226 <__udivsi3+0xce>
 8000166:	0a03      	lsrs	r3, r0, #8
 8000168:	428b      	cmp	r3, r1
 800016a:	d344      	bcc.n	80001f6 <__udivsi3+0x9e>
 800016c:	0b03      	lsrs	r3, r0, #12
 800016e:	428b      	cmp	r3, r1
 8000170:	d328      	bcc.n	80001c4 <__udivsi3+0x6c>
 8000172:	0c03      	lsrs	r3, r0, #16
 8000174:	428b      	cmp	r3, r1
 8000176:	d30d      	bcc.n	8000194 <__udivsi3+0x3c>
 8000178:	22ff      	movs	r2, #255	; 0xff
 800017a:	0209      	lsls	r1, r1, #8
 800017c:	ba12      	rev	r2, r2
 800017e:	0c03      	lsrs	r3, r0, #16
 8000180:	428b      	cmp	r3, r1
 8000182:	d302      	bcc.n	800018a <__udivsi3+0x32>
 8000184:	1212      	asrs	r2, r2, #8
 8000186:	0209      	lsls	r1, r1, #8
 8000188:	d065      	beq.n	8000256 <__udivsi3+0xfe>
 800018a:	0b03      	lsrs	r3, r0, #12
 800018c:	428b      	cmp	r3, r1
 800018e:	d319      	bcc.n	80001c4 <__udivsi3+0x6c>
 8000190:	e000      	b.n	8000194 <__udivsi3+0x3c>
 8000192:	0a09      	lsrs	r1, r1, #8
 8000194:	0bc3      	lsrs	r3, r0, #15
 8000196:	428b      	cmp	r3, r1
 8000198:	d301      	bcc.n	800019e <__udivsi3+0x46>
 800019a:	03cb      	lsls	r3, r1, #15
 800019c:	1ac0      	subs	r0, r0, r3
 800019e:	4152      	adcs	r2, r2
 80001a0:	0b83      	lsrs	r3, r0, #14
 80001a2:	428b      	cmp	r3, r1
 80001a4:	d301      	bcc.n	80001aa <__udivsi3+0x52>
 80001a6:	038b      	lsls	r3, r1, #14
 80001a8:	1ac0      	subs	r0, r0, r3
 80001aa:	4152      	adcs	r2, r2
 80001ac:	0b43      	lsrs	r3, r0, #13
 80001ae:	428b      	cmp	r3, r1
 80001b0:	d301      	bcc.n	80001b6 <__udivsi3+0x5e>
 80001b2:	034b      	lsls	r3, r1, #13
 80001b4:	1ac0      	subs	r0, r0, r3
 80001b6:	4152      	adcs	r2, r2
 80001b8:	0b03      	lsrs	r3, r0, #12
 80001ba:	428b      	cmp	r3, r1
 80001bc:	d301      	bcc.n	80001c2 <__udivsi3+0x6a>
 80001be:	030b      	lsls	r3, r1, #12
 80001c0:	1ac0      	subs	r0, r0, r3
 80001c2:	4152      	adcs	r2, r2
 80001c4:	0ac3      	lsrs	r3, r0, #11
 80001c6:	428b      	cmp	r3, r1
 80001c8:	d301      	bcc.n	80001ce <__udivsi3+0x76>
 80001ca:	02cb      	lsls	r3, r1, #11
 80001cc:	1ac0      	subs	r0, r0, r3
 80001ce:	4152      	adcs	r2, r2
 80001d0:	0a83      	lsrs	r3, r0, #10
 80001d2:	428b      	cmp	r3, r1
 80001d4:	d301      	bcc.n	80001da <__udivsi3+0x82>
 80001d6:	028b      	lsls	r3, r1, #10
 80001d8:	1ac0      	subs	r0, r0, r3
 80001da:	4152      	adcs	r2, r2
 80001dc:	0a43      	lsrs	r3, r0, #9
 80001de:	428b      	cmp	r3, r1
 80001e0:	d301      	bcc.n	80001e6 <__udivsi3+0x8e>
 80001e2:	024b      	lsls	r3, r1, #9
 80001e4:	1ac0      	subs	r0, r0, r3
 80001e6:	4152      	adcs	r2, r2
 80001e8:	0a03      	lsrs	r3, r0, #8
 80001ea:	428b      	cmp	r3, r1
 80001ec:	d301      	bcc.n	80001f2 <__udivsi3+0x9a>
 80001ee:	020b      	lsls	r3, r1, #8
 80001f0:	1ac0      	subs	r0, r0, r3
 80001f2:	4152      	adcs	r2, r2
 80001f4:	d2cd      	bcs.n	8000192 <__udivsi3+0x3a>
 80001f6:	09c3      	lsrs	r3, r0, #7
 80001f8:	428b      	cmp	r3, r1
 80001fa:	d301      	bcc.n	8000200 <__udivsi3+0xa8>
 80001fc:	01cb      	lsls	r3, r1, #7
 80001fe:	1ac0      	subs	r0, r0, r3
 8000200:	4152      	adcs	r2, r2
 8000202:	0983      	lsrs	r3, r0, #6
 8000204:	428b      	cmp	r3, r1
 8000206:	d301      	bcc.n	800020c <__udivsi3+0xb4>
 8000208:	018b      	lsls	r3, r1, #6
 800020a:	1ac0      	subs	r0, r0, r3
 800020c:	4152      	adcs	r2, r2
 800020e:	0943      	lsrs	r3, r0, #5
 8000210:	428b      	cmp	r3, r1
 8000212:	d301      	bcc.n	8000218 <__udivsi3+0xc0>
 8000214:	014b      	lsls	r3, r1, #5
 8000216:	1ac0      	subs	r0, r0, r3
 8000218:	4152      	adcs	r2, r2
 800021a:	0903      	lsrs	r3, r0, #4
 800021c:	428b      	cmp	r3, r1
 800021e:	d301      	bcc.n	8000224 <__udivsi3+0xcc>
 8000220:	010b      	lsls	r3, r1, #4
 8000222:	1ac0      	subs	r0, r0, r3
 8000224:	4152      	adcs	r2, r2
 8000226:	08c3      	lsrs	r3, r0, #3
 8000228:	428b      	cmp	r3, r1
 800022a:	d301      	bcc.n	8000230 <__udivsi3+0xd8>
 800022c:	00cb      	lsls	r3, r1, #3
 800022e:	1ac0      	subs	r0, r0, r3
 8000230:	4152      	adcs	r2, r2
 8000232:	0883      	lsrs	r3, r0, #2
 8000234:	428b      	cmp	r3, r1
 8000236:	d301      	bcc.n	800023c <__udivsi3+0xe4>
 8000238:	008b      	lsls	r3, r1, #2
 800023a:	1ac0      	subs	r0, r0, r3
 800023c:	4152      	adcs	r2, r2
 800023e:	0843      	lsrs	r3, r0, #1
 8000240:	428b      	cmp	r3, r1
 8000242:	d301      	bcc.n	8000248 <__udivsi3+0xf0>
 8000244:	004b      	lsls	r3, r1, #1
 8000246:	1ac0      	subs	r0, r0, r3
 8000248:	4152      	adcs	r2, r2
 800024a:	1a41      	subs	r1, r0, r1
 800024c:	d200      	bcs.n	8000250 <__udivsi3+0xf8>
 800024e:	4601      	mov	r1, r0
 8000250:	4152      	adcs	r2, r2
 8000252:	4610      	mov	r0, r2
 8000254:	4770      	bx	lr
 8000256:	e7ff      	b.n	8000258 <__udivsi3+0x100>
 8000258:	b501      	push	{r0, lr}
 800025a:	2000      	movs	r0, #0
 800025c:	f000 f8f0 	bl	8000440 <__aeabi_idiv0>
 8000260:	bd02      	pop	{r1, pc}
 8000262:	46c0      	nop			; (mov r8, r8)

08000264 <__aeabi_uidivmod>:
 8000264:	2900      	cmp	r1, #0
 8000266:	d0f7      	beq.n	8000258 <__udivsi3+0x100>
 8000268:	e776      	b.n	8000158 <__udivsi3>
 800026a:	4770      	bx	lr

0800026c <__divsi3>:
 800026c:	4603      	mov	r3, r0
 800026e:	430b      	orrs	r3, r1
 8000270:	d47f      	bmi.n	8000372 <__divsi3+0x106>
 8000272:	2200      	movs	r2, #0
 8000274:	0843      	lsrs	r3, r0, #1
 8000276:	428b      	cmp	r3, r1
 8000278:	d374      	bcc.n	8000364 <__divsi3+0xf8>
 800027a:	0903      	lsrs	r3, r0, #4
 800027c:	428b      	cmp	r3, r1
 800027e:	d35f      	bcc.n	8000340 <__divsi3+0xd4>
 8000280:	0a03      	lsrs	r3, r0, #8
 8000282:	428b      	cmp	r3, r1
 8000284:	d344      	bcc.n	8000310 <__divsi3+0xa4>
 8000286:	0b03      	lsrs	r3, r0, #12
 8000288:	428b      	cmp	r3, r1
 800028a:	d328      	bcc.n	80002de <__divsi3+0x72>
 800028c:	0c03      	lsrs	r3, r0, #16
 800028e:	428b      	cmp	r3, r1
 8000290:	d30d      	bcc.n	80002ae <__divsi3+0x42>
 8000292:	22ff      	movs	r2, #255	; 0xff
 8000294:	0209      	lsls	r1, r1, #8
 8000296:	ba12      	rev	r2, r2
 8000298:	0c03      	lsrs	r3, r0, #16
 800029a:	428b      	cmp	r3, r1
 800029c:	d302      	bcc.n	80002a4 <__divsi3+0x38>
 800029e:	1212      	asrs	r2, r2, #8
 80002a0:	0209      	lsls	r1, r1, #8
 80002a2:	d065      	beq.n	8000370 <__divsi3+0x104>
 80002a4:	0b03      	lsrs	r3, r0, #12
 80002a6:	428b      	cmp	r3, r1
 80002a8:	d319      	bcc.n	80002de <__divsi3+0x72>
 80002aa:	e000      	b.n	80002ae <__divsi3+0x42>
 80002ac:	0a09      	lsrs	r1, r1, #8
 80002ae:	0bc3      	lsrs	r3, r0, #15
 80002b0:	428b      	cmp	r3, r1
 80002b2:	d301      	bcc.n	80002b8 <__divsi3+0x4c>
 80002b4:	03cb      	lsls	r3, r1, #15
 80002b6:	1ac0      	subs	r0, r0, r3
 80002b8:	4152      	adcs	r2, r2
 80002ba:	0b83      	lsrs	r3, r0, #14
 80002bc:	428b      	cmp	r3, r1
 80002be:	d301      	bcc.n	80002c4 <__divsi3+0x58>
 80002c0:	038b      	lsls	r3, r1, #14
 80002c2:	1ac0      	subs	r0, r0, r3
 80002c4:	4152      	adcs	r2, r2
 80002c6:	0b43      	lsrs	r3, r0, #13
 80002c8:	428b      	cmp	r3, r1
 80002ca:	d301      	bcc.n	80002d0 <__divsi3+0x64>
 80002cc:	034b      	lsls	r3, r1, #13
 80002ce:	1ac0      	subs	r0, r0, r3
 80002d0:	4152      	adcs	r2, r2
 80002d2:	0b03      	lsrs	r3, r0, #12
 80002d4:	428b      	cmp	r3, r1
 80002d6:	d301      	bcc.n	80002dc <__divsi3+0x70>
 80002d8:	030b      	lsls	r3, r1, #12
 80002da:	1ac0      	subs	r0, r0, r3
 80002dc:	4152      	adcs	r2, r2
 80002de:	0ac3      	lsrs	r3, r0, #11
 80002e0:	428b      	cmp	r3, r1
 80002e2:	d301      	bcc.n	80002e8 <__divsi3+0x7c>
 80002e4:	02cb      	lsls	r3, r1, #11
 80002e6:	1ac0      	subs	r0, r0, r3
 80002e8:	4152      	adcs	r2, r2
 80002ea:	0a83      	lsrs	r3, r0, #10
 80002ec:	428b      	cmp	r3, r1
 80002ee:	d301      	bcc.n	80002f4 <__divsi3+0x88>
 80002f0:	028b      	lsls	r3, r1, #10
 80002f2:	1ac0      	subs	r0, r0, r3
 80002f4:	4152      	adcs	r2, r2
 80002f6:	0a43      	lsrs	r3, r0, #9
 80002f8:	428b      	cmp	r3, r1
 80002fa:	d301      	bcc.n	8000300 <__divsi3+0x94>
 80002fc:	024b      	lsls	r3, r1, #9
 80002fe:	1ac0      	subs	r0, r0, r3
 8000300:	4152      	adcs	r2, r2
 8000302:	0a03      	lsrs	r3, r0, #8
 8000304:	428b      	cmp	r3, r1
 8000306:	d301      	bcc.n	800030c <__divsi3+0xa0>
 8000308:	020b      	lsls	r3, r1, #8
 800030a:	1ac0      	subs	r0, r0, r3
 800030c:	4152      	adcs	r2, r2
 800030e:	d2cd      	bcs.n	80002ac <__divsi3+0x40>
 8000310:	09c3      	lsrs	r3, r0, #7
 8000312:	428b      	cmp	r3, r1
 8000314:	d301      	bcc.n	800031a <__divsi3+0xae>
 8000316:	01cb      	lsls	r3, r1, #7
 8000318:	1ac0      	subs	r0, r0, r3
 800031a:	4152      	adcs	r2, r2
 800031c:	0983      	lsrs	r3, r0, #6
 800031e:	428b      	cmp	r3, r1
 8000320:	d301      	bcc.n	8000326 <__divsi3+0xba>
 8000322:	018b      	lsls	r3, r1, #6
 8000324:	1ac0      	subs	r0, r0, r3
 8000326:	4152      	adcs	r2, r2
 8000328:	0943      	lsrs	r3, r0, #5
 800032a:	428b      	cmp	r3, r1
 800032c:	d301      	bcc.n	8000332 <__divsi3+0xc6>
 800032e:	014b      	lsls	r3, r1, #5
 8000330:	1ac0      	subs	r0, r0, r3
 8000332:	4152      	adcs	r2, r2
 8000334:	0903      	lsrs	r3, r0, #4
 8000336:	428b      	cmp	r3, r1
 8000338:	d301      	bcc.n	800033e <__divsi3+0xd2>
 800033a:	010b      	lsls	r3, r1, #4
 800033c:	1ac0      	subs	r0, r0, r3
 800033e:	4152      	adcs	r2, r2
 8000340:	08c3      	lsrs	r3, r0, #3
 8000342:	428b      	cmp	r3, r1
 8000344:	d301      	bcc.n	800034a <__divsi3+0xde>
 8000346:	00cb      	lsls	r3, r1, #3
 8000348:	1ac0      	subs	r0, r0, r3
 800034a:	4152      	adcs	r2, r2
 800034c:	0883      	lsrs	r3, r0, #2
 800034e:	428b      	cmp	r3, r1
 8000350:	d301      	bcc.n	8000356 <__divsi3+0xea>
 8000352:	008b      	lsls	r3, r1, #2
 8000354:	1ac0      	subs	r0, r0, r3
 8000356:	4152      	adcs	r2, r2
 8000358:	0843      	lsrs	r3, r0, #1
 800035a:	428b      	cmp	r3, r1
 800035c:	d301      	bcc.n	8000362 <__divsi3+0xf6>
 800035e:	004b      	lsls	r3, r1, #1
 8000360:	1ac0      	subs	r0, r0, r3
 8000362:	4152      	adcs	r2, r2
 8000364:	1a41      	subs	r1, r0, r1
 8000366:	d200      	bcs.n	800036a <__divsi3+0xfe>
 8000368:	4601      	mov	r1, r0
 800036a:	4152      	adcs	r2, r2
 800036c:	4610      	mov	r0, r2
 800036e:	4770      	bx	lr
 8000370:	e05d      	b.n	800042e <__divsi3+0x1c2>
 8000372:	0fca      	lsrs	r2, r1, #31
 8000374:	d000      	beq.n	8000378 <__divsi3+0x10c>
 8000376:	4249      	negs	r1, r1
 8000378:	1003      	asrs	r3, r0, #32
 800037a:	d300      	bcc.n	800037e <__divsi3+0x112>
 800037c:	4240      	negs	r0, r0
 800037e:	4053      	eors	r3, r2
 8000380:	2200      	movs	r2, #0
 8000382:	469c      	mov	ip, r3
 8000384:	0903      	lsrs	r3, r0, #4
 8000386:	428b      	cmp	r3, r1
 8000388:	d32d      	bcc.n	80003e6 <__divsi3+0x17a>
 800038a:	0a03      	lsrs	r3, r0, #8
 800038c:	428b      	cmp	r3, r1
 800038e:	d312      	bcc.n	80003b6 <__divsi3+0x14a>
 8000390:	22fc      	movs	r2, #252	; 0xfc
 8000392:	0189      	lsls	r1, r1, #6
 8000394:	ba12      	rev	r2, r2
 8000396:	0a03      	lsrs	r3, r0, #8
 8000398:	428b      	cmp	r3, r1
 800039a:	d30c      	bcc.n	80003b6 <__divsi3+0x14a>
 800039c:	0189      	lsls	r1, r1, #6
 800039e:	1192      	asrs	r2, r2, #6
 80003a0:	428b      	cmp	r3, r1
 80003a2:	d308      	bcc.n	80003b6 <__divsi3+0x14a>
 80003a4:	0189      	lsls	r1, r1, #6
 80003a6:	1192      	asrs	r2, r2, #6
 80003a8:	428b      	cmp	r3, r1
 80003aa:	d304      	bcc.n	80003b6 <__divsi3+0x14a>
 80003ac:	0189      	lsls	r1, r1, #6
 80003ae:	d03a      	beq.n	8000426 <__divsi3+0x1ba>
 80003b0:	1192      	asrs	r2, r2, #6
 80003b2:	e000      	b.n	80003b6 <__divsi3+0x14a>
 80003b4:	0989      	lsrs	r1, r1, #6
 80003b6:	09c3      	lsrs	r3, r0, #7
 80003b8:	428b      	cmp	r3, r1
 80003ba:	d301      	bcc.n	80003c0 <__divsi3+0x154>
 80003bc:	01cb      	lsls	r3, r1, #7
 80003be:	1ac0      	subs	r0, r0, r3
 80003c0:	4152      	adcs	r2, r2
 80003c2:	0983      	lsrs	r3, r0, #6
 80003c4:	428b      	cmp	r3, r1
 80003c6:	d301      	bcc.n	80003cc <__divsi3+0x160>
 80003c8:	018b      	lsls	r3, r1, #6
 80003ca:	1ac0      	subs	r0, r0, r3
 80003cc:	4152      	adcs	r2, r2
 80003ce:	0943      	lsrs	r3, r0, #5
 80003d0:	428b      	cmp	r3, r1
 80003d2:	d301      	bcc.n	80003d8 <__divsi3+0x16c>
 80003d4:	014b      	lsls	r3, r1, #5
 80003d6:	1ac0      	subs	r0, r0, r3
 80003d8:	4152      	adcs	r2, r2
 80003da:	0903      	lsrs	r3, r0, #4
 80003dc:	428b      	cmp	r3, r1
 80003de:	d301      	bcc.n	80003e4 <__divsi3+0x178>
 80003e0:	010b      	lsls	r3, r1, #4
 80003e2:	1ac0      	subs	r0, r0, r3
 80003e4:	4152      	adcs	r2, r2
 80003e6:	08c3      	lsrs	r3, r0, #3
 80003e8:	428b      	cmp	r3, r1
 80003ea:	d301      	bcc.n	80003f0 <__divsi3+0x184>
 80003ec:	00cb      	lsls	r3, r1, #3
 80003ee:	1ac0      	subs	r0, r0, r3
 80003f0:	4152      	adcs	r2, r2
 80003f2:	0883      	lsrs	r3, r0, #2
 80003f4:	428b      	cmp	r3, r1
 80003f6:	d301      	bcc.n	80003fc <__divsi3+0x190>
 80003f8:	008b      	lsls	r3, r1, #2
 80003fa:	1ac0      	subs	r0, r0, r3
 80003fc:	4152      	adcs	r2, r2
 80003fe:	d2d9      	bcs.n	80003b4 <__divsi3+0x148>
 8000400:	0843      	lsrs	r3, r0, #1
 8000402:	428b      	cmp	r3, r1
 8000404:	d301      	bcc.n	800040a <__divsi3+0x19e>
 8000406:	004b      	lsls	r3, r1, #1
 8000408:	1ac0      	subs	r0, r0, r3
 800040a:	4152      	adcs	r2, r2
 800040c:	1a41      	subs	r1, r0, r1
 800040e:	d200      	bcs.n	8000412 <__divsi3+0x1a6>
 8000410:	4601      	mov	r1, r0
 8000412:	4663      	mov	r3, ip
 8000414:	4152      	adcs	r2, r2
 8000416:	105b      	asrs	r3, r3, #1
 8000418:	4610      	mov	r0, r2
 800041a:	d301      	bcc.n	8000420 <__divsi3+0x1b4>
 800041c:	4240      	negs	r0, r0
 800041e:	2b00      	cmp	r3, #0
 8000420:	d500      	bpl.n	8000424 <__divsi3+0x1b8>
 8000422:	4249      	negs	r1, r1
 8000424:	4770      	bx	lr
 8000426:	4663      	mov	r3, ip
 8000428:	105b      	asrs	r3, r3, #1
 800042a:	d300      	bcc.n	800042e <__divsi3+0x1c2>
 800042c:	4240      	negs	r0, r0
 800042e:	b501      	push	{r0, lr}
 8000430:	2000      	movs	r0, #0
 8000432:	f000 f805 	bl	8000440 <__aeabi_idiv0>
 8000436:	bd02      	pop	{r1, pc}

08000438 <__aeabi_idivmod>:
 8000438:	2900      	cmp	r1, #0
 800043a:	d0f8      	beq.n	800042e <__divsi3+0x1c2>
 800043c:	e716      	b.n	800026c <__divsi3>
 800043e:	4770      	bx	lr

08000440 <__aeabi_idiv0>:
 8000440:	4770      	bx	lr
 8000442:	46c0      	nop			; (mov r8, r8)

08000444 <Reset_Handler>:

  .section .text.Reset_Handler
  .weak Reset_Handler
  .type Reset_Handler, %function
Reset_Handler:
  ldr   r0, =_estack
 8000444:	480d      	ldr	r0, [pc, #52]	; (800047c <LoopForever+0x2>)
  mov   sp, r0          /* set stack pointer */
 8000446:	4685      	mov	sp, r0

/* Copy the data segment initializers from flash to SRAM */
  ldr r0, =_sdata
 8000448:	480d      	ldr	r0, [pc, #52]	; (8000480 <LoopForever+0x6>)
  ldr r1, =_edata
 800044a:	490e      	ldr	r1, [pc, #56]	; (8000484 <LoopForever+0xa>)
  ldr r2, =_sidata
 800044c:	4a0e      	ldr	r2, [pc, #56]	; (8000488 <LoopForever+0xe>)
  movs r3, #0
 800044e:	2300      	movs	r3, #0
  b LoopCopyDataInit
 8000450:	e002      	b.n	8000458 <LoopCopyDataInit>

08000452 <CopyDataInit>:

CopyDataInit:
  ldr r4, [r2, r3]
 8000452:	58d4      	ldr	r4, [r2, r3]
  str r4, [r0, r3]
 8000454:	50c4      	str	r4, [r0, r3]
  adds r3, r3, #4
 8000456:	3304      	adds	r3, #4

08000458 <LoopCopyDataInit>:

LoopCopyDataInit:
  adds r4, r0, r3
 8000458:	18c4      	adds	r4, r0, r3
  cmp r4, r1
 800045a:	428c      	cmp	r4, r1
  bcc CopyDataInit
 800045c:	d3f9      	bcc.n	8000452 <CopyDataInit>
  
/* Zero fill the bss segment. */
  ldr r2, =_sbss
 800045e:	4a0b      	ldr	r2, [pc, #44]	; (800048c <LoopForever+0x12>)
  ldr r4, =_ebss
 8000460:	4c0b      	ldr	r4, [pc, #44]	; (8000490 <LoopForever+0x16>)
  movs r3, #0
 8000462:	2300      	movs	r3, #0
  b LoopFillZerobss
 8000464:	e001      	b.n	800046a <LoopFillZerobss>

08000466 <FillZerobss>:

FillZerobss:
  str  r3, [r2]
 8000466:	6013      	str	r3, [r2, #0]
  adds r2, r2, #4
 8000468:	3204      	adds	r2, #4

0800046a <LoopFillZerobss>:

LoopFillZerobss:
  cmp r2, r4
 800046a:	42a2      	cmp	r2, r4
  bcc FillZerobss
 800046c:	d3fb      	bcc.n	8000466 <FillZerobss>

/* Call the clock system intitialization function.*/
  bl  SystemInit
 800046e:	f002 fb6d 	bl	8002b4c <SystemInit>
/* Call static constructors */
  bl __libc_init_array
 8000472:	f005 fc9d 	bl	8005db0 <__libc_init_array>
/* Call the application's entry point.*/
  bl main
 8000476:	f000 f9a1 	bl	80007bc <main>

0800047a <LoopForever>:

LoopForever:
    b LoopForever
 800047a:	e7fe      	b.n	800047a <LoopForever>
  ldr   r0, =_estack
 800047c:	20001000 	.word	0x20001000
  ldr r0, =_sdata
 8000480:	20000000 	.word	0x20000000
  ldr r1, =_edata
 8000484:	20000694 	.word	0x20000694
  ldr r2, =_sidata
 8000488:	08006a94 	.word	0x08006a94
  ldr r2, =_sbss
 800048c:	20000694 	.word	0x20000694
  ldr r4, =_ebss
 8000490:	20000ae8 	.word	0x20000ae8

08000494 <ADC1_IRQHandler>:
 * @retval : None
*/
    .section .text.Default_Handler,"ax",%progbits
Default_Handler:
Infinite_Loop:
  b Infinite_Loop
 8000494:	e7fe      	b.n	8000494 <ADC1_IRQHandler>
	...

08000498 <DACT_Init>:
  *         @arg @ref LL_TIM_CHANNEL_CH4
  * @retval None
  */
__STATIC_INLINE void LL_TIM_CC_EnableChannel(TIM_TypeDef *TIMx, uint32_t Channels)
{
  SET_BIT(TIMx->CCER, Channels);
 8000498:	2201      	movs	r2, #1
  */
__STATIC_INLINE void LL_TIM_OC_DisablePreload(TIM_TypeDef *TIMx, uint32_t Channel)
{
  uint8_t iChannel = TIM_GET_CHANNEL_INDEX(Channel);
  __IO uint32_t *pReg = (__IO uint32_t *)((uint32_t)((uint32_t)(&TIMx->CCMR1) + OFFSET_TAB_CCMRx[iChannel]));
  CLEAR_BIT(*pReg, (TIM_CCMR1_OC1PE << SHIFT_TAB_OCxx[iChannel]));
 800049a:	2008      	movs	r0, #8
  SET_BIT(TIMx->CCER, Channels);
 800049c:	4b05      	ldr	r3, [pc, #20]	; (80004b4 <DACT_Init+0x1c>)
 800049e:	6a19      	ldr	r1, [r3, #32]
 80004a0:	4311      	orrs	r1, r2
 80004a2:	6219      	str	r1, [r3, #32]
  CLEAR_BIT(*pReg, (TIM_CCMR1_OC1PE << SHIFT_TAB_OCxx[iChannel]));
 80004a4:	6999      	ldr	r1, [r3, #24]
 80004a6:	4381      	bics	r1, r0
 80004a8:	6199      	str	r1, [r3, #24]
  SET_BIT(TIMx->CR1, TIM_CR1_CEN);
 80004aa:	6819      	ldr	r1, [r3, #0]
 80004ac:	430a      	orrs	r2, r1
 80004ae:	601a      	str	r2, [r3, #0]
  /* CH1 configuration  */
  LL_TIM_CC_EnableChannel(TIM14, LL_TIM_CHANNEL_CH1);
  LL_TIM_OC_DisablePreload(TIM14, LL_TIM_CHANNEL_CH1);
  /* start Timer */
  LL_TIM_EnableCounter(TIM14);
}
 80004b0:	4770      	bx	lr
 80004b2:	46c0      	nop			; (mov r8, r8)
 80004b4:	40002000 	.word	0x40002000

080004b8 <DACT_Exec>:
__weak void DACT_Exec(UI_Handle_t *pHandle)
{
  DAC_UI_Handle_t *pDacHandle = (DAC_UI_Handle_t *)pHandle;
  MC_Protocol_REG_t bCh1_var;

  bCh1_var = pDacHandle->bChannel_variable[DAC_CH0];
 80004b8:	0003      	movs	r3, r0
{
 80004ba:	b510      	push	{r4, lr}
  bCh1_var = pDacHandle->bChannel_variable[DAC_CH0];
 80004bc:	3330      	adds	r3, #48	; 0x30
  LL_TIM_OC_SetCompareCH1(TIM14, ((uint16_t)((int16_t)(((int16_t)UI_GetReg(pHandle,bCh1_var,MC_NULL)+32768)/32))));
 80004be:	7819      	ldrb	r1, [r3, #0]
 80004c0:	2200      	movs	r2, #0
 80004c2:	f002 f955 	bl	8002770 <UI_GetReg>
 80004c6:	2380      	movs	r3, #128	; 0x80
 80004c8:	b200      	sxth	r0, r0
 80004ca:	021b      	lsls	r3, r3, #8
 80004cc:	18c0      	adds	r0, r0, r3
  * @param  CompareValue between Min_Data=0 and Max_Data=65535
  * @retval None
  */
__STATIC_INLINE void LL_TIM_OC_SetCompareCH1(TIM_TypeDef *TIMx, uint32_t CompareValue)
{
  WRITE_REG(TIMx->CCR1, CompareValue);
 80004ce:	4b02      	ldr	r3, [pc, #8]	; (80004d8 <DACT_Exec+0x20>)
 80004d0:	1140      	asrs	r0, r0, #5
 80004d2:	6358      	str	r0, [r3, #52]	; 0x34
}
 80004d4:	bd10      	pop	{r4, pc}
 80004d6:	46c0      	nop			; (mov r8, r8)
 80004d8:	40002000 	.word	0x40002000

080004dc <OSC_MODE_HOME>:
void OSC_MODE_HOME(){

//	while(HALL_M1.HallStateCounter != 0){
//		 HAL_UART_Transmit(&huart1, (uint8_t*)buffer, sprintf(buffer, "\t HOMING COunter: %u\r\n", HALL_M1.HallStateCounter), 100);
//	moveMotor = 1;
	int diff = HALL_M1.HallStateCounter - HALL_M1.HallStateHomePosition;
 80004dc:	4b7f      	ldr	r3, [pc, #508]	; (80006dc <OSC_MODE_HOME+0x200>)
void OSC_MODE_HOME(){
 80004de:	b5f7      	push	{r0, r1, r2, r4, r5, r6, r7, lr}
	int diff = HALL_M1.HallStateCounter - HALL_M1.HallStateHomePosition;
 80004e0:	001a      	movs	r2, r3
 80004e2:	33a9      	adds	r3, #169	; 0xa9
 80004e4:	32a7      	adds	r2, #167	; 0xa7
 80004e6:	7812      	ldrb	r2, [r2, #0]
 80004e8:	781b      	ldrb	r3, [r3, #0]
				  __HAL_TIM_SET_COMPARE(&htim1,TIM_CHANNEL_3,0);
				  moveMotor = 0;
				  if(count == 0 )
				  {
						   oldhallstate =(uint16_t *) HALL_M1.HallState;
						   count =1;
 80004ea:	2401      	movs	r4, #1
	int diff = HALL_M1.HallStateCounter - HALL_M1.HallStateHomePosition;
 80004ec:	1ad3      	subs	r3, r2, r3
 80004ee:	9301      	str	r3, [sp, #4]
	for(int i = 0; i<=diff;){
 80004f0:	2300      	movs	r3, #0
 80004f2:	9300      	str	r3, [sp, #0]
 80004f4:	9b00      	ldr	r3, [sp, #0]
 80004f6:	9a01      	ldr	r2, [sp, #4]
 80004f8:	4293      	cmp	r3, r2
 80004fa:	dd00      	ble.n	80004fe <OSC_MODE_HOME+0x22>
		  {
			  moveMotor =1;
			  waitToMoveCounter=0;
		  }
}
}//while(HALL_M1.HallStateCounter != 0);
 80004fc:	bdf7      	pop	{r0, r1, r2, r4, r5, r6, r7, pc}
	if( HALL_M1.HallStateCounter != HALL_M1.HallCounterHomePosition && moveMotor) //Default Position 0
 80004fe:	4d77      	ldr	r5, [pc, #476]	; (80006dc <OSC_MODE_HOME+0x200>)
 8000500:	4977      	ldr	r1, [pc, #476]	; (80006e0 <OSC_MODE_HOME+0x204>)
 8000502:	002b      	movs	r3, r5
 8000504:	33a7      	adds	r3, #167	; 0xa7
 8000506:	781a      	ldrb	r2, [r3, #0]
 8000508:	002b      	movs	r3, r5
 800050a:	33a8      	adds	r3, #168	; 0xa8
 800050c:	781b      	ldrb	r3, [r3, #0]
 800050e:	4293      	cmp	r3, r2
 8000510:	d100      	bne.n	8000514 <OSC_MODE_HOME+0x38>
 8000512:	e0cc      	b.n	80006ae <OSC_MODE_HOME+0x1d2>
 8000514:	780b      	ldrb	r3, [r1, #0]
 8000516:	2b00      	cmp	r3, #0
 8000518:	d100      	bne.n	800051c <OSC_MODE_HOME+0x40>
 800051a:	e0c8      	b.n	80006ae <OSC_MODE_HOME+0x1d2>
			 HAL_UART_Transmit(&huart1, (uint8_t*)buffer, sprintf(buffer, "\t MOVING COunter: %u\r\n", HALL_M1.HallStateCounter), 100);
 800051c:	4e71      	ldr	r6, [pc, #452]	; (80006e4 <OSC_MODE_HOME+0x208>)
 800051e:	4972      	ldr	r1, [pc, #456]	; (80006e8 <OSC_MODE_HOME+0x20c>)
 8000520:	0030      	movs	r0, r6
 8000522:	f005 fc7b 	bl	8005e1c <siprintf>
 8000526:	4f71      	ldr	r7, [pc, #452]	; (80006ec <OSC_MODE_HOME+0x210>)
 8000528:	2364      	movs	r3, #100	; 0x64
 800052a:	b282      	uxth	r2, r0
 800052c:	0031      	movs	r1, r6
 800052e:	0038      	movs	r0, r7
			 HAL_UART_Transmit(&huart1, (uint8_t*)buffer, sprintf(buffer, "\t MOVING hallposition: %u\r\n", HALL_M1.HallState), 100);
 8000530:	35a6      	adds	r5, #166	; 0xa6
			 HAL_UART_Transmit(&huart1, (uint8_t*)buffer, sprintf(buffer, "\t MOVING COunter: %u\r\n", HALL_M1.HallStateCounter), 100);
 8000532:	f003 fe6f 	bl	8004214 <HAL_UART_Transmit>
			 HAL_UART_Transmit(&huart1, (uint8_t*)buffer, sprintf(buffer, "\t MOVING hallposition: %u\r\n", HALL_M1.HallState), 100);
 8000536:	782a      	ldrb	r2, [r5, #0]
 8000538:	496d      	ldr	r1, [pc, #436]	; (80006f0 <OSC_MODE_HOME+0x214>)
 800053a:	0030      	movs	r0, r6
 800053c:	f005 fc6e 	bl	8005e1c <siprintf>
 8000540:	2364      	movs	r3, #100	; 0x64
 8000542:	b282      	uxth	r2, r0
 8000544:	0031      	movs	r1, r6
 8000546:	0038      	movs	r0, r7
 8000548:	f003 fe64 	bl	8004214 <HAL_UART_Transmit>
	  		  if(stepA && pendingPhase)
 800054c:	4969      	ldr	r1, [pc, #420]	; (80006f4 <OSC_MODE_HOME+0x218>)
 800054e:	4b6a      	ldr	r3, [pc, #424]	; (80006f8 <OSC_MODE_HOME+0x21c>)
 8000550:	780a      	ldrb	r2, [r1, #0]
 8000552:	2a00      	cmp	r2, #0
 8000554:	d016      	beq.n	8000584 <OSC_MODE_HOME+0xa8>
 8000556:	781a      	ldrb	r2, [r3, #0]
 8000558:	2a00      	cmp	r2, #0
 800055a:	d013      	beq.n	8000584 <OSC_MODE_HOME+0xa8>
	  			  __HAL_TIM_SET_COMPARE(&htim1,TIM_CHANNEL_3,0);
 800055c:	4a67      	ldr	r2, [pc, #412]	; (80006fc <OSC_MODE_HOME+0x220>)
	  			  __HAL_TIM_SET_COMPARE(&htim1,TIM_CHANNEL_1,pulse);
 800055e:	4d68      	ldr	r5, [pc, #416]	; (8000700 <OSC_MODE_HOME+0x224>)
	  			  __HAL_TIM_SET_COMPARE(&htim1,TIM_CHANNEL_3,0);
 8000560:	6810      	ldr	r0, [r2, #0]
 8000562:	2200      	movs	r2, #0
	  			  __HAL_TIM_SET_COMPARE(&htim1,TIM_CHANNEL_1,pulse);
 8000564:	2600      	movs	r6, #0
 8000566:	5fad      	ldrsh	r5, [r5, r6]
	  			  __HAL_TIM_SET_COMPARE(&htim1,TIM_CHANNEL_3,0);
 8000568:	63c2      	str	r2, [r0, #60]	; 0x3c
	  			  __HAL_TIM_SET_COMPARE(&htim1,TIM_CHANNEL_1,pulse);
 800056a:	6345      	str	r5, [r0, #52]	; 0x34
	  			    __HAL_TIM_SET_COMPARE(&htim1,TIM_CHANNEL_2,0);
 800056c:	6382      	str	r2, [r0, #56]	; 0x38
	  			  stepAB=1;
 800056e:	4865      	ldr	r0, [pc, #404]	; (8000704 <OSC_MODE_HOME+0x228>)
	  			  stepA =0 ;
 8000570:	700a      	strb	r2, [r1, #0]
	  			  stepAB=1;
 8000572:	7004      	strb	r4, [r0, #0]
	  			  execute++;
 8000574:	4864      	ldr	r0, [pc, #400]	; (8000708 <OSC_MODE_HOME+0x22c>)
	  			  pendingPhase = 0;
 8000576:	701a      	strb	r2, [r3, #0]
	  			  execute++;
 8000578:	8802      	ldrh	r2, [r0, #0]
 800057a:	3201      	adds	r2, #1
 800057c:	8002      	strh	r2, [r0, #0]
	  			  i++;
 800057e:	9a00      	ldr	r2, [sp, #0]
 8000580:	3201      	adds	r2, #1
 8000582:	9200      	str	r2, [sp, #0]
	  		  if(stepAB && pendingPhase)
 8000584:	4d5f      	ldr	r5, [pc, #380]	; (8000704 <OSC_MODE_HOME+0x228>)
 8000586:	782a      	ldrb	r2, [r5, #0]
 8000588:	2a00      	cmp	r2, #0
 800058a:	d037      	beq.n	80005fc <OSC_MODE_HOME+0x120>
 800058c:	781a      	ldrb	r2, [r3, #0]
 800058e:	2a00      	cmp	r2, #0
 8000590:	d034      	beq.n	80005fc <OSC_MODE_HOME+0x120>
	  		  	  __HAL_TIM_SET_COMPARE(&htim1,TIM_CHANNEL_3,0);
 8000592:	4a5a      	ldr	r2, [pc, #360]	; (80006fc <OSC_MODE_HOME+0x220>)
	  		  	  __HAL_TIM_SET_COMPARE(&htim1,TIM_CHANNEL_1,pulse);
 8000594:	4e5a      	ldr	r6, [pc, #360]	; (8000700 <OSC_MODE_HOME+0x224>)
	  		  	  __HAL_TIM_SET_COMPARE(&htim1,TIM_CHANNEL_3,0);
 8000596:	6810      	ldr	r0, [r2, #0]
 8000598:	2200      	movs	r2, #0
	  		  	  __HAL_TIM_SET_COMPARE(&htim1,TIM_CHANNEL_1,pulse);
 800059a:	2700      	movs	r7, #0
 800059c:	5ff6      	ldrsh	r6, [r6, r7]
	  		  	  __HAL_TIM_SET_COMPARE(&htim1,TIM_CHANNEL_3,0);
 800059e:	63c2      	str	r2, [r0, #60]	; 0x3c
	  		  	  __HAL_TIM_SET_COMPARE(&htim1,TIM_CHANNEL_1,pulse);
 80005a0:	6346      	str	r6, [r0, #52]	; 0x34
	  		  	  __HAL_TIM_SET_COMPARE(&htim1,TIM_CHANNEL_2,pulse);
 80005a2:	6386      	str	r6, [r0, #56]	; 0x38
	  		  	   stepB=1;
 80005a4:	4859      	ldr	r0, [pc, #356]	; (800070c <OSC_MODE_HOME+0x230>)
	  		  	   stepAB =0 ;
 80005a6:	702a      	strb	r2, [r5, #0]
	  		  	   stepB=1;
 80005a8:	7004      	strb	r4, [r0, #0]
	  		  	   pendingPhase = 0;
 80005aa:	701a      	strb	r2, [r3, #0]
	  		  if(stepBC && pendingPhase)
 80005ac:	4d58      	ldr	r5, [pc, #352]	; (8000710 <OSC_MODE_HOME+0x234>)
 80005ae:	782a      	ldrb	r2, [r5, #0]
 80005b0:	2a00      	cmp	r2, #0
 80005b2:	d037      	beq.n	8000624 <OSC_MODE_HOME+0x148>
 80005b4:	781a      	ldrb	r2, [r3, #0]
 80005b6:	2a00      	cmp	r2, #0
 80005b8:	d034      	beq.n	8000624 <OSC_MODE_HOME+0x148>
	  		  	    __HAL_TIM_SET_COMPARE(&htim1,TIM_CHANNEL_1,0);
 80005ba:	4a50      	ldr	r2, [pc, #320]	; (80006fc <OSC_MODE_HOME+0x220>)
	  		  	    __HAL_TIM_SET_COMPARE(&htim1,TIM_CHANNEL_2,pulse);
 80005bc:	4e50      	ldr	r6, [pc, #320]	; (8000700 <OSC_MODE_HOME+0x224>)
	  		  	    __HAL_TIM_SET_COMPARE(&htim1,TIM_CHANNEL_1,0);
 80005be:	6810      	ldr	r0, [r2, #0]
 80005c0:	2200      	movs	r2, #0
	  		  	    __HAL_TIM_SET_COMPARE(&htim1,TIM_CHANNEL_2,pulse);
 80005c2:	2700      	movs	r7, #0
 80005c4:	5ff6      	ldrsh	r6, [r6, r7]
	  		  	    __HAL_TIM_SET_COMPARE(&htim1,TIM_CHANNEL_1,0);
 80005c6:	6342      	str	r2, [r0, #52]	; 0x34
	  		  	    __HAL_TIM_SET_COMPARE(&htim1,TIM_CHANNEL_2,pulse);
 80005c8:	6386      	str	r6, [r0, #56]	; 0x38
	  		  	    __HAL_TIM_SET_COMPARE(&htim1,TIM_CHANNEL_3,pulse);
 80005ca:	63c6      	str	r6, [r0, #60]	; 0x3c
	  		  	    stepC =1;
 80005cc:	4851      	ldr	r0, [pc, #324]	; (8000714 <OSC_MODE_HOME+0x238>)
	  		  	    stepBC = 0;
 80005ce:	702a      	strb	r2, [r5, #0]
	  		  	    stepC =1;
 80005d0:	7004      	strb	r4, [r0, #0]
	  		  	    pendingPhase = 0;
 80005d2:	701a      	strb	r2, [r3, #0]
	  	      if(stepCA && pendingPhase)
 80005d4:	4a50      	ldr	r2, [pc, #320]	; (8000718 <OSC_MODE_HOME+0x23c>)
 80005d6:	7812      	ldrb	r2, [r2, #0]
 80005d8:	2a00      	cmp	r2, #0
 80005da:	d036      	beq.n	800064a <OSC_MODE_HOME+0x16e>
 80005dc:	781a      	ldrb	r2, [r3, #0]
 80005de:	2a00      	cmp	r2, #0
 80005e0:	d033      	beq.n	800064a <OSC_MODE_HOME+0x16e>
					 __HAL_TIM_SET_COMPARE(&htim1,TIM_CHANNEL_1,pulse);
 80005e2:	4847      	ldr	r0, [pc, #284]	; (8000700 <OSC_MODE_HOME+0x224>)
 80005e4:	4a45      	ldr	r2, [pc, #276]	; (80006fc <OSC_MODE_HOME+0x220>)
 80005e6:	2500      	movs	r5, #0
 80005e8:	5f45      	ldrsh	r5, [r0, r5]
					 __HAL_TIM_SET_COMPARE(&htim1,TIM_CHANNEL_2,0);
 80005ea:	2000      	movs	r0, #0
					 __HAL_TIM_SET_COMPARE(&htim1,TIM_CHANNEL_1,pulse);
 80005ec:	6812      	ldr	r2, [r2, #0]
					stepA=1;
 80005ee:	700c      	strb	r4, [r1, #0]
					 __HAL_TIM_SET_COMPARE(&htim1,TIM_CHANNEL_1,pulse);
 80005f0:	6355      	str	r5, [r2, #52]	; 0x34
					 __HAL_TIM_SET_COMPARE(&htim1,TIM_CHANNEL_2,0);
 80005f2:	6390      	str	r0, [r2, #56]	; 0x38
					 __HAL_TIM_SET_COMPARE(&htim1,TIM_CHANNEL_3,pulse);
 80005f4:	63d5      	str	r5, [r2, #60]	; 0x3c
					stepC = 0;
 80005f6:	4a47      	ldr	r2, [pc, #284]	; (8000714 <OSC_MODE_HOME+0x238>)
 80005f8:	7010      	strb	r0, [r2, #0]
					pendingPhase = 0;
 80005fa:	e026      	b.n	800064a <OSC_MODE_HOME+0x16e>
	  		  if(stepB && pendingPhase)
 80005fc:	4d43      	ldr	r5, [pc, #268]	; (800070c <OSC_MODE_HOME+0x230>)
 80005fe:	782a      	ldrb	r2, [r5, #0]
 8000600:	2a00      	cmp	r2, #0
 8000602:	d0d3      	beq.n	80005ac <OSC_MODE_HOME+0xd0>
 8000604:	781a      	ldrb	r2, [r3, #0]
 8000606:	2a00      	cmp	r2, #0
 8000608:	d0d0      	beq.n	80005ac <OSC_MODE_HOME+0xd0>
				  __HAL_TIM_SET_COMPARE(&htim1,TIM_CHANNEL_1,0);
 800060a:	4a3c      	ldr	r2, [pc, #240]	; (80006fc <OSC_MODE_HOME+0x220>)
				  __HAL_TIM_SET_COMPARE(&htim1,TIM_CHANNEL_2,pulse);
 800060c:	4e3c      	ldr	r6, [pc, #240]	; (8000700 <OSC_MODE_HOME+0x224>)
				  __HAL_TIM_SET_COMPARE(&htim1,TIM_CHANNEL_1,0);
 800060e:	6810      	ldr	r0, [r2, #0]
 8000610:	2200      	movs	r2, #0
				  __HAL_TIM_SET_COMPARE(&htim1,TIM_CHANNEL_2,pulse);
 8000612:	2700      	movs	r7, #0
 8000614:	5ff6      	ldrsh	r6, [r6, r7]
				  __HAL_TIM_SET_COMPARE(&htim1,TIM_CHANNEL_1,0);
 8000616:	6342      	str	r2, [r0, #52]	; 0x34
				  __HAL_TIM_SET_COMPARE(&htim1,TIM_CHANNEL_2,pulse);
 8000618:	6386      	str	r6, [r0, #56]	; 0x38
				  __HAL_TIM_SET_COMPARE(&htim1,TIM_CHANNEL_3,0);
 800061a:	63c2      	str	r2, [r0, #60]	; 0x3c
				  stepBC =1;
 800061c:	483c      	ldr	r0, [pc, #240]	; (8000710 <OSC_MODE_HOME+0x234>)
				  stepB = 0;
 800061e:	702a      	strb	r2, [r5, #0]
				  stepBC =1;
 8000620:	7004      	strb	r4, [r0, #0]
				  pendingPhase = 0;
 8000622:	701a      	strb	r2, [r3, #0]
	  	      if(stepC && pendingPhase)
 8000624:	483b      	ldr	r0, [pc, #236]	; (8000714 <OSC_MODE_HOME+0x238>)
 8000626:	7802      	ldrb	r2, [r0, #0]
 8000628:	2a00      	cmp	r2, #0
 800062a:	d0d3      	beq.n	80005d4 <OSC_MODE_HOME+0xf8>
 800062c:	781a      	ldrb	r2, [r3, #0]
 800062e:	2a00      	cmp	r2, #0
 8000630:	d0d0      	beq.n	80005d4 <OSC_MODE_HOME+0xf8>
					__HAL_TIM_SET_COMPARE(&htim1,TIM_CHANNEL_1,0);
 8000632:	4a32      	ldr	r2, [pc, #200]	; (80006fc <OSC_MODE_HOME+0x220>)
					__HAL_TIM_SET_COMPARE(&htim1,TIM_CHANNEL_3,pulse);
 8000634:	4d32      	ldr	r5, [pc, #200]	; (8000700 <OSC_MODE_HOME+0x224>)
					__HAL_TIM_SET_COMPARE(&htim1,TIM_CHANNEL_1,0);
 8000636:	6811      	ldr	r1, [r2, #0]
 8000638:	2200      	movs	r2, #0
					__HAL_TIM_SET_COMPARE(&htim1,TIM_CHANNEL_3,pulse);
 800063a:	2600      	movs	r6, #0
 800063c:	5fad      	ldrsh	r5, [r5, r6]
					__HAL_TIM_SET_COMPARE(&htim1,TIM_CHANNEL_1,0);
 800063e:	634a      	str	r2, [r1, #52]	; 0x34
					stepC = 0;
 8000640:	7002      	strb	r2, [r0, #0]
					__HAL_TIM_SET_COMPARE(&htim1,TIM_CHANNEL_2,0);
 8000642:	638a      	str	r2, [r1, #56]	; 0x38
					stepCA=1;
 8000644:	4a34      	ldr	r2, [pc, #208]	; (8000718 <OSC_MODE_HOME+0x23c>)
					__HAL_TIM_SET_COMPARE(&htim1,TIM_CHANNEL_3,pulse);
 8000646:	63cd      	str	r5, [r1, #60]	; 0x3c
					stepCA=1;
 8000648:	7014      	strb	r4, [r2, #0]
	  	        pendingPhase = 1;
 800064a:	701c      	strb	r4, [r3, #0]
		  if( HALL_M1.HallState == 71 && (HALL_M1.HallStateHomePosition != HALL_M1.HallState))
 800064c:	4b23      	ldr	r3, [pc, #140]	; (80006dc <OSC_MODE_HOME+0x200>)
 800064e:	4d2e      	ldr	r5, [pc, #184]	; (8000708 <OSC_MODE_HOME+0x22c>)
 8000650:	001a      	movs	r2, r3
 8000652:	32a6      	adds	r2, #166	; 0xa6
 8000654:	7812      	ldrb	r2, [r2, #0]
 8000656:	2a47      	cmp	r2, #71	; 0x47
 8000658:	d114      	bne.n	8000684 <OSC_MODE_HOME+0x1a8>
 800065a:	001a      	movs	r2, r3
 800065c:	32a9      	adds	r2, #169	; 0xa9
 800065e:	7810      	ldrb	r0, [r2, #0]
 8000660:	2847      	cmp	r0, #71	; 0x47
 8000662:	d00f      	beq.n	8000684 <OSC_MODE_HOME+0x1a8>
							  HALL_M1.HallStateCounter = HALL_M1.HallStateCounter-HALL_M1.HallState+1;
 8000664:	001a      	movs	r2, r3
 8000666:	32a7      	adds	r2, #167	; 0xa7
 8000668:	7811      	ldrb	r1, [r2, #0]
							  HALL_M1.HallStateCounter = HALL_M1.HallStateCounter-HALL_M1.HallState-1;
 800066a:	000a      	movs	r2, r1
 800066c:	3a48      	subs	r2, #72	; 0x48
 800066e:	b2d2      	uxtb	r2, r2
						  if( HALL_M1.HallStateHomePosition < HALL_M1.HallState)
 8000670:	2846      	cmp	r0, #70	; 0x46
 8000672:	d801      	bhi.n	8000678 <OSC_MODE_HOME+0x19c>
							  HALL_M1.HallStateCounter = HALL_M1.HallStateCounter-HALL_M1.HallState+1;
 8000674:	3946      	subs	r1, #70	; 0x46
 8000676:	b2ca      	uxtb	r2, r1
 8000678:	33a7      	adds	r3, #167	; 0xa7
 800067a:	701a      	strb	r2, [r3, #0]
						 count =0;
 800067c:	2300      	movs	r3, #0
 800067e:	4a27      	ldr	r2, [pc, #156]	; (800071c <OSC_MODE_HOME+0x240>)
						 execute=0;
 8000680:	802b      	strh	r3, [r5, #0]
						 count =0;
 8000682:	8013      	strh	r3, [r2, #0]
		  execute = execute%7;
 8000684:	8828      	ldrh	r0, [r5, #0]
 8000686:	2107      	movs	r1, #7
 8000688:	f7ff fdec 	bl	8000264 <__aeabi_uidivmod>
		  waitToMoveCounter++;
 800068c:	4a24      	ldr	r2, [pc, #144]	; (8000720 <OSC_MODE_HOME+0x244>)
		  if(moveMotor == 0 && waitToMoveCounter >=50)
 800068e:	4814      	ldr	r0, [pc, #80]	; (80006e0 <OSC_MODE_HOME+0x204>)
		  waitToMoveCounter++;
 8000690:	8813      	ldrh	r3, [r2, #0]
		  execute = execute%7;
 8000692:	8029      	strh	r1, [r5, #0]
		  waitToMoveCounter++;
 8000694:	3301      	adds	r3, #1
		  if(moveMotor == 0 && waitToMoveCounter >=50)
 8000696:	7801      	ldrb	r1, [r0, #0]
		  waitToMoveCounter++;
 8000698:	b29b      	uxth	r3, r3
 800069a:	8013      	strh	r3, [r2, #0]
		  if(moveMotor == 0 && waitToMoveCounter >=50)
 800069c:	2900      	cmp	r1, #0
 800069e:	d000      	beq.n	80006a2 <OSC_MODE_HOME+0x1c6>
 80006a0:	e728      	b.n	80004f4 <OSC_MODE_HOME+0x18>
 80006a2:	2b31      	cmp	r3, #49	; 0x31
 80006a4:	d800      	bhi.n	80006a8 <OSC_MODE_HOME+0x1cc>
 80006a6:	e725      	b.n	80004f4 <OSC_MODE_HOME+0x18>
			  moveMotor =1;
 80006a8:	7004      	strb	r4, [r0, #0]
			  waitToMoveCounter=0;
 80006aa:	8011      	strh	r1, [r2, #0]
 80006ac:	e722      	b.n	80004f4 <OSC_MODE_HOME+0x18>
				  __HAL_TIM_SET_COMPARE(&htim1,TIM_CHANNEL_1,0);
 80006ae:	4b13      	ldr	r3, [pc, #76]	; (80006fc <OSC_MODE_HOME+0x220>)
 80006b0:	681a      	ldr	r2, [r3, #0]
 80006b2:	2300      	movs	r3, #0
 80006b4:	6353      	str	r3, [r2, #52]	; 0x34
				  moveMotor = 0;
 80006b6:	700b      	strb	r3, [r1, #0]
				  __HAL_TIM_SET_COMPARE(&htim1,TIM_CHANNEL_2,0);
 80006b8:	6393      	str	r3, [r2, #56]	; 0x38
				  __HAL_TIM_SET_COMPARE(&htim1,TIM_CHANNEL_3,0);
 80006ba:	63d3      	str	r3, [r2, #60]	; 0x3c
				  if(count == 0 )
 80006bc:	4b17      	ldr	r3, [pc, #92]	; (800071c <OSC_MODE_HOME+0x240>)
 80006be:	881a      	ldrh	r2, [r3, #0]
 80006c0:	2a00      	cmp	r2, #0
 80006c2:	d104      	bne.n	80006ce <OSC_MODE_HOME+0x1f2>
						   oldhallstate =(uint16_t *) HALL_M1.HallState;
 80006c4:	35a6      	adds	r5, #166	; 0xa6
 80006c6:	7829      	ldrb	r1, [r5, #0]
 80006c8:	4a16      	ldr	r2, [pc, #88]	; (8000724 <OSC_MODE_HOME+0x248>)
						   count =1;
 80006ca:	801c      	strh	r4, [r3, #0]
						   oldhallstate =(uint16_t *) HALL_M1.HallState;
 80006cc:	8011      	strh	r1, [r2, #0]
					  execute=0;
 80006ce:	2000      	movs	r0, #0
 80006d0:	4b0d      	ldr	r3, [pc, #52]	; (8000708 <OSC_MODE_HOME+0x22c>)
 80006d2:	8018      	strh	r0, [r3, #0]
					  HAL_Delay(0.1);
 80006d4:	f002 fa82 	bl	8002bdc <HAL_Delay>
 80006d8:	e7b8      	b.n	800064c <OSC_MODE_HOME+0x170>
 80006da:	46c0      	nop			; (mov r8, r8)
 80006dc:	200000f8 	.word	0x200000f8
 80006e0:	20000000 	.word	0x20000000
 80006e4:	200006b0 	.word	0x200006b0
 80006e8:	080066f4 	.word	0x080066f4
 80006ec:	20000824 	.word	0x20000824
 80006f0:	0800670b 	.word	0x0800670b
 80006f4:	20000004 	.word	0x20000004
 80006f8:	20000001 	.word	0x20000001
 80006fc:	2000074c 	.word	0x2000074c
 8000700:	20000002 	.word	0x20000002
 8000704:	200008aa 	.word	0x200008aa
 8000708:	200006c6 	.word	0x200006c6
 800070c:	200008ab 	.word	0x200008ab
 8000710:	200008ac 	.word	0x200008ac
 8000714:	200008ad 	.word	0x200008ad
 8000718:	200008ae 	.word	0x200008ae
 800071c:	200006c4 	.word	0x200006c4
 8000720:	200008b0 	.word	0x200008b0
 8000724:	200008a8 	.word	0x200008a8

08000728 <Home_Offset>:
//}
/*-- My code ends --*/


void Home_Offset(){
	HALL_M1.HallCounterHomePosition = HALL_M1.HallStateCounter;
 8000728:	4b03      	ldr	r3, [pc, #12]	; (8000738 <Home_Offset+0x10>)
 800072a:	001a      	movs	r2, r3
 800072c:	33a6      	adds	r3, #166	; 0xa6
 800072e:	881b      	ldrh	r3, [r3, #0]
 8000730:	32a8      	adds	r2, #168	; 0xa8
 8000732:	ba5b      	rev16	r3, r3
 8000734:	8013      	strh	r3, [r2, #0]
	HALL_M1.HallStateHomePosition = HALL_M1.HallState;
}
 8000736:	4770      	bx	lr
 8000738:	200000f8 	.word	0x200000f8

0800073c <SystemClock_Config>:
/**
  * @brief System Clock Configuration
  * @retval None
  */
void SystemClock_Config(void)
{
 800073c:	b530      	push	{r4, r5, lr}
  RCC_OscInitTypeDef RCC_OscInitStruct = {0};
  RCC_ClkInitTypeDef RCC_ClkInitStruct = {0};
 800073e:	2510      	movs	r5, #16
{
 8000740:	b095      	sub	sp, #84	; 0x54
  RCC_OscInitTypeDef RCC_OscInitStruct = {0};
 8000742:	222c      	movs	r2, #44	; 0x2c
 8000744:	2100      	movs	r1, #0
 8000746:	a809      	add	r0, sp, #36	; 0x24
 8000748:	f005 fb5f 	bl	8005e0a <memset>
  RCC_ClkInitTypeDef RCC_ClkInitStruct = {0};
 800074c:	002a      	movs	r2, r5
 800074e:	2100      	movs	r1, #0
 8000750:	4668      	mov	r0, sp
 8000752:	f005 fb5a 	bl	8005e0a <memset>
  RCC_PeriphCLKInitTypeDef PeriphClkInit = {0};
 8000756:	002a      	movs	r2, r5
 8000758:	2100      	movs	r1, #0
 800075a:	a804      	add	r0, sp, #16
 800075c:	f005 fb55 	bl	8005e0a <memset>

  /** Initializes the RCC Oscillators according to the specified parameters
  * in the RCC_OscInitTypeDef structure.
  */
  RCC_OscInitStruct.OscillatorType = RCC_OSCILLATORTYPE_HSI|RCC_OSCILLATORTYPE_HSI14;
 8000760:	2312      	movs	r3, #18
 8000762:	9308      	str	r3, [sp, #32]
  RCC_OscInitStruct.HSI14State = RCC_HSI14_ON;
  RCC_OscInitStruct.HSICalibrationValue = RCC_HSICALIBRATION_DEFAULT;
  RCC_OscInitStruct.HSI14CalibrationValue = 16;
  RCC_OscInitStruct.PLL.PLLState = RCC_PLL_ON;
  RCC_OscInitStruct.PLL.PLLSource = RCC_PLLSOURCE_HSI;
  RCC_OscInitStruct.PLL.PLLMUL = RCC_PLL_MUL12;
 8000764:	23a0      	movs	r3, #160	; 0xa0
  RCC_OscInitStruct.HSIState = RCC_HSI_ON;
 8000766:	2401      	movs	r4, #1
  RCC_OscInitStruct.HSICalibrationValue = RCC_HSICALIBRATION_DEFAULT;
 8000768:	950c      	str	r5, [sp, #48]	; 0x30
  RCC_OscInitStruct.HSI14CalibrationValue = 16;
 800076a:	950e      	str	r5, [sp, #56]	; 0x38
  RCC_OscInitStruct.PLL.PLLMUL = RCC_PLL_MUL12;
 800076c:	039b      	lsls	r3, r3, #14
  RCC_OscInitStruct.PLL.PLLState = RCC_PLL_ON;
 800076e:	3d0e      	subs	r5, #14
  RCC_OscInitStruct.PLL.PREDIV = RCC_PREDIV_DIV1;
  if (HAL_RCC_OscConfig(&RCC_OscInitStruct) != HAL_OK)
 8000770:	a808      	add	r0, sp, #32
  RCC_OscInitStruct.HSIState = RCC_HSI_ON;
 8000772:	940b      	str	r4, [sp, #44]	; 0x2c
  RCC_OscInitStruct.HSI14State = RCC_HSI14_ON;
 8000774:	940d      	str	r4, [sp, #52]	; 0x34
  RCC_OscInitStruct.PLL.PLLState = RCC_PLL_ON;
 8000776:	9510      	str	r5, [sp, #64]	; 0x40
  RCC_OscInitStruct.PLL.PLLMUL = RCC_PLL_MUL12;
 8000778:	9312      	str	r3, [sp, #72]	; 0x48
  if (HAL_RCC_OscConfig(&RCC_OscInitStruct) != HAL_OK)
 800077a:	f002 fcad 	bl	80030d8 <HAL_RCC_OscConfig>
 800077e:	2800      	cmp	r0, #0
 8000780:	d001      	beq.n	8000786 <SystemClock_Config+0x4a>
  \details Disables IRQ interrupts by setting the I-bit in the CPSR.
           Can only be executed in Privileged modes.
 */
__STATIC_FORCEINLINE void __disable_irq(void)
{
  __ASM volatile ("cpsid i" : : : "memory");
 8000782:	b672      	cpsid	i
void Error_Handler(void)
{
  /* USER CODE BEGIN Error_Handler_Debug */
  /* User can add his own implementation to report the HAL error return state */
  __disable_irq();
  while (1)
 8000784:	e7fe      	b.n	8000784 <SystemClock_Config+0x48>
  RCC_ClkInitStruct.ClockType = RCC_CLOCKTYPE_HCLK|RCC_CLOCKTYPE_SYSCLK
 8000786:	2307      	movs	r3, #7
  RCC_ClkInitStruct.AHBCLKDivider = RCC_SYSCLK_DIV1;
 8000788:	9002      	str	r0, [sp, #8]
  RCC_ClkInitStruct.APB1CLKDivider = RCC_HCLK_DIV1;
 800078a:	9003      	str	r0, [sp, #12]
  if (HAL_RCC_ClockConfig(&RCC_ClkInitStruct, FLASH_LATENCY_1) != HAL_OK)
 800078c:	0021      	movs	r1, r4
 800078e:	4668      	mov	r0, sp
  RCC_ClkInitStruct.ClockType = RCC_CLOCKTYPE_HCLK|RCC_CLOCKTYPE_SYSCLK
 8000790:	9300      	str	r3, [sp, #0]
  RCC_ClkInitStruct.SYSCLKSource = RCC_SYSCLKSOURCE_PLLCLK;
 8000792:	9501      	str	r5, [sp, #4]
  if (HAL_RCC_ClockConfig(&RCC_ClkInitStruct, FLASH_LATENCY_1) != HAL_OK)
 8000794:	f002 fedc 	bl	8003550 <HAL_RCC_ClockConfig>
 8000798:	2800      	cmp	r0, #0
 800079a:	d001      	beq.n	80007a0 <SystemClock_Config+0x64>
 800079c:	b672      	cpsid	i
  while (1)
 800079e:	e7fe      	b.n	800079e <SystemClock_Config+0x62>
  PeriphClkInit.Usart1ClockSelection = RCC_USART1CLKSOURCE_PCLK1;
 80007a0:	9006      	str	r0, [sp, #24]
  if (HAL_RCCEx_PeriphCLKConfig(&PeriphClkInit) != HAL_OK)
 80007a2:	a804      	add	r0, sp, #16
  PeriphClkInit.PeriphClockSelection = RCC_PERIPHCLK_USART1;
 80007a4:	9404      	str	r4, [sp, #16]
  if (HAL_RCCEx_PeriphCLKConfig(&PeriphClkInit) != HAL_OK)
 80007a6:	f002 ff6d 	bl	8003684 <HAL_RCCEx_PeriphCLKConfig>
 80007aa:	2800      	cmp	r0, #0
 80007ac:	d001      	beq.n	80007b2 <SystemClock_Config+0x76>
 80007ae:	b672      	cpsid	i
  while (1)
 80007b0:	e7fe      	b.n	80007b0 <SystemClock_Config+0x74>
  HAL_RCC_EnableCSS();
 80007b2:	f002 fe91 	bl	80034d8 <HAL_RCC_EnableCSS>
}
 80007b6:	b015      	add	sp, #84	; 0x54
 80007b8:	bd30      	pop	{r4, r5, pc}
	...

080007bc <main>:
{
 80007bc:	b5f0      	push	{r4, r5, r6, r7, lr}
 80007be:	b097      	sub	sp, #92	; 0x5c
  HAL_Init();
 80007c0:	f002 f9ea 	bl	8002b98 <HAL_Init>
  SystemClock_Config();
 80007c4:	f7ff ffba 	bl	800073c <SystemClock_Config>
  GPIO_InitTypeDef GPIO_InitStruct = {0};
 80007c8:	2214      	movs	r2, #20
 80007ca:	2100      	movs	r1, #0
 80007cc:	a80e      	add	r0, sp, #56	; 0x38
 80007ce:	f005 fb1c 	bl	8005e0a <memset>
  __HAL_RCC_GPIOF_CLK_ENABLE();
 80007d2:	2180      	movs	r1, #128	; 0x80
 80007d4:	4cd0      	ldr	r4, [pc, #832]	; (8000b18 <main+0x35c>)
 80007d6:	03c9      	lsls	r1, r1, #15
 80007d8:	6962      	ldr	r2, [r4, #20]
  HAL_GPIO_WritePin(OC_SEL_GPIO_Port, OC_SEL_Pin, GPIO_PIN_SET);
 80007da:	2090      	movs	r0, #144	; 0x90
  __HAL_RCC_GPIOF_CLK_ENABLE();
 80007dc:	430a      	orrs	r2, r1
 80007de:	6162      	str	r2, [r4, #20]
 80007e0:	6963      	ldr	r3, [r4, #20]
  HAL_GPIO_WritePin(OC_SEL_GPIO_Port, OC_SEL_Pin, GPIO_PIN_SET);
 80007e2:	05c0      	lsls	r0, r0, #23
  __HAL_RCC_GPIOF_CLK_ENABLE();
 80007e4:	400b      	ands	r3, r1
  __HAL_RCC_GPIOA_CLK_ENABLE();
 80007e6:	2180      	movs	r1, #128	; 0x80
  __HAL_RCC_GPIOF_CLK_ENABLE();
 80007e8:	9302      	str	r3, [sp, #8]
 80007ea:	9b02      	ldr	r3, [sp, #8]
  __HAL_RCC_GPIOA_CLK_ENABLE();
 80007ec:	6962      	ldr	r2, [r4, #20]
 80007ee:	0289      	lsls	r1, r1, #10
 80007f0:	430a      	orrs	r2, r1
 80007f2:	6162      	str	r2, [r4, #20]
 80007f4:	6963      	ldr	r3, [r4, #20]
  GPIO_InitStruct.Pin = Start_Stop_Pin;
 80007f6:	2501      	movs	r5, #1
  __HAL_RCC_GPIOA_CLK_ENABLE();
 80007f8:	400b      	ands	r3, r1
  __HAL_RCC_GPIOB_CLK_ENABLE();
 80007fa:	2180      	movs	r1, #128	; 0x80
  __HAL_RCC_GPIOA_CLK_ENABLE();
 80007fc:	9303      	str	r3, [sp, #12]
 80007fe:	9b03      	ldr	r3, [sp, #12]
  __HAL_RCC_GPIOB_CLK_ENABLE();
 8000800:	6962      	ldr	r2, [r4, #20]
 8000802:	02c9      	lsls	r1, r1, #11
 8000804:	430a      	orrs	r2, r1
 8000806:	6162      	str	r2, [r4, #20]
 8000808:	6963      	ldr	r3, [r4, #20]
  HAL_GPIO_WritePin(OC_SEL_GPIO_Port, OC_SEL_Pin, GPIO_PIN_SET);
 800080a:	2201      	movs	r2, #1
  __HAL_RCC_GPIOB_CLK_ENABLE();
 800080c:	400b      	ands	r3, r1
  HAL_GPIO_WritePin(OC_SEL_GPIO_Port, OC_SEL_Pin, GPIO_PIN_SET);
 800080e:	2180      	movs	r1, #128	; 0x80
  __HAL_RCC_GPIOB_CLK_ENABLE();
 8000810:	9304      	str	r3, [sp, #16]
  HAL_GPIO_WritePin(OC_SEL_GPIO_Port, OC_SEL_Pin, GPIO_PIN_SET);
 8000812:	0109      	lsls	r1, r1, #4
  __HAL_RCC_GPIOB_CLK_ENABLE();
 8000814:	9b04      	ldr	r3, [sp, #16]
  HAL_GPIO_WritePin(OC_SEL_GPIO_Port, OC_SEL_Pin, GPIO_PIN_SET);
 8000816:	f002 fc59 	bl	80030cc <HAL_GPIO_WritePin>
  HAL_GPIO_WritePin(_3FG_HIZ_GPIO_Port, _3FG_HIZ_Pin, GPIO_PIN_RESET);
 800081a:	2180      	movs	r1, #128	; 0x80
 800081c:	2090      	movs	r0, #144	; 0x90
 800081e:	2200      	movs	r2, #0
 8000820:	0149      	lsls	r1, r1, #5
 8000822:	05c0      	lsls	r0, r0, #23
 8000824:	f002 fc52 	bl	80030cc <HAL_GPIO_WritePin>
  HAL_GPIO_WritePin(OCTH_STBY2_GPIO_Port, OCTH_STBY2_Pin, GPIO_PIN_RESET);
 8000828:	2200      	movs	r2, #0
 800082a:	2140      	movs	r1, #64	; 0x40
 800082c:	48bb      	ldr	r0, [pc, #748]	; (8000b1c <main+0x360>)
 800082e:	f002 fc4d 	bl	80030cc <HAL_GPIO_WritePin>
  HAL_GPIO_WritePin(OCTH_STBY1_GPIO_Port, OCTH_STBY1_Pin, GPIO_PIN_SET);
 8000832:	2201      	movs	r2, #1
 8000834:	2180      	movs	r1, #128	; 0x80
 8000836:	48b9      	ldr	r0, [pc, #740]	; (8000b1c <main+0x360>)
 8000838:	f002 fc48 	bl	80030cc <HAL_GPIO_WritePin>
  GPIO_InitStruct.Mode = GPIO_MODE_IT_FALLING;
 800083c:	2384      	movs	r3, #132	; 0x84
  HAL_GPIO_Init(Start_Stop_GPIO_Port, &GPIO_InitStruct);
 800083e:	48b7      	ldr	r0, [pc, #732]	; (8000b1c <main+0x360>)
  GPIO_InitStruct.Mode = GPIO_MODE_IT_FALLING;
 8000840:	039b      	lsls	r3, r3, #14
  HAL_GPIO_Init(Start_Stop_GPIO_Port, &GPIO_InitStruct);
 8000842:	a90e      	add	r1, sp, #56	; 0x38
  GPIO_InitStruct.Mode = GPIO_MODE_IT_FALLING;
 8000844:	930f      	str	r3, [sp, #60]	; 0x3c
  GPIO_InitStruct.Pin = Start_Stop_Pin;
 8000846:	950e      	str	r5, [sp, #56]	; 0x38
  GPIO_InitStruct.Pull = GPIO_PULLUP;
 8000848:	9510      	str	r5, [sp, #64]	; 0x40
  HAL_GPIO_Init(Start_Stop_GPIO_Port, &GPIO_InitStruct);
 800084a:	f002 fb8f 	bl	8002f6c <HAL_GPIO_Init>
  GPIO_InitStruct.Pin = OC_SEL_Pin|_3FG_HIZ_Pin;
 800084e:	23c0      	movs	r3, #192	; 0xc0
  HAL_GPIO_Init(GPIOA, &GPIO_InitStruct);
 8000850:	2090      	movs	r0, #144	; 0x90
  GPIO_InitStruct.Speed = GPIO_SPEED_FREQ_LOW;
 8000852:	2600      	movs	r6, #0
  GPIO_InitStruct.Pull = GPIO_PULLDOWN;
 8000854:	2702      	movs	r7, #2
  GPIO_InitStruct.Pin = OC_SEL_Pin|_3FG_HIZ_Pin;
 8000856:	015b      	lsls	r3, r3, #5
  HAL_GPIO_Init(GPIOA, &GPIO_InitStruct);
 8000858:	a90e      	add	r1, sp, #56	; 0x38
 800085a:	05c0      	lsls	r0, r0, #23
  GPIO_InitStruct.Pin = OC_SEL_Pin|_3FG_HIZ_Pin;
 800085c:	930e      	str	r3, [sp, #56]	; 0x38
  GPIO_InitStruct.Pull = GPIO_PULLDOWN;
 800085e:	9710      	str	r7, [sp, #64]	; 0x40
  GPIO_InitStruct.Mode = GPIO_MODE_OUTPUT_PP;
 8000860:	950f      	str	r5, [sp, #60]	; 0x3c
  GPIO_InitStruct.Speed = GPIO_SPEED_FREQ_LOW;
 8000862:	9611      	str	r6, [sp, #68]	; 0x44
  HAL_GPIO_Init(GPIOA, &GPIO_InitStruct);
 8000864:	f002 fb82 	bl	8002f6c <HAL_GPIO_Init>
  GPIO_InitStruct.Pin = OCTH_STBY2_Pin|OCTH_STBY1_Pin;
 8000868:	23c0      	movs	r3, #192	; 0xc0
  HAL_GPIO_Init(GPIOF, &GPIO_InitStruct);
 800086a:	48ac      	ldr	r0, [pc, #688]	; (8000b1c <main+0x360>)
 800086c:	a90e      	add	r1, sp, #56	; 0x38
  GPIO_InitStruct.Pin = OCTH_STBY2_Pin|OCTH_STBY1_Pin;
 800086e:	930e      	str	r3, [sp, #56]	; 0x38
  GPIO_InitStruct.Pull = GPIO_PULLDOWN;
 8000870:	9710      	str	r7, [sp, #64]	; 0x40
  GPIO_InitStruct.Mode = GPIO_MODE_OUTPUT_PP;
 8000872:	950f      	str	r5, [sp, #60]	; 0x3c
  GPIO_InitStruct.Speed = GPIO_SPEED_FREQ_LOW;
 8000874:	9611      	str	r6, [sp, #68]	; 0x44
  HAL_GPIO_Init(GPIOF, &GPIO_InitStruct);
 8000876:	f002 fb79 	bl	8002f6c <HAL_GPIO_Init>
  __HAL_RCC_DMA1_CLK_ENABLE();
 800087a:	6963      	ldr	r3, [r4, #20]
  ADC_ChannelConfTypeDef sConfig = {0};
 800087c:	220c      	movs	r2, #12
  __HAL_RCC_DMA1_CLK_ENABLE();
 800087e:	432b      	orrs	r3, r5
 8000880:	6163      	str	r3, [r4, #20]
 8000882:	6963      	ldr	r3, [r4, #20]
  ADC_ChannelConfTypeDef sConfig = {0};
 8000884:	0031      	movs	r1, r6
  __HAL_RCC_DMA1_CLK_ENABLE();
 8000886:	402b      	ands	r3, r5
 8000888:	9301      	str	r3, [sp, #4]
  ADC_ChannelConfTypeDef sConfig = {0};
 800088a:	a80e      	add	r0, sp, #56	; 0x38
  __HAL_RCC_DMA1_CLK_ENABLE();
 800088c:	9b01      	ldr	r3, [sp, #4]
  ADC_ChannelConfTypeDef sConfig = {0};
 800088e:	f005 fabc 	bl	8005e0a <memset>
  hadc.Instance = ADC1;
 8000892:	4ca3      	ldr	r4, [pc, #652]	; (8000b20 <main+0x364>)
 8000894:	4ba3      	ldr	r3, [pc, #652]	; (8000b24 <main+0x368>)
  hadc.Init.EOCSelection = ADC_EOC_SINGLE_CONV;
 8000896:	19ff      	adds	r7, r7, r7
  hadc.Instance = ADC1;
 8000898:	6023      	str	r3, [r4, #0]
  hadc.Init.DataAlign = ADC_DATAALIGN_LEFT;
 800089a:	2320      	movs	r3, #32
 800089c:	60e3      	str	r3, [r4, #12]
  hadc.Init.ExternalTrigConvEdge = ADC_EXTERNALTRIGCONVEDGE_RISING;
 800089e:	2380      	movs	r3, #128	; 0x80
 80008a0:	00db      	lsls	r3, r3, #3
 80008a2:	6223      	str	r3, [r4, #32]
  if (HAL_ADC_Init(&hadc) != HAL_OK)
 80008a4:	0020      	movs	r0, r4
  hadc.Init.DMAContinuousRequests = ENABLE;
 80008a6:	1d63      	adds	r3, r4, #5
  hadc.Init.LowPowerAutoWait = DISABLE;
 80008a8:	61a6      	str	r6, [r4, #24]
  hadc.Init.ClockPrescaler = ADC_CLOCK_ASYNC_DIV1;
 80008aa:	6066      	str	r6, [r4, #4]
  hadc.Init.Resolution = ADC_RESOLUTION_12B;
 80008ac:	60a6      	str	r6, [r4, #8]
  hadc.Init.ScanConvMode = ADC_SCAN_DIRECTION_FORWARD;
 80008ae:	6125      	str	r5, [r4, #16]
  hadc.Init.EOCSelection = ADC_EOC_SINGLE_CONV;
 80008b0:	6167      	str	r7, [r4, #20]
  hadc.Init.ExternalTrigConv = ADC_EXTERNALTRIGCONV_T1_TRGO;
 80008b2:	61e6      	str	r6, [r4, #28]
  hadc.Init.DMAContinuousRequests = ENABLE;
 80008b4:	77dd      	strb	r5, [r3, #31]
  hadc.Init.Overrun = ADC_OVR_DATA_PRESERVED;
 80008b6:	62a5      	str	r5, [r4, #40]	; 0x28
  if (HAL_ADC_Init(&hadc) != HAL_OK)
 80008b8:	f002 f9a2 	bl	8002c00 <HAL_ADC_Init>
 80008bc:	42b0      	cmp	r0, r6
 80008be:	d001      	beq.n	80008c4 <main+0x108>
 80008c0:	b672      	cpsid	i
  while (1)
 80008c2:	e7fe      	b.n	80008c2 <main+0x106>
  sConfig.Rank = ADC_RANK_CHANNEL_NUMBER;
 80008c4:	2380      	movs	r3, #128	; 0x80
  sConfig.Channel = ADC_CHANNEL_3;
 80008c6:	2603      	movs	r6, #3
  sConfig.Rank = ADC_RANK_CHANNEL_NUMBER;
 80008c8:	015b      	lsls	r3, r3, #5
  if (HAL_ADC_ConfigChannel(&hadc, &sConfig) != HAL_OK)
 80008ca:	0020      	movs	r0, r4
 80008cc:	a90e      	add	r1, sp, #56	; 0x38
  sConfig.Channel = ADC_CHANNEL_3;
 80008ce:	960e      	str	r6, [sp, #56]	; 0x38
  sConfig.Rank = ADC_RANK_CHANNEL_NUMBER;
 80008d0:	930f      	str	r3, [sp, #60]	; 0x3c
  sConfig.SamplingTime = ADC_SAMPLETIME_7CYCLES_5;
 80008d2:	9510      	str	r5, [sp, #64]	; 0x40
  if (HAL_ADC_ConfigChannel(&hadc, &sConfig) != HAL_OK)
 80008d4:	f002 fa3c 	bl	8002d50 <HAL_ADC_ConfigChannel>
 80008d8:	2800      	cmp	r0, #0
 80008da:	d001      	beq.n	80008e0 <main+0x124>
 80008dc:	b672      	cpsid	i
  while (1)
 80008de:	e7fe      	b.n	80008de <main+0x122>
  if (HAL_ADC_ConfigChannel(&hadc, &sConfig) != HAL_OK)
 80008e0:	0020      	movs	r0, r4
 80008e2:	a90e      	add	r1, sp, #56	; 0x38
  sConfig.Channel = ADC_CHANNEL_4;
 80008e4:	970e      	str	r7, [sp, #56]	; 0x38
  if (HAL_ADC_ConfigChannel(&hadc, &sConfig) != HAL_OK)
 80008e6:	f002 fa33 	bl	8002d50 <HAL_ADC_ConfigChannel>
 80008ea:	2800      	cmp	r0, #0
 80008ec:	d001      	beq.n	80008f2 <main+0x136>
 80008ee:	b672      	cpsid	i
  while (1)
 80008f0:	e7fe      	b.n	80008f0 <main+0x134>
  sConfig.Channel = ADC_CHANNEL_5;
 80008f2:	2305      	movs	r3, #5
  if (HAL_ADC_ConfigChannel(&hadc, &sConfig) != HAL_OK)
 80008f4:	0020      	movs	r0, r4
 80008f6:	a90e      	add	r1, sp, #56	; 0x38
  sConfig.Channel = ADC_CHANNEL_5;
 80008f8:	930e      	str	r3, [sp, #56]	; 0x38
  if (HAL_ADC_ConfigChannel(&hadc, &sConfig) != HAL_OK)
 80008fa:	f002 fa29 	bl	8002d50 <HAL_ADC_ConfigChannel>
 80008fe:	2800      	cmp	r0, #0
 8000900:	d001      	beq.n	8000906 <main+0x14a>
 8000902:	b672      	cpsid	i
  while (1)
 8000904:	e7fe      	b.n	8000904 <main+0x148>
  sConfig.Channel = ADC_CHANNEL_9;
 8000906:	2309      	movs	r3, #9
  if (HAL_ADC_ConfigChannel(&hadc, &sConfig) != HAL_OK)
 8000908:	0020      	movs	r0, r4
 800090a:	a90e      	add	r1, sp, #56	; 0x38
  sConfig.Channel = ADC_CHANNEL_9;
 800090c:	930e      	str	r3, [sp, #56]	; 0x38
  if (HAL_ADC_ConfigChannel(&hadc, &sConfig) != HAL_OK)
 800090e:	f002 fa1f 	bl	8002d50 <HAL_ADC_ConfigChannel>
 8000912:	1e05      	subs	r5, r0, #0
 8000914:	d001      	beq.n	800091a <main+0x15e>
 8000916:	b672      	cpsid	i
  while (1)
 8000918:	e7fe      	b.n	8000918 <main+0x15c>
  TIM_MasterConfigTypeDef sMasterConfig = {0};
 800091a:	0001      	movs	r1, r0
 800091c:	2208      	movs	r2, #8
 800091e:	a805      	add	r0, sp, #20
 8000920:	f005 fa73 	bl	8005e0a <memset>
  TIM_OC_InitTypeDef sConfigOC = {0};
 8000924:	221c      	movs	r2, #28
 8000926:	0029      	movs	r1, r5
 8000928:	a807      	add	r0, sp, #28
 800092a:	f005 fa6e 	bl	8005e0a <memset>
  TIM_BreakDeadTimeConfigTypeDef sBreakDeadTimeConfig = {0};
 800092e:	2220      	movs	r2, #32
 8000930:	0029      	movs	r1, r5
 8000932:	a80e      	add	r0, sp, #56	; 0x38
 8000934:	f005 fa69 	bl	8005e0a <memset>
  htim1.Instance = TIM1;
 8000938:	4c7b      	ldr	r4, [pc, #492]	; (8000b28 <main+0x36c>)
 800093a:	4b7c      	ldr	r3, [pc, #496]	; (8000b2c <main+0x370>)
  if (HAL_TIM_PWM_Init(&htim1) != HAL_OK)
 800093c:	0020      	movs	r0, r4
  htim1.Instance = TIM1;
 800093e:	6023      	str	r3, [r4, #0]
  htim1.Init.CounterMode = TIM_COUNTERMODE_CENTERALIGNED1;
 8000940:	2320      	movs	r3, #32
 8000942:	60a3      	str	r3, [r4, #8]
  htim1.Init.Period = ((PWM_PERIOD_CYCLES) / 2);
 8000944:	4b7a      	ldr	r3, [pc, #488]	; (8000b30 <main+0x374>)
  htim1.Init.Prescaler = ((TIM_CLOCK_DIVIDER) - 1);
 8000946:	6065      	str	r5, [r4, #4]
  htim1.Init.Period = ((PWM_PERIOD_CYCLES) / 2);
 8000948:	60e3      	str	r3, [r4, #12]
  htim1.Init.ClockDivision = TIM_CLOCKDIVISION_DIV2;
 800094a:	2380      	movs	r3, #128	; 0x80
 800094c:	005b      	lsls	r3, r3, #1
 800094e:	6123      	str	r3, [r4, #16]
  htim1.Init.RepetitionCounter = (REP_COUNTER);
 8000950:	6166      	str	r6, [r4, #20]
  htim1.Init.AutoReloadPreload = TIM_AUTORELOAD_PRELOAD_DISABLE;
 8000952:	61a5      	str	r5, [r4, #24]
  if (HAL_TIM_PWM_Init(&htim1) != HAL_OK)
 8000954:	f003 f83c 	bl	80039d0 <HAL_TIM_PWM_Init>
 8000958:	2800      	cmp	r0, #0
 800095a:	d001      	beq.n	8000960 <main+0x1a4>
 800095c:	b672      	cpsid	i
  while (1)
 800095e:	e7fe      	b.n	800095e <main+0x1a2>
  sMasterConfig.MasterOutputTrigger = TIM_TRGO_OC4REF;
 8000960:	2370      	movs	r3, #112	; 0x70
  sMasterConfig.MasterSlaveMode = TIM_MASTERSLAVEMODE_DISABLE;
 8000962:	9006      	str	r0, [sp, #24]
  if (HAL_TIMEx_MasterConfigSynchronization(&htim1, &sMasterConfig) != HAL_OK)
 8000964:	a905      	add	r1, sp, #20
 8000966:	0020      	movs	r0, r4
  sMasterConfig.MasterOutputTrigger = TIM_TRGO_OC4REF;
 8000968:	9305      	str	r3, [sp, #20]
  if (HAL_TIMEx_MasterConfigSynchronization(&htim1, &sMasterConfig) != HAL_OK)
 800096a:	f003 fa9f 	bl	8003eac <HAL_TIMEx_MasterConfigSynchronization>
 800096e:	1e02      	subs	r2, r0, #0
 8000970:	d001      	beq.n	8000976 <main+0x1ba>
 8000972:	b672      	cpsid	i
  while (1)
 8000974:	e7fe      	b.n	8000974 <main+0x1b8>
  sConfigOC.OCMode = TIM_OCMODE_PWM1;
 8000976:	2360      	movs	r3, #96	; 0x60
  sConfigOC.Pulse = 0;
 8000978:	9008      	str	r0, [sp, #32]
  sConfigOC.OCPolarity = TIM_OCPOLARITY_HIGH;
 800097a:	9009      	str	r0, [sp, #36]	; 0x24
  sConfigOC.OCNPolarity = TIM_OCNPOLARITY_HIGH;
 800097c:	900a      	str	r0, [sp, #40]	; 0x28
  sConfigOC.OCFastMode = TIM_OCFAST_DISABLE;
 800097e:	900b      	str	r0, [sp, #44]	; 0x2c
  sConfigOC.OCIdleState = TIM_OCIDLESTATE_RESET;
 8000980:	900c      	str	r0, [sp, #48]	; 0x30
  sConfigOC.OCNIdleState = TIM_OCNIDLESTATE_RESET;
 8000982:	900d      	str	r0, [sp, #52]	; 0x34
  if (HAL_TIM_PWM_ConfigChannel(&htim1, &sConfigOC, TIM_CHANNEL_1) != HAL_OK)
 8000984:	a907      	add	r1, sp, #28
 8000986:	0020      	movs	r0, r4
  sConfigOC.OCMode = TIM_OCMODE_PWM1;
 8000988:	9307      	str	r3, [sp, #28]
  if (HAL_TIM_PWM_ConfigChannel(&htim1, &sConfigOC, TIM_CHANNEL_1) != HAL_OK)
 800098a:	f003 f885 	bl	8003a98 <HAL_TIM_PWM_ConfigChannel>
 800098e:	2800      	cmp	r0, #0
 8000990:	d001      	beq.n	8000996 <main+0x1da>
 8000992:	b672      	cpsid	i
  while (1)
 8000994:	e7fe      	b.n	8000994 <main+0x1d8>
  if (HAL_TIM_PWM_ConfigChannel(&htim1, &sConfigOC, TIM_CHANNEL_2) != HAL_OK)
 8000996:	003a      	movs	r2, r7
 8000998:	0020      	movs	r0, r4
 800099a:	a907      	add	r1, sp, #28
 800099c:	f003 f87c 	bl	8003a98 <HAL_TIM_PWM_ConfigChannel>
 80009a0:	2800      	cmp	r0, #0
 80009a2:	d001      	beq.n	80009a8 <main+0x1ec>
 80009a4:	b672      	cpsid	i
  while (1)
 80009a6:	e7fe      	b.n	80009a6 <main+0x1ea>
  if (HAL_TIM_PWM_ConfigChannel(&htim1, &sConfigOC, TIM_CHANNEL_3) != HAL_OK)
 80009a8:	2208      	movs	r2, #8
 80009aa:	0020      	movs	r0, r4
 80009ac:	a907      	add	r1, sp, #28
 80009ae:	f003 f873 	bl	8003a98 <HAL_TIM_PWM_ConfigChannel>
 80009b2:	2800      	cmp	r0, #0
 80009b4:	d001      	beq.n	80009ba <main+0x1fe>
 80009b6:	b672      	cpsid	i
  while (1)
 80009b8:	e7fe      	b.n	80009b8 <main+0x1fc>
  sConfigOC.OCMode = TIM_OCMODE_PWM2;
 80009ba:	2370      	movs	r3, #112	; 0x70
 80009bc:	9307      	str	r3, [sp, #28]
  sConfigOC.Pulse = (((PWM_PERIOD_CYCLES) / 2) - (HTMIN));
 80009be:	23e2      	movs	r3, #226	; 0xe2
  if (HAL_TIM_PWM_ConfigChannel(&htim1, &sConfigOC, TIM_CHANNEL_4) != HAL_OK)
 80009c0:	220c      	movs	r2, #12
  sConfigOC.Pulse = (((PWM_PERIOD_CYCLES) / 2) - (HTMIN));
 80009c2:	009b      	lsls	r3, r3, #2
  if (HAL_TIM_PWM_ConfigChannel(&htim1, &sConfigOC, TIM_CHANNEL_4) != HAL_OK)
 80009c4:	0020      	movs	r0, r4
 80009c6:	a907      	add	r1, sp, #28
  sConfigOC.Pulse = (((PWM_PERIOD_CYCLES) / 2) - (HTMIN));
 80009c8:	9308      	str	r3, [sp, #32]
  if (HAL_TIM_PWM_ConfigChannel(&htim1, &sConfigOC, TIM_CHANNEL_4) != HAL_OK)
 80009ca:	f003 f865 	bl	8003a98 <HAL_TIM_PWM_ConfigChannel>
 80009ce:	2800      	cmp	r0, #0
 80009d0:	d001      	beq.n	80009d6 <main+0x21a>
 80009d2:	b672      	cpsid	i
  while (1)
 80009d4:	e7fe      	b.n	80009d4 <main+0x218>
  sBreakDeadTimeConfig.OffStateIDLEMode = TIM_OSSI_ENABLE;
 80009d6:	2380      	movs	r3, #128	; 0x80
 80009d8:	00db      	lsls	r3, r3, #3
 80009da:	930f      	str	r3, [sp, #60]	; 0x3c
  sBreakDeadTimeConfig.LockLevel = TIM_LOCKLEVEL_1;
 80009dc:	2380      	movs	r3, #128	; 0x80
 80009de:	005b      	lsls	r3, r3, #1
 80009e0:	9310      	str	r3, [sp, #64]	; 0x40
  sBreakDeadTimeConfig.DeadTime = ((DEAD_TIME_COUNTS) / 2);
 80009e2:	3bed      	subs	r3, #237	; 0xed
 80009e4:	9311      	str	r3, [sp, #68]	; 0x44
  sBreakDeadTimeConfig.OffStateRunMode = TIM_OSSR_ENABLE;
 80009e6:	2680      	movs	r6, #128	; 0x80
  sBreakDeadTimeConfig.BreakState = TIM_BREAK_ENABLE;
 80009e8:	2780      	movs	r7, #128	; 0x80
  sBreakDeadTimeConfig.BreakPolarity = TIM_BREAKPOLARITY_HIGH;
 80009ea:	2380      	movs	r3, #128	; 0x80
  sBreakDeadTimeConfig.AutomaticOutput = TIM_AUTOMATICOUTPUT_DISABLE;
 80009ec:	9015      	str	r0, [sp, #84]	; 0x54
  sBreakDeadTimeConfig.BreakPolarity = TIM_BREAKPOLARITY_HIGH;
 80009ee:	019b      	lsls	r3, r3, #6
  if (HAL_TIMEx_ConfigBreakDeadTime(&htim1, &sBreakDeadTimeConfig) != HAL_OK)
 80009f0:	0020      	movs	r0, r4
  sBreakDeadTimeConfig.OffStateRunMode = TIM_OSSR_ENABLE;
 80009f2:	0136      	lsls	r6, r6, #4
  sBreakDeadTimeConfig.BreakState = TIM_BREAK_ENABLE;
 80009f4:	017f      	lsls	r7, r7, #5
  if (HAL_TIMEx_ConfigBreakDeadTime(&htim1, &sBreakDeadTimeConfig) != HAL_OK)
 80009f6:	a90e      	add	r1, sp, #56	; 0x38
  sBreakDeadTimeConfig.OffStateRunMode = TIM_OSSR_ENABLE;
 80009f8:	960e      	str	r6, [sp, #56]	; 0x38
  sBreakDeadTimeConfig.BreakState = TIM_BREAK_ENABLE;
 80009fa:	9712      	str	r7, [sp, #72]	; 0x48
  sBreakDeadTimeConfig.BreakPolarity = TIM_BREAKPOLARITY_HIGH;
 80009fc:	9313      	str	r3, [sp, #76]	; 0x4c
  if (HAL_TIMEx_ConfigBreakDeadTime(&htim1, &sBreakDeadTimeConfig) != HAL_OK)
 80009fe:	f003 fa81 	bl	8003f04 <HAL_TIMEx_ConfigBreakDeadTime>
 8000a02:	1e05      	subs	r5, r0, #0
 8000a04:	d001      	beq.n	8000a0a <main+0x24e>
 8000a06:	b672      	cpsid	i
  while (1)
 8000a08:	e7fe      	b.n	8000a08 <main+0x24c>
  HAL_TIM_MspPostInit(&htim1);
 8000a0a:	0020      	movs	r0, r4
 8000a0c:	f001 fb32 	bl	8002074 <HAL_TIM_MspPostInit>
  TIM_ClockConfigTypeDef sClockSourceConfig = {0};
 8000a10:	2210      	movs	r2, #16
 8000a12:	0029      	movs	r1, r5
 8000a14:	a807      	add	r0, sp, #28
 8000a16:	f005 f9f8 	bl	8005e0a <memset>
  TIM_HallSensor_InitTypeDef sConfig = {0};
 8000a1a:	2210      	movs	r2, #16
 8000a1c:	0029      	movs	r1, r5
 8000a1e:	a80e      	add	r0, sp, #56	; 0x38
 8000a20:	f005 f9f3 	bl	8005e0a <memset>
  TIM_MasterConfigTypeDef sMasterConfig = {0};
 8000a24:	2208      	movs	r2, #8
 8000a26:	0029      	movs	r1, r5
 8000a28:	a805      	add	r0, sp, #20
 8000a2a:	f005 f9ee 	bl	8005e0a <memset>
  htim2.Instance = TIM2;
 8000a2e:	2380      	movs	r3, #128	; 0x80
 8000a30:	4c40      	ldr	r4, [pc, #256]	; (8000b34 <main+0x378>)
 8000a32:	05db      	lsls	r3, r3, #23
 8000a34:	6023      	str	r3, [r4, #0]
  htim2.Init.Period = M1_HALL_TIM_PERIOD;
 8000a36:	4b40      	ldr	r3, [pc, #256]	; (8000b38 <main+0x37c>)
  if (HAL_TIM_Base_Init(&htim2) != HAL_OK)
 8000a38:	0020      	movs	r0, r4
  htim2.Init.Prescaler = 0;
 8000a3a:	6065      	str	r5, [r4, #4]
  htim2.Init.CounterMode = TIM_COUNTERMODE_UP;
 8000a3c:	60a5      	str	r5, [r4, #8]
  htim2.Init.Period = M1_HALL_TIM_PERIOD;
 8000a3e:	60e3      	str	r3, [r4, #12]
  htim2.Init.ClockDivision = TIM_CLOCKDIVISION_DIV1;
 8000a40:	6125      	str	r5, [r4, #16]
  htim2.Init.AutoReloadPreload = TIM_AUTORELOAD_PRELOAD_DISABLE;
 8000a42:	61a5      	str	r5, [r4, #24]
  if (HAL_TIM_Base_Init(&htim2) != HAL_OK)
 8000a44:	f002 ff9c 	bl	8003980 <HAL_TIM_Base_Init>
 8000a48:	2800      	cmp	r0, #0
 8000a4a:	d001      	beq.n	8000a50 <main+0x294>
 8000a4c:	b672      	cpsid	i
  while (1)
 8000a4e:	e7fe      	b.n	8000a4e <main+0x292>
  if (HAL_TIM_ConfigClockSource(&htim2, &sClockSourceConfig) != HAL_OK)
 8000a50:	0020      	movs	r0, r4
 8000a52:	a907      	add	r1, sp, #28
  sClockSourceConfig.ClockSource = TIM_CLOCKSOURCE_INTERNAL;
 8000a54:	9707      	str	r7, [sp, #28]
  if (HAL_TIM_ConfigClockSource(&htim2, &sClockSourceConfig) != HAL_OK)
 8000a56:	f003 f8b1 	bl	8003bbc <HAL_TIM_ConfigClockSource>
 8000a5a:	2800      	cmp	r0, #0
 8000a5c:	d001      	beq.n	8000a62 <main+0x2a6>
 8000a5e:	b672      	cpsid	i
  while (1)
 8000a60:	e7fe      	b.n	8000a60 <main+0x2a4>
  sConfig.IC1Filter = M1_HALL_IC_FILTER;
 8000a62:	2309      	movs	r3, #9
  sConfig.IC1Polarity = TIM_ICPOLARITY_RISING;
 8000a64:	900e      	str	r0, [sp, #56]	; 0x38
  sConfig.IC1Prescaler = TIM_ICPSC_DIV1;
 8000a66:	900f      	str	r0, [sp, #60]	; 0x3c
  sConfig.Commutation_Delay = 0;
 8000a68:	9011      	str	r0, [sp, #68]	; 0x44
  if (HAL_TIMEx_HallSensor_Init(&htim2, &sConfig) != HAL_OK)
 8000a6a:	a90e      	add	r1, sp, #56	; 0x38
 8000a6c:	0020      	movs	r0, r4
  sConfig.IC1Filter = M1_HALL_IC_FILTER;
 8000a6e:	9310      	str	r3, [sp, #64]	; 0x40
  if (HAL_TIMEx_HallSensor_Init(&htim2, &sConfig) != HAL_OK)
 8000a70:	f003 f9b9 	bl	8003de6 <HAL_TIMEx_HallSensor_Init>
 8000a74:	2800      	cmp	r0, #0
 8000a76:	d001      	beq.n	8000a7c <main+0x2c0>
 8000a78:	b672      	cpsid	i
  while (1)
 8000a7a:	e7fe      	b.n	8000a7a <main+0x2be>
  sMasterConfig.MasterOutputTrigger = TIM_TRGO_OC2REF;
 8000a7c:	2350      	movs	r3, #80	; 0x50
  sMasterConfig.MasterSlaveMode = TIM_MASTERSLAVEMODE_DISABLE;
 8000a7e:	9006      	str	r0, [sp, #24]
  if (HAL_TIMEx_MasterConfigSynchronization(&htim2, &sMasterConfig) != HAL_OK)
 8000a80:	a905      	add	r1, sp, #20
 8000a82:	0020      	movs	r0, r4
  sMasterConfig.MasterOutputTrigger = TIM_TRGO_OC2REF;
 8000a84:	9305      	str	r3, [sp, #20]
  if (HAL_TIMEx_MasterConfigSynchronization(&htim2, &sMasterConfig) != HAL_OK)
 8000a86:	f003 fa11 	bl	8003eac <HAL_TIMEx_MasterConfigSynchronization>
 8000a8a:	1e05      	subs	r5, r0, #0
 8000a8c:	d001      	beq.n	8000a92 <main+0x2d6>
 8000a8e:	b672      	cpsid	i
  while (1)
 8000a90:	e7fe      	b.n	8000a90 <main+0x2d4>
  TIM_OC_InitTypeDef sConfigOC = {0};
 8000a92:	0001      	movs	r1, r0
 8000a94:	221c      	movs	r2, #28
 8000a96:	a80e      	add	r0, sp, #56	; 0x38
 8000a98:	f005 f9b7 	bl	8005e0a <memset>
  htim14.Instance = TIM14;
 8000a9c:	4c27      	ldr	r4, [pc, #156]	; (8000b3c <main+0x380>)
 8000a9e:	4b28      	ldr	r3, [pc, #160]	; (8000b40 <main+0x384>)
  if (HAL_TIM_Base_Init(&htim14) != HAL_OK)
 8000aa0:	0020      	movs	r0, r4
  htim14.Instance = TIM14;
 8000aa2:	6023      	str	r3, [r4, #0]
  htim14.Init.Prescaler = 0;
 8000aa4:	6065      	str	r5, [r4, #4]
  htim14.Init.CounterMode = TIM_COUNTERMODE_UP;
 8000aa6:	60a5      	str	r5, [r4, #8]
  htim14.Init.Period = 0x800;
 8000aa8:	60e6      	str	r6, [r4, #12]
  htim14.Init.ClockDivision = TIM_CLOCKDIVISION_DIV1;
 8000aaa:	6125      	str	r5, [r4, #16]
  htim14.Init.AutoReloadPreload = TIM_AUTORELOAD_PRELOAD_DISABLE;
 8000aac:	61a5      	str	r5, [r4, #24]
  if (HAL_TIM_Base_Init(&htim14) != HAL_OK)
 8000aae:	f002 ff67 	bl	8003980 <HAL_TIM_Base_Init>
 8000ab2:	2800      	cmp	r0, #0
 8000ab4:	d001      	beq.n	8000aba <main+0x2fe>
 8000ab6:	b672      	cpsid	i
  while (1)
 8000ab8:	e7fe      	b.n	8000ab8 <main+0x2fc>
  if (HAL_TIM_PWM_Init(&htim14) != HAL_OK)
 8000aba:	0020      	movs	r0, r4
 8000abc:	f002 ff88 	bl	80039d0 <HAL_TIM_PWM_Init>
 8000ac0:	1e02      	subs	r2, r0, #0
 8000ac2:	d001      	beq.n	8000ac8 <main+0x30c>
 8000ac4:	b672      	cpsid	i
  while (1)
 8000ac6:	e7fe      	b.n	8000ac6 <main+0x30a>
  sConfigOC.OCMode = TIM_OCMODE_PWM1;
 8000ac8:	2360      	movs	r3, #96	; 0x60
 8000aca:	930e      	str	r3, [sp, #56]	; 0x38
  sConfigOC.Pulse = 0x400;
 8000acc:	2380      	movs	r3, #128	; 0x80
  sConfigOC.OCPolarity = TIM_OCPOLARITY_HIGH;
 8000ace:	9010      	str	r0, [sp, #64]	; 0x40
  sConfigOC.Pulse = 0x400;
 8000ad0:	00db      	lsls	r3, r3, #3
  sConfigOC.OCFastMode = TIM_OCFAST_DISABLE;
 8000ad2:	9012      	str	r0, [sp, #72]	; 0x48
  if (HAL_TIM_PWM_ConfigChannel(&htim14, &sConfigOC, TIM_CHANNEL_1) != HAL_OK)
 8000ad4:	a90e      	add	r1, sp, #56	; 0x38
 8000ad6:	0020      	movs	r0, r4
  sConfigOC.Pulse = 0x400;
 8000ad8:	930f      	str	r3, [sp, #60]	; 0x3c
  if (HAL_TIM_PWM_ConfigChannel(&htim14, &sConfigOC, TIM_CHANNEL_1) != HAL_OK)
 8000ada:	f002 ffdd 	bl	8003a98 <HAL_TIM_PWM_ConfigChannel>
 8000ade:	1e05      	subs	r5, r0, #0
 8000ae0:	d001      	beq.n	8000ae6 <main+0x32a>
 8000ae2:	b672      	cpsid	i
  while (1)
 8000ae4:	e7fe      	b.n	8000ae4 <main+0x328>
  HAL_TIM_MspPostInit(&htim14);
 8000ae6:	0020      	movs	r0, r4
 8000ae8:	f001 fac4 	bl	8002074 <HAL_TIM_MspPostInit>
  huart1.Instance = USART1;
 8000aec:	4c15      	ldr	r4, [pc, #84]	; (8000b44 <main+0x388>)
 8000aee:	4b16      	ldr	r3, [pc, #88]	; (8000b48 <main+0x38c>)
  if (HAL_UART_Init(&huart1) != HAL_OK)
 8000af0:	0020      	movs	r0, r4
  huart1.Instance = USART1;
 8000af2:	6023      	str	r3, [r4, #0]
  huart1.Init.BaudRate = 9600;
 8000af4:	2396      	movs	r3, #150	; 0x96
 8000af6:	019b      	lsls	r3, r3, #6
 8000af8:	6063      	str	r3, [r4, #4]
  huart1.Init.Mode = UART_MODE_TX_RX;
 8000afa:	230c      	movs	r3, #12
  huart1.Init.WordLength = UART_WORDLENGTH_8B;
 8000afc:	60a5      	str	r5, [r4, #8]
  huart1.Init.StopBits = UART_STOPBITS_1;
 8000afe:	60e5      	str	r5, [r4, #12]
  huart1.Init.Parity = UART_PARITY_NONE;
 8000b00:	6125      	str	r5, [r4, #16]
  huart1.Init.Mode = UART_MODE_TX_RX;
 8000b02:	6163      	str	r3, [r4, #20]
  huart1.Init.HwFlowCtl = UART_HWCONTROL_NONE;
 8000b04:	61a5      	str	r5, [r4, #24]
  huart1.Init.OverSampling = UART_OVERSAMPLING_16;
 8000b06:	61e5      	str	r5, [r4, #28]
  huart1.Init.OneBitSampling = UART_ONE_BIT_SAMPLE_DISABLE;
 8000b08:	6225      	str	r5, [r4, #32]
  huart1.AdvancedInit.AdvFeatureInit = UART_ADVFEATURE_NO_INIT;
 8000b0a:	6265      	str	r5, [r4, #36]	; 0x24
  if (HAL_UART_Init(&huart1) != HAL_OK)
 8000b0c:	f003 fc26 	bl	800435c <HAL_UART_Init>
 8000b10:	2800      	cmp	r0, #0
 8000b12:	d01b      	beq.n	8000b4c <main+0x390>
 8000b14:	b672      	cpsid	i
  while (1)
 8000b16:	e7fe      	b.n	8000b16 <main+0x35a>
 8000b18:	40021000 	.word	0x40021000
 8000b1c:	48001400 	.word	0x48001400
 8000b20:	200006c8 	.word	0x200006c8
 8000b24:	40012400 	.word	0x40012400
 8000b28:	2000074c 	.word	0x2000074c
 8000b2c:	40012c00 	.word	0x40012c00
 8000b30:	00000389 	.word	0x00000389
 8000b34:	200007dc 	.word	0x200007dc
 8000b38:	0000ffff 	.word	0x0000ffff
 8000b3c:	20000794 	.word	0x20000794
 8000b40:	40002000 	.word	0x40002000
 8000b44:	20000824 	.word	0x20000824
 8000b48:	40013800 	.word	0x40013800
  MX_MotorControl_Init();
 8000b4c:	f001 f81e 	bl	8001b8c <MX_MotorControl_Init>
  HAL_NVIC_SetPriority(TIM1_BRK_UP_TRG_COM_IRQn, 0, 0);
 8000b50:	2200      	movs	r2, #0
 8000b52:	200d      	movs	r0, #13
 8000b54:	0011      	movs	r1, r2
 8000b56:	f002 f981 	bl	8002e5c <HAL_NVIC_SetPriority>
  HAL_NVIC_EnableIRQ(TIM1_BRK_UP_TRG_COM_IRQn);
 8000b5a:	200d      	movs	r0, #13
 8000b5c:	f002 f9a8 	bl	8002eb0 <HAL_NVIC_EnableIRQ>
  HAL_NVIC_SetPriority(DMA1_Channel1_IRQn, 1, 0);
 8000b60:	2200      	movs	r2, #0
 8000b62:	2101      	movs	r1, #1
 8000b64:	2009      	movs	r0, #9
 8000b66:	f002 f979 	bl	8002e5c <HAL_NVIC_SetPriority>
  HAL_NVIC_EnableIRQ(DMA1_Channel1_IRQn);
 8000b6a:	2009      	movs	r0, #9
 8000b6c:	f002 f9a0 	bl	8002eb0 <HAL_NVIC_EnableIRQ>
  HAL_NVIC_SetPriority(TIM2_IRQn, 3, 0);
 8000b70:	2200      	movs	r2, #0
 8000b72:	2103      	movs	r1, #3
 8000b74:	200f      	movs	r0, #15
 8000b76:	f002 f971 	bl	8002e5c <HAL_NVIC_SetPriority>
  HAL_NVIC_EnableIRQ(TIM2_IRQn);
 8000b7a:	200f      	movs	r0, #15
 8000b7c:	f002 f998 	bl	8002eb0 <HAL_NVIC_EnableIRQ>
  HAL_NVIC_SetPriority(USART1_IRQn, 3, 0);
 8000b80:	2200      	movs	r2, #0
 8000b82:	2103      	movs	r1, #3
 8000b84:	201b      	movs	r0, #27
 8000b86:	f002 f969 	bl	8002e5c <HAL_NVIC_SetPriority>
  HAL_NVIC_EnableIRQ(USART1_IRQn);
 8000b8a:	201b      	movs	r0, #27
 8000b8c:	f002 f990 	bl	8002eb0 <HAL_NVIC_EnableIRQ>
  HAL_NVIC_SetPriority(EXTI0_1_IRQn, 3, 0);
 8000b90:	2200      	movs	r2, #0
 8000b92:	2103      	movs	r1, #3
 8000b94:	2005      	movs	r0, #5
 8000b96:	f002 f961 	bl	8002e5c <HAL_NVIC_SetPriority>
  HAL_NVIC_EnableIRQ(EXTI0_1_IRQn);
 8000b9a:	2005      	movs	r0, #5
 8000b9c:	f002 f988 	bl	8002eb0 <HAL_NVIC_EnableIRQ>
    __HAL_TIM_SET_COMPARE(&htim1,TIM_CHANNEL_1,0);
 8000ba0:	2100      	movs	r1, #0
 8000ba2:	4d25      	ldr	r5, [pc, #148]	; (8000c38 <main+0x47c>)
	 HAL_UART_Transmit(&huart1, (uint8_t*)buffer, sprintf(buffer, "\t Home STATE COunter: %u\r\n", HALL_M1.HallCounterHomePosition), 100);
 8000ba4:	2764      	movs	r7, #100	; 0x64
    __HAL_TIM_SET_COMPARE(&htim1,TIM_CHANNEL_1,0);
 8000ba6:	682b      	ldr	r3, [r5, #0]
    HAL_TIM_PWM_Start(&htim1,TIM_CHANNEL_1);
 8000ba8:	0028      	movs	r0, r5
    __HAL_TIM_SET_COMPARE(&htim1,TIM_CHANNEL_1,0);
 8000baa:	6359      	str	r1, [r3, #52]	; 0x34
    __HAL_TIM_SET_COMPARE(&htim1,TIM_CHANNEL_2,0);
 8000bac:	6399      	str	r1, [r3, #56]	; 0x38
    __HAL_TIM_SET_COMPARE(&htim1,TIM_CHANNEL_3,0);
 8000bae:	63d9      	str	r1, [r3, #60]	; 0x3c
    HAL_TIM_PWM_Start(&htim1,TIM_CHANNEL_1);
 8000bb0:	f003 f914 	bl	8003ddc <HAL_TIM_PWM_Start>
    HAL_TIM_PWM_Start(&htim1,TIM_CHANNEL_2);
 8000bb4:	2104      	movs	r1, #4
 8000bb6:	0028      	movs	r0, r5
 8000bb8:	f003 f910 	bl	8003ddc <HAL_TIM_PWM_Start>
    HAL_TIM_PWM_Start(&htim1,TIM_CHANNEL_3);
 8000bbc:	2108      	movs	r1, #8
 8000bbe:	0028      	movs	r0, r5
 8000bc0:	f003 f90c 	bl	8003ddc <HAL_TIM_PWM_Start>
	 HAL_UART_Transmit(&huart1, (uint8_t*)buffer, sprintf(buffer, "\t Home STATE COunter: %u\r\n", HALL_M1.HallCounterHomePosition), 100);
 8000bc4:	4e1d      	ldr	r6, [pc, #116]	; (8000c3c <main+0x480>)
 8000bc6:	4d1e      	ldr	r5, [pc, #120]	; (8000c40 <main+0x484>)
 8000bc8:	0033      	movs	r3, r6
 8000bca:	33a8      	adds	r3, #168	; 0xa8
 8000bcc:	781a      	ldrb	r2, [r3, #0]
 8000bce:	0028      	movs	r0, r5
 8000bd0:	491c      	ldr	r1, [pc, #112]	; (8000c44 <main+0x488>)
 8000bd2:	f005 f923 	bl	8005e1c <siprintf>
 8000bd6:	003b      	movs	r3, r7
 8000bd8:	0029      	movs	r1, r5
 8000bda:	b282      	uxth	r2, r0
 8000bdc:	0020      	movs	r0, r4
 8000bde:	f003 fb19 	bl	8004214 <HAL_UART_Transmit>
     HAL_UART_Transmit(&huart1, (uint8_t*)buffer, sprintf(buffer, "\t HOME POSITION: %u\r\n", HALL_M1.HallStateHomePosition), 100);
 8000be2:	0033      	movs	r3, r6
 8000be4:	33a9      	adds	r3, #169	; 0xa9
 8000be6:	781a      	ldrb	r2, [r3, #0]
 8000be8:	0028      	movs	r0, r5
 8000bea:	4917      	ldr	r1, [pc, #92]	; (8000c48 <main+0x48c>)
 8000bec:	f005 f916 	bl	8005e1c <siprintf>
 8000bf0:	003b      	movs	r3, r7
 8000bf2:	0029      	movs	r1, r5
 8000bf4:	b282      	uxth	r2, r0
 8000bf6:	0020      	movs	r0, r4
 8000bf8:	f003 fb0c 	bl	8004214 <HAL_UART_Transmit>
     HAL_UART_Transmit(&huart1, (uint8_t*)buffer, sprintf(buffer, "\t STATE COunter: %u\r\n", HALL_M1.HallStateCounter), 100);
 8000bfc:	0033      	movs	r3, r6
 8000bfe:	33a7      	adds	r3, #167	; 0xa7
 8000c00:	781a      	ldrb	r2, [r3, #0]
 8000c02:	0028      	movs	r0, r5
 8000c04:	4911      	ldr	r1, [pc, #68]	; (8000c4c <main+0x490>)
 8000c06:	f005 f909 	bl	8005e1c <siprintf>
          HAL_UART_Transmit(&huart1, (uint8_t*)buffer, sprintf(buffer, "\t state: %u\r\n", HALL_M1.HallState), 100);
 8000c0a:	36a6      	adds	r6, #166	; 0xa6
     HAL_UART_Transmit(&huart1, (uint8_t*)buffer, sprintf(buffer, "\t STATE COunter: %u\r\n", HALL_M1.HallStateCounter), 100);
 8000c0c:	003b      	movs	r3, r7
 8000c0e:	0029      	movs	r1, r5
 8000c10:	b282      	uxth	r2, r0
 8000c12:	0020      	movs	r0, r4
 8000c14:	f003 fafe 	bl	8004214 <HAL_UART_Transmit>
          HAL_UART_Transmit(&huart1, (uint8_t*)buffer, sprintf(buffer, "\t state: %u\r\n", HALL_M1.HallState), 100);
 8000c18:	7832      	ldrb	r2, [r6, #0]
 8000c1a:	0028      	movs	r0, r5
 8000c1c:	490c      	ldr	r1, [pc, #48]	; (8000c50 <main+0x494>)
 8000c1e:	f005 f8fd 	bl	8005e1c <siprintf>
 8000c22:	003b      	movs	r3, r7
 8000c24:	b282      	uxth	r2, r0
 8000c26:	0029      	movs	r1, r5
 8000c28:	0020      	movs	r0, r4
 8000c2a:	f003 faf3 	bl	8004214 <HAL_UART_Transmit>
	 HAL_Delay(1000);
 8000c2e:	20fa      	movs	r0, #250	; 0xfa
 8000c30:	0080      	lsls	r0, r0, #2
 8000c32:	f001 ffd3 	bl	8002bdc <HAL_Delay>
    while (1)
 8000c36:	e7c5      	b.n	8000bc4 <main+0x408>
 8000c38:	2000074c 	.word	0x2000074c
 8000c3c:	200000f8 	.word	0x200000f8
 8000c40:	200006b0 	.word	0x200006b0
 8000c44:	08006727 	.word	0x08006727
 8000c48:	08006742 	.word	0x08006742
 8000c4c:	08006758 	.word	0x08006758
 8000c50:	0800676e 	.word	0x0800676e

08000c54 <Error_Handler>:
 8000c54:	b672      	cpsid	i
  while (1)
 8000c56:	e7fe      	b.n	8000c56 <Error_Handler+0x2>

08000c58 <MC_StartMotor1>:
  * check if it has reached the #RUN state. See MC_GetSTMStateMotor1() for more details.
  *
  * @retval returns true if the command is successfully executed, false otherwise.
  */
__weak bool MC_StartMotor1(void)
{
 8000c58:	b510      	push	{r4, lr}
	return MCI_StartMotor( pMCI[M1] );
 8000c5a:	4b02      	ldr	r3, [pc, #8]	; (8000c64 <MC_StartMotor1+0xc>)
 8000c5c:	6818      	ldr	r0, [r3, #0]
 8000c5e:	f000 f836 	bl	8000cce <MCI_StartMotor>
}
 8000c62:	bd10      	pop	{r4, pc}
 8000c64:	200009a0 	.word	0x200009a0

08000c68 <MC_StopMotor1>:
  * #IDLE state has been reached back.
  *
  * @retval returns true if the command is successfully executed, false otherwise.
  */
__weak bool MC_StopMotor1(void)
{
 8000c68:	b510      	push	{r4, lr}
	return MCI_StopMotor( pMCI[M1] );
 8000c6a:	4b02      	ldr	r3, [pc, #8]	; (8000c74 <MC_StopMotor1+0xc>)
 8000c6c:	6818      	ldr	r0, [r3, #0]
 8000c6e:	f000 f839 	bl	8000ce4 <MCI_StopMotor>
}
 8000c72:	bd10      	pop	{r4, pc}
 8000c74:	200009a0 	.word	0x200009a0

08000c78 <MC_GetSTMStateMotor1>:

/**
 * @brief returns the current state of Motor 1 state machine
 */
__weak State_t  MC_GetSTMStateMotor1(void)
{
 8000c78:	b510      	push	{r4, lr}
	return MCI_GetSTMState( pMCI[M1] );
 8000c7a:	4b02      	ldr	r3, [pc, #8]	; (8000c84 <MC_GetSTMStateMotor1+0xc>)
 8000c7c:	6818      	ldr	r0, [r3, #0]
 8000c7e:	f000 f878 	bl	8000d72 <MCI_GetSTMState>
}
 8000c82:	bd10      	pop	{r4, pc}
 8000c84:	200009a0 	.word	0x200009a0

08000c88 <MCI_Init>:
  */
__weak void MCI_Init( MCI_Handle_t * pHandle, STM_Handle_t * pSTM, SpeednTorqCtrl_Handle_t * pSTC, pFOCVars_t pFOCVars )
{
  pHandle->pSTM = pSTM;
  pHandle->pSTC = pSTC;
  pHandle->pFOCVars = pFOCVars;
 8000c88:	6083      	str	r3, [r0, #8]

  /* Buffer related initialization */
  pHandle->lastCommand = MCI_NOCOMMANDSYET;
 8000c8a:	2300      	movs	r3, #0
  pHandle->pSTM = pSTM;
 8000c8c:	6001      	str	r1, [r0, #0]
  pHandle->pSTC = pSTC;
 8000c8e:	6042      	str	r2, [r0, #4]
  pHandle->lastCommand = MCI_NOCOMMANDSYET;
 8000c90:	7303      	strb	r3, [r0, #12]
  pHandle->hFinalSpeed = 0;
 8000c92:	81c3      	strh	r3, [r0, #14]
  pHandle->hFinalTorque = 0;
 8000c94:	8203      	strh	r3, [r0, #16]
  pHandle->hDurationms = 0;
 8000c96:	82c3      	strh	r3, [r0, #22]
  pHandle->CommandState = MCI_BUFFER_EMPTY;
 8000c98:	7603      	strb	r3, [r0, #24]
}
 8000c9a:	4770      	bx	lr

08000c9c <MCI_ExecSpeedRamp>:
  *         value.
  * @retval none.
  */
__weak void MCI_ExecSpeedRamp( MCI_Handle_t * pHandle,  int16_t hFinalSpeed, uint16_t hDurationms )
{
  pHandle->lastCommand = MCI_EXECSPEEDRAMP;
 8000c9c:	2301      	movs	r3, #1
 8000c9e:	7303      	strb	r3, [r0, #12]
  pHandle->hFinalSpeed = hFinalSpeed;
  pHandle->hDurationms = hDurationms;
  pHandle->CommandState = MCI_COMMAND_NOT_ALREADY_EXECUTED;
 8000ca0:	2302      	movs	r3, #2
 8000ca2:	33ff      	adds	r3, #255	; 0xff
  pHandle->hFinalSpeed = hFinalSpeed;
 8000ca4:	81c1      	strh	r1, [r0, #14]
  pHandle->hDurationms = hDurationms;
 8000ca6:	82c2      	strh	r2, [r0, #22]
  pHandle->CommandState = MCI_COMMAND_NOT_ALREADY_EXECUTED;
 8000ca8:	8303      	strh	r3, [r0, #24]
  pHandle->LastModalitySetByUser = STC_SPEED_MODE;
}
 8000caa:	4770      	bx	lr

08000cac <MCI_ExecTorqueRamp>:
  *         value.
  * @retval none.
  */
__weak void MCI_ExecTorqueRamp( MCI_Handle_t * pHandle,  int16_t hFinalTorque, uint16_t hDurationms )
{
  pHandle->lastCommand = MCI_EXECTORQUERAMP;
 8000cac:	2302      	movs	r3, #2
 8000cae:	7303      	strb	r3, [r0, #12]
  pHandle->hFinalTorque = hFinalTorque;
  pHandle->hDurationms = hDurationms;
  pHandle->CommandState = MCI_COMMAND_NOT_ALREADY_EXECUTED;
 8000cb0:	3b01      	subs	r3, #1
  pHandle->hFinalTorque = hFinalTorque;
 8000cb2:	8201      	strh	r1, [r0, #16]
  pHandle->hDurationms = hDurationms;
 8000cb4:	82c2      	strh	r2, [r0, #22]
  pHandle->CommandState = MCI_COMMAND_NOT_ALREADY_EXECUTED;
 8000cb6:	8303      	strh	r3, [r0, #24]
  pHandle->LastModalitySetByUser = STC_TORQUE_MODE;
}
 8000cb8:	4770      	bx	lr

08000cba <MCI_SetCurrentReferences>:
  *         format.
  * @retval none.
  */
__weak void MCI_SetCurrentReferences( MCI_Handle_t * pHandle, qd_t Iqdref )
{
  pHandle->lastCommand = MCI_SETCURRENTREFERENCES;
 8000cba:	2203      	movs	r2, #3
  pHandle->Iqdref.q = Iqdref.q;
  pHandle->Iqdref.d = Iqdref.d;
  pHandle->CommandState = MCI_COMMAND_NOT_ALREADY_EXECUTED;
 8000cbc:	2301      	movs	r3, #1
{
 8000cbe:	b082      	sub	sp, #8
  pHandle->Iqdref.q = Iqdref.q;
 8000cc0:	8241      	strh	r1, [r0, #18]
  pHandle->Iqdref.d = Iqdref.d;
 8000cc2:	0c09      	lsrs	r1, r1, #16
  pHandle->lastCommand = MCI_SETCURRENTREFERENCES;
 8000cc4:	7302      	strb	r2, [r0, #12]
  pHandle->Iqdref.d = Iqdref.d;
 8000cc6:	8281      	strh	r1, [r0, #20]
  pHandle->CommandState = MCI_COMMAND_NOT_ALREADY_EXECUTED;
 8000cc8:	8303      	strh	r3, [r0, #24]
  pHandle->LastModalitySetByUser = STC_TORQUE_MODE;
}
 8000cca:	b002      	add	sp, #8
 8000ccc:	4770      	bx	lr

08000cce <MCI_StartMotor>:
  * @param  pHandle Pointer on the component instance to work on.
  * @retval bool It returns true if the command is successfully executed
  *         otherwise it return false.
  */
__weak bool MCI_StartMotor( MCI_Handle_t * pHandle )
{
 8000cce:	b510      	push	{r4, lr}
  bool RetVal = STM_NextState( pHandle->pSTM, IDLE_START );
 8000cd0:	2103      	movs	r1, #3
{
 8000cd2:	0004      	movs	r4, r0
  bool RetVal = STM_NextState( pHandle->pSTM, IDLE_START );
 8000cd4:	6800      	ldr	r0, [r0, #0]
 8000cd6:	f004 feaf 	bl	8005a38 <STM_NextState>

  if ( RetVal == true )
 8000cda:	2800      	cmp	r0, #0
 8000cdc:	d001      	beq.n	8000ce2 <MCI_StartMotor+0x14>
  {
    pHandle->CommandState = MCI_COMMAND_NOT_ALREADY_EXECUTED;
 8000cde:	2301      	movs	r3, #1
 8000ce0:	7623      	strb	r3, [r4, #24]
  }

  return RetVal;
}
 8000ce2:	bd10      	pop	{r4, pc}

08000ce4 <MCI_StopMotor>:
  * @param  pHandle Pointer on the component instance to work on.
  * @retval bool It returns true if the command is successfully executed
  *         otherwise it return false.
  */
__weak bool MCI_StopMotor( MCI_Handle_t * pHandle )
{
 8000ce4:	b510      	push	{r4, lr}
  return STM_NextState( pHandle->pSTM, ANY_STOP );
 8000ce6:	2107      	movs	r1, #7
 8000ce8:	6800      	ldr	r0, [r0, #0]
 8000cea:	f004 fea5 	bl	8005a38 <STM_NextState>
}
 8000cee:	bd10      	pop	{r4, pc}

08000cf0 <MCI_FaultAcknowledged>:
  * @param  pHandle Pointer on the component instance to work on.
  * @retval bool It returns true if the command is successfully executed
  *         otherwise it return false.
  */
__weak bool MCI_FaultAcknowledged( MCI_Handle_t * pHandle )
{
 8000cf0:	b510      	push	{r4, lr}
  return STM_FaultAcknowledged( pHandle->pSTM );
 8000cf2:	6800      	ldr	r0, [r0, #0]
 8000cf4:	f004 ff1a 	bl	8005b2c <STM_FaultAcknowledged>
}
 8000cf8:	bd10      	pop	{r4, pc}

08000cfa <MCI_EncoderAlign>:
  * @param  pHandle Pointer on the component instance to work on.
  * @retval bool It returns true if the command is successfully executed
  *         otherwise it return false.
  */
__weak bool MCI_EncoderAlign( MCI_Handle_t * pHandle )
{
 8000cfa:	b510      	push	{r4, lr}
  return STM_NextState( pHandle->pSTM, IDLE_ALIGNMENT );
 8000cfc:	2101      	movs	r1, #1
 8000cfe:	6800      	ldr	r0, [r0, #0]
 8000d00:	f004 fe9a 	bl	8005a38 <STM_NextState>
}
 8000d04:	bd10      	pop	{r4, pc}

08000d06 <MCI_ExecBufferedCommands>:
  *         occurs.
  * @param  pHandle Pointer on the component instance to work on.
  * @retval none.
  */
__weak void MCI_ExecBufferedCommands( MCI_Handle_t * pHandle )
{
 8000d06:	b510      	push	{r4, lr}
 8000d08:	1e04      	subs	r4, r0, #0
  if ( pHandle != MC_NULL )
 8000d0a:	d01a      	beq.n	8000d42 <MCI_ExecBufferedCommands+0x3c>
  {
    if ( pHandle->CommandState == MCI_COMMAND_NOT_ALREADY_EXECUTED )
 8000d0c:	7e03      	ldrb	r3, [r0, #24]
 8000d0e:	2b01      	cmp	r3, #1
 8000d10:	d117      	bne.n	8000d42 <MCI_ExecBufferedCommands+0x3c>
    {
      bool commandHasBeenExecuted = false;
      switch ( pHandle->lastCommand )
 8000d12:	7b01      	ldrb	r1, [r0, #12]
 8000d14:	2902      	cmp	r1, #2
 8000d16:	d015      	beq.n	8000d44 <MCI_ExecBufferedCommands+0x3e>
 8000d18:	2903      	cmp	r1, #3
 8000d1a:	d01e      	beq.n	8000d5a <MCI_ExecBufferedCommands+0x54>
 8000d1c:	2901      	cmp	r1, #1
 8000d1e:	d126      	bne.n	8000d6e <MCI_ExecBufferedCommands+0x68>
      {
        case MCI_EXECSPEEDRAMP:
        {
          pHandle->pFOCVars->bDriveInput = INTERNAL;
 8000d20:	2200      	movs	r2, #0
 8000d22:	6883      	ldr	r3, [r0, #8]
 8000d24:	3305      	adds	r3, #5
 8000d26:	77da      	strb	r2, [r3, #31]
          STC_SetControlMode( pHandle->pSTC, STC_SPEED_MODE );
 8000d28:	6840      	ldr	r0, [r0, #4]
 8000d2a:	f004 fddc 	bl	80058e6 <STC_SetControlMode>
          commandHasBeenExecuted = STC_ExecRamp( pHandle->pSTC, pHandle->hFinalSpeed, pHandle->hDurationms );
 8000d2e:	8ae2      	ldrh	r2, [r4, #22]
 8000d30:	230e      	movs	r3, #14
 8000d32:	5ee1      	ldrsh	r1, [r4, r3]
        break;
        case MCI_EXECTORQUERAMP:
        {
          pHandle->pFOCVars->bDriveInput = INTERNAL;
          STC_SetControlMode( pHandle->pSTC, STC_TORQUE_MODE );
          commandHasBeenExecuted = STC_ExecRamp( pHandle->pSTC, pHandle->hFinalTorque, pHandle->hDurationms );
 8000d34:	6860      	ldr	r0, [r4, #4]
 8000d36:	f004 fdda 	bl	80058ee <STC_ExecRamp>
        break;
        default:
          break;
      }

      if ( commandHasBeenExecuted )
 8000d3a:	2800      	cmp	r0, #0
 8000d3c:	d017      	beq.n	8000d6e <MCI_ExecBufferedCommands+0x68>
      {
        pHandle->CommandState = MCI_COMMAND_EXECUTED_SUCCESFULLY;
 8000d3e:	2302      	movs	r3, #2
      }
      else
      {
        pHandle->CommandState = MCI_COMMAND_EXECUTED_UNSUCCESFULLY;
 8000d40:	7623      	strb	r3, [r4, #24]
      }
    }
  }
}
 8000d42:	bd10      	pop	{r4, pc}
          pHandle->pFOCVars->bDriveInput = INTERNAL;
 8000d44:	2100      	movs	r1, #0
 8000d46:	6883      	ldr	r3, [r0, #8]
 8000d48:	3305      	adds	r3, #5
 8000d4a:	77d9      	strb	r1, [r3, #31]
          STC_SetControlMode( pHandle->pSTC, STC_TORQUE_MODE );
 8000d4c:	6840      	ldr	r0, [r0, #4]
 8000d4e:	f004 fdca 	bl	80058e6 <STC_SetControlMode>
          commandHasBeenExecuted = STC_ExecRamp( pHandle->pSTC, pHandle->hFinalTorque, pHandle->hDurationms );
 8000d52:	8ae2      	ldrh	r2, [r4, #22]
 8000d54:	2310      	movs	r3, #16
 8000d56:	5ee1      	ldrsh	r1, [r4, r3]
 8000d58:	e7ec      	b.n	8000d34 <MCI_ExecBufferedCommands+0x2e>
          pHandle->pFOCVars->Iqdref = pHandle->Iqdref;
 8000d5a:	0021      	movs	r1, r4
          pHandle->pFOCVars->bDriveInput = EXTERNAL;
 8000d5c:	6880      	ldr	r0, [r0, #8]
          pHandle->pFOCVars->Iqdref = pHandle->Iqdref;
 8000d5e:	3112      	adds	r1, #18
          pHandle->pFOCVars->bDriveInput = EXTERNAL;
 8000d60:	1d42      	adds	r2, r0, #5
 8000d62:	77d3      	strb	r3, [r2, #31]
          pHandle->pFOCVars->Iqdref = pHandle->Iqdref;
 8000d64:	3010      	adds	r0, #16
 8000d66:	2204      	movs	r2, #4
 8000d68:	f005 f846 	bl	8005df8 <memcpy>
      if ( commandHasBeenExecuted )
 8000d6c:	e7e7      	b.n	8000d3e <MCI_ExecBufferedCommands+0x38>
        pHandle->CommandState = MCI_COMMAND_EXECUTED_UNSUCCESFULLY;
 8000d6e:	2303      	movs	r3, #3
 8000d70:	e7e6      	b.n	8000d40 <MCI_ExecBufferedCommands+0x3a>

08000d72 <MCI_GetSTMState>:
  * @brief  It returns information about the state of the related pSTM object.
  * @param  pHandle Pointer on the component instance to work on.
  * @retval State_t It returns the current state of the related pSTM object.
  */
__weak State_t  MCI_GetSTMState( MCI_Handle_t * pHandle )
{
 8000d72:	b510      	push	{r4, lr}
  return STM_GetState( pHandle->pSTM );
 8000d74:	6800      	ldr	r0, [r0, #0]
 8000d76:	f004 fed7 	bl	8005b28 <STM_GetState>
}
 8000d7a:	bd10      	pop	{r4, pc}

08000d7c <MCI_GetControlMode>:
  * @retval STC_Modality_t It returns the modality of STC. It can be one of
  *         these two values: STC_TORQUE_MODE or STC_SPEED_MODE.
  */
__weak STC_Modality_t MCI_GetControlMode( MCI_Handle_t * pHandle )
{
  return pHandle->LastModalitySetByUser;
 8000d7c:	7e40      	ldrb	r0, [r0, #25]
}
 8000d7e:	4770      	bx	lr

08000d80 <MCI_GetLastRampFinalSpeed>:
__weak int16_t MCI_GetLastRampFinalSpeed( MCI_Handle_t * pHandle )
{
  int16_t hRetVal = 0;

  /* Examine the last buffered commands */
  if ( pHandle->lastCommand == MCI_EXECSPEEDRAMP )
 8000d80:	7b02      	ldrb	r2, [r0, #12]
{
 8000d82:	0003      	movs	r3, r0
  int16_t hRetVal = 0;
 8000d84:	2000      	movs	r0, #0
  if ( pHandle->lastCommand == MCI_EXECSPEEDRAMP )
 8000d86:	2a01      	cmp	r2, #1
 8000d88:	d101      	bne.n	8000d8e <MCI_GetLastRampFinalSpeed+0xe>
  {
    hRetVal = pHandle->hFinalSpeed;
 8000d8a:	200e      	movs	r0, #14
 8000d8c:	5e18      	ldrsh	r0, [r3, r0]
  }
  return hRetVal;
}
 8000d8e:	4770      	bx	lr

08000d90 <MCI_StopRamp>:
/**
  * @brief  Stop the execution of ongoing ramp.
  * @param  pHandle Pointer on the component instance to work on.
  */
__weak void MCI_StopRamp( MCI_Handle_t * pHandle)
{
 8000d90:	b510      	push	{r4, lr}
   STC_StopRamp( pHandle->pSTC );
 8000d92:	6840      	ldr	r0, [r0, #4]
 8000d94:	f004 fded 	bl	8005972 <STC_StopRamp>
}
 8000d98:	bd10      	pop	{r4, pc}

08000d9a <MCI_GetAvrgMecSpeedUnit>:
  *         the unit defined by #SPEED_UNIT and related to the sensor actually
  *         used by FOC algorithm
  * @param  pHandle Pointer on the component instance to work on.
  */
__weak int16_t MCI_GetAvrgMecSpeedUnit( MCI_Handle_t * pHandle )
{
 8000d9a:	b510      	push	{r4, lr}
  SpeednPosFdbk_Handle_t * SpeedSensor = STC_GetSpeedSensor( pHandle->pSTC );
 8000d9c:	6840      	ldr	r0, [r0, #4]
 8000d9e:	f004 fd8b 	bl	80058b8 <STC_GetSpeedSensor>

  return ( SPD_GetAvrgMecSpeedUnit( SpeedSensor ) );
 8000da2:	f004 fd38 	bl	8005816 <SPD_GetAvrgMecSpeedUnit>
}
 8000da6:	bd10      	pop	{r4, pc}

08000da8 <MCI_GetMecSpeedRefUnit>:
  *
  * @param  pHandle Pointer on the component instance to work on.
  *
  */
__weak int16_t MCI_GetMecSpeedRefUnit( MCI_Handle_t * pHandle )
{
 8000da8:	b510      	push	{r4, lr}
  return ( STC_GetMecSpeedRefUnit( pHandle->pSTC ) );
 8000daa:	6840      	ldr	r0, [r0, #4]
 8000dac:	f004 fd8f 	bl	80058ce <STC_GetMecSpeedRefUnit>
}
 8000db0:	bd10      	pop	{r4, pc}

08000db2 <MCI_GetIab>:
  * @brief  It returns stator current Iab in ab_t format
  * @param  pHandle Pointer on the component instance to work on.
  * @retval ab_t Stator current Iab
  */
__weak ab_t MCI_GetIab( MCI_Handle_t * pHandle )
{
 8000db2:	b507      	push	{r0, r1, r2, lr}
  return ( pHandle->pFOCVars->Iab );
 8000db4:	2204      	movs	r2, #4
 8000db6:	6881      	ldr	r1, [r0, #8]
 8000db8:	a801      	add	r0, sp, #4
 8000dba:	f005 f81d 	bl	8005df8 <memcpy>
 8000dbe:	466b      	mov	r3, sp
 8000dc0:	466a      	mov	r2, sp
 8000dc2:	88db      	ldrh	r3, [r3, #6]
 8000dc4:	8890      	ldrh	r0, [r2, #4]
 8000dc6:	041b      	lsls	r3, r3, #16
 8000dc8:	4318      	orrs	r0, r3
}
 8000dca:	bd0e      	pop	{r1, r2, r3, pc}

08000dcc <MCI_GetIalphabeta>:
  * @brief  It returns stator current Ialphabeta in alphabeta_t format
  * @param  pHandle Pointer on the component instance to work on.
  * @retval alphabeta_t Stator current Ialphabeta
  */
__weak alphabeta_t MCI_GetIalphabeta( MCI_Handle_t * pHandle )
{
 8000dcc:	b507      	push	{r0, r1, r2, lr}
  return ( pHandle->pFOCVars->Ialphabeta );
 8000dce:	6881      	ldr	r1, [r0, #8]
 8000dd0:	2204      	movs	r2, #4
 8000dd2:	3104      	adds	r1, #4
 8000dd4:	a801      	add	r0, sp, #4
 8000dd6:	f005 f80f 	bl	8005df8 <memcpy>
 8000dda:	466b      	mov	r3, sp
 8000ddc:	466a      	mov	r2, sp
 8000dde:	88db      	ldrh	r3, [r3, #6]
 8000de0:	8890      	ldrh	r0, [r2, #4]
 8000de2:	041b      	lsls	r3, r3, #16
 8000de4:	4318      	orrs	r0, r3
}
 8000de6:	bd0e      	pop	{r1, r2, r3, pc}

08000de8 <MCI_GetIqd>:
  * @brief  It returns stator current Iqd in qd_t format
  * @param  pHandle Pointer on the component instance to work on.
  * @retval qd_t Stator current Iqd
  */
__weak qd_t MCI_GetIqd( MCI_Handle_t * pHandle )
{
 8000de8:	b507      	push	{r0, r1, r2, lr}
  return ( pHandle->pFOCVars->Iqd );
 8000dea:	6881      	ldr	r1, [r0, #8]
 8000dec:	2204      	movs	r2, #4
 8000dee:	310c      	adds	r1, #12
 8000df0:	a801      	add	r0, sp, #4
 8000df2:	f005 f801 	bl	8005df8 <memcpy>
 8000df6:	466b      	mov	r3, sp
 8000df8:	466a      	mov	r2, sp
 8000dfa:	88db      	ldrh	r3, [r3, #6]
 8000dfc:	8890      	ldrh	r0, [r2, #4]
 8000dfe:	041b      	lsls	r3, r3, #16
 8000e00:	4318      	orrs	r0, r3
}
 8000e02:	bd0e      	pop	{r1, r2, r3, pc}

08000e04 <MCI_GetIqdref>:
  * @brief  It returns stator current Iqdref in qd_t format
  * @param  pHandle Pointer on the component instance to work on.
  * @retval qd_t Stator current Iqdref
  */
__weak qd_t MCI_GetIqdref( MCI_Handle_t * pHandle )
{
 8000e04:	b507      	push	{r0, r1, r2, lr}
  return ( pHandle->pFOCVars->Iqdref );
 8000e06:	6881      	ldr	r1, [r0, #8]
 8000e08:	2204      	movs	r2, #4
 8000e0a:	3110      	adds	r1, #16
 8000e0c:	a801      	add	r0, sp, #4
 8000e0e:	f004 fff3 	bl	8005df8 <memcpy>
 8000e12:	466b      	mov	r3, sp
 8000e14:	466a      	mov	r2, sp
 8000e16:	88db      	ldrh	r3, [r3, #6]
 8000e18:	8890      	ldrh	r0, [r2, #4]
 8000e1a:	041b      	lsls	r3, r3, #16
 8000e1c:	4318      	orrs	r0, r3
}
 8000e1e:	bd0e      	pop	{r1, r2, r3, pc}

08000e20 <MCI_GetVqd>:
  * @brief  It returns stator current Vqd in qd_t format
  * @param  pHandle Pointer on the component instance to work on.
  * @retval qd_t Stator current Vqd
  */
__weak qd_t MCI_GetVqd( MCI_Handle_t * pHandle )
{
 8000e20:	b507      	push	{r0, r1, r2, lr}
  return ( pHandle->pFOCVars->Vqd );
 8000e22:	6881      	ldr	r1, [r0, #8]
 8000e24:	2204      	movs	r2, #4
 8000e26:	3116      	adds	r1, #22
 8000e28:	a801      	add	r0, sp, #4
 8000e2a:	f004 ffe5 	bl	8005df8 <memcpy>
 8000e2e:	466b      	mov	r3, sp
 8000e30:	466a      	mov	r2, sp
 8000e32:	88db      	ldrh	r3, [r3, #6]
 8000e34:	8890      	ldrh	r0, [r2, #4]
 8000e36:	041b      	lsls	r3, r3, #16
 8000e38:	4318      	orrs	r0, r3
}
 8000e3a:	bd0e      	pop	{r1, r2, r3, pc}

08000e3c <MCI_GetValphabeta>:
  * @brief  It returns stator current Valphabeta in alphabeta_t format
  * @param  pHandle Pointer on the component instance to work on.
  * @retval alphabeta_t Stator current Valphabeta
  */
__weak alphabeta_t MCI_GetValphabeta( MCI_Handle_t * pHandle )
{
 8000e3c:	b507      	push	{r0, r1, r2, lr}
  return ( pHandle->pFOCVars->Valphabeta );
 8000e3e:	6881      	ldr	r1, [r0, #8]
 8000e40:	2204      	movs	r2, #4
 8000e42:	311a      	adds	r1, #26
 8000e44:	a801      	add	r0, sp, #4
 8000e46:	f004 ffd7 	bl	8005df8 <memcpy>
 8000e4a:	466b      	mov	r3, sp
 8000e4c:	466a      	mov	r2, sp
 8000e4e:	88db      	ldrh	r3, [r3, #6]
 8000e50:	8890      	ldrh	r0, [r2, #4]
 8000e52:	041b      	lsls	r3, r3, #16
 8000e54:	4318      	orrs	r0, r3
}
 8000e56:	bd0e      	pop	{r1, r2, r3, pc}

08000e58 <MCI_GetTeref>:
  * @param  pHandle Pointer on the component instance to work on.
  * @retval int16_t Teref
  */
__weak int16_t MCI_GetTeref( MCI_Handle_t * pHandle )
{
  return ( pHandle->pFOCVars->hTeref );
 8000e58:	6883      	ldr	r3, [r0, #8]
 8000e5a:	201e      	movs	r0, #30
 8000e5c:	5e18      	ldrsh	r0, [r3, r0]
}
 8000e5e:	4770      	bx	lr

08000e60 <MCI_SetIdref>:
  * @param  int16_t New target Id value
  * @retval none
  */
__weak void MCI_SetIdref( MCI_Handle_t * pHandle, int16_t hNewIdref )
{
  pHandle->pFOCVars->Iqdref.d = hNewIdref;
 8000e60:	6883      	ldr	r3, [r0, #8]
 8000e62:	8259      	strh	r1, [r3, #18]
  pHandle->pFOCVars->UserIdref = hNewIdref;
 8000e64:	8299      	strh	r1, [r3, #20]
}
 8000e66:	4770      	bx	lr

08000e68 <MCI_Clear_Iqdref>:
  * @brief  It re-initializes Iqdref variables with their default values.
  * @param  pHandle Pointer on the component instance to work on.
  * @retval none
  */
__weak void MCI_Clear_Iqdref( MCI_Handle_t * pHandle )
{
 8000e68:	b510      	push	{r4, lr}
  pHandle->pFOCVars->Iqdref = STC_GetDefaultIqdref( pHandle->pSTC );
 8000e6a:	6884      	ldr	r4, [r0, #8]
 8000e6c:	6840      	ldr	r0, [r0, #4]
 8000e6e:	f004 fdb7 	bl	80059e0 <STC_GetDefaultIqdref>
 8000e72:	8220      	strh	r0, [r4, #16]
 8000e74:	0c00      	lsrs	r0, r0, #16
 8000e76:	8260      	strh	r0, [r4, #18]
}
 8000e78:	bd10      	pop	{r4, pc}

08000e7a <MCI_Home_Osc>:


void MCI_Home_Osc()
{
 8000e7a:	b510      	push	{r4, lr}
	OSC_MODE_HOME();
 8000e7c:	f7ff fb2e 	bl	80004dc <OSC_MODE_HOME>
}
 8000e80:	bd10      	pop	{r4, pc}

08000e82 <MCI_Home_Offset>:
void MCI_Home_Offset(){
 8000e82:	b510      	push	{r4, lr}
	Home_Offset();
 8000e84:	f7ff fc50 	bl	8000728 <Home_Offset>
}
 8000e88:	bd10      	pop	{r4, pc}
	...

08000e8c <MCM_Clarke>:
  /* qIalpha = qIas*/
  Output.alpha = Input.a;

  a_divSQRT3_tmp = divSQRT_3 * ( int32_t )Input.a;

  b_divSQRT3_tmp = divSQRT_3 * ( int32_t )Input.b;
 8000e8c:	4a10      	ldr	r2, [pc, #64]	; (8000ed0 <MCM_Clarke+0x44>)
 8000e8e:	b201      	sxth	r1, r0
 8000e90:	1400      	asrs	r0, r0, #16
 8000e92:	4350      	muls	r0, r2
  a_divSQRT3_tmp = divSQRT_3 * ( int32_t )Input.a;
 8000e94:	434a      	muls	r2, r1
#else
  /* WARNING: the below instruction is not MISRA compliant, user should verify
    that Cortex-M3 assembly instruction ASR (arithmetic shift right) is used by
    the compiler to perform the shift (instead of LSR logical shift right) */

  wbeta_tmp = ( -( a_divSQRT3_tmp ) - ( b_divSQRT3_tmp ) -
 8000e96:	4253      	negs	r3, r2
                 ( b_divSQRT3_tmp ) ) >> 15;
#endif

  /* Check saturation of Ibeta */
  if ( wbeta_tmp > INT16_MAX )
 8000e98:	2280      	movs	r2, #128	; 0x80
  wbeta_tmp = ( -( a_divSQRT3_tmp ) - ( b_divSQRT3_tmp ) -
 8000e9a:	1a1b      	subs	r3, r3, r0
 8000e9c:	1a1b      	subs	r3, r3, r0
{
 8000e9e:	b084      	sub	sp, #16
  wbeta_tmp = ( -( a_divSQRT3_tmp ) - ( b_divSQRT3_tmp ) -
 8000ea0:	13db      	asrs	r3, r3, #15
  if ( wbeta_tmp > INT16_MAX )
 8000ea2:	0212      	lsls	r2, r2, #8
 8000ea4:	4293      	cmp	r3, r2
 8000ea6:	da10      	bge.n	8000eca <MCM_Clarke+0x3e>
  {
    hbeta_tmp = INT16_MAX;
  }
  else if ( wbeta_tmp < ( -32768 ) )
 8000ea8:	480a      	ldr	r0, [pc, #40]	; (8000ed4 <MCM_Clarke+0x48>)
  {
    hbeta_tmp = ( -32768 );
 8000eaa:	0002      	movs	r2, r0
  else if ( wbeta_tmp < ( -32768 ) )
 8000eac:	4283      	cmp	r3, r0
 8000eae:	db00      	blt.n	8000eb2 <MCM_Clarke+0x26>
  }
  else
  {
    hbeta_tmp = ( int16_t )( wbeta_tmp );
 8000eb0:	b21a      	sxth	r2, r3
  if ( Output.beta == ( int16_t )( -32768 ) )
  {
    Output.beta = -32767;
  }

  return ( Output );
 8000eb2:	ab03      	add	r3, sp, #12
 8000eb4:	8019      	strh	r1, [r3, #0]
 8000eb6:	4908      	ldr	r1, [pc, #32]	; (8000ed8 <MCM_Clarke+0x4c>)
 8000eb8:	1c10      	adds	r0, r2, #0
 8000eba:	428a      	cmp	r2, r1
 8000ebc:	da00      	bge.n	8000ec0 <MCM_Clarke+0x34>
 8000ebe:	1c08      	adds	r0, r1, #0
 8000ec0:	881b      	ldrh	r3, [r3, #0]
 8000ec2:	0400      	lsls	r0, r0, #16
 8000ec4:	4318      	orrs	r0, r3
}
 8000ec6:	b004      	add	sp, #16
 8000ec8:	4770      	bx	lr
    hbeta_tmp = INT16_MAX;
 8000eca:	4a04      	ldr	r2, [pc, #16]	; (8000edc <MCM_Clarke+0x50>)
 8000ecc:	e7f1      	b.n	8000eb2 <MCM_Clarke+0x26>
 8000ece:	46c0      	nop			; (mov r8, r8)
 8000ed0:	000049e6 	.word	0x000049e6
 8000ed4:	ffff8000 	.word	0xffff8000
 8000ed8:	ffff8001 	.word	0xffff8001
 8000edc:	00007fff 	.word	0x00007fff

08000ee0 <MCM_Trig_Functions>:
  * @param  hAngle: angle in q1.15 format
  * @retval Sin(angle) and Cos(angle) in Trig_Components format
  */

__weak Trig_Components MCM_Trig_Functions( int16_t hAngle )
{
 8000ee0:	b537      	push	{r0, r1, r2, r4, r5, lr}
  uint16_t uhindex;

  Trig_Components Local_Components;

  /* 10 bit index computation  */
  shindex = ( ( int32_t )32768 + ( int32_t )hAngle );
 8000ee2:	2180      	movs	r1, #128	; 0x80
 8000ee4:	0209      	lsls	r1, r1, #8
 8000ee6:	1840      	adds	r0, r0, r1
  uhindex = ( uint16_t )shindex;
 8000ee8:	b280      	uxth	r0, r0
  uhindex /= ( uint16_t )64;
 8000eea:	24c0      	movs	r4, #192	; 0xc0
 8000eec:	0980      	lsrs	r0, r0, #6
{
 8000eee:	2200      	movs	r2, #0
 8000ef0:	0001      	movs	r1, r0

  switch ( ( uint16_t )( uhindex ) & SIN_MASK )
 8000ef2:	2580      	movs	r5, #128	; 0x80
 8000ef4:	00a4      	lsls	r4, r4, #2
{
 8000ef6:	0013      	movs	r3, r2
 8000ef8:	4021      	ands	r1, r4
  switch ( ( uint16_t )( uhindex ) & SIN_MASK )
 8000efa:	00ad      	lsls	r5, r5, #2
 8000efc:	42a9      	cmp	r1, r5
 8000efe:	d017      	beq.n	8000f30 <MCM_Trig_Functions+0x50>
 8000f00:	d809      	bhi.n	8000f16 <MCM_Trig_Functions+0x36>
 8000f02:	4291      	cmp	r1, r2
 8000f04:	d01d      	beq.n	8000f42 <MCM_Trig_Functions+0x62>
 8000f06:	2480      	movs	r4, #128	; 0x80
 8000f08:	0064      	lsls	r4, r4, #1
 8000f0a:	42a1      	cmp	r1, r4
 8000f0c:	d022      	beq.n	8000f54 <MCM_Trig_Functions+0x74>
      Local_Components.hCos =  hSin_Cos_Table[( uint8_t )( uhindex )];
      break;
    default:
      break;
  }
  return ( Local_Components );
 8000f0e:	041b      	lsls	r3, r3, #16
 8000f10:	b290      	uxth	r0, r2
 8000f12:	4318      	orrs	r0, r3
}
 8000f14:	bd3e      	pop	{r1, r2, r3, r4, r5, pc}
  switch ( ( uint16_t )( uhindex ) & SIN_MASK )
 8000f16:	42a1      	cmp	r1, r4
 8000f18:	d1f9      	bne.n	8000f0e <MCM_Trig_Functions+0x2e>
      Local_Components.hSin = hSin_Cos_Table[( uint8_t )( 0xFFu - ( uint8_t )( uhindex ) )];
 8000f1a:	b2c0      	uxtb	r0, r0
 8000f1c:	43c3      	mvns	r3, r0
 8000f1e:	4a12      	ldr	r2, [pc, #72]	; (8000f68 <MCM_Trig_Functions+0x88>)
 8000f20:	b2db      	uxtb	r3, r3
 8000f22:	005b      	lsls	r3, r3, #1
 8000f24:	5e9b      	ldrsh	r3, [r3, r2]
      Local_Components.hCos = -hSin_Cos_Table[( uint8_t )( 0xFFu - ( uint8_t )( uhindex ) )];
 8000f26:	0040      	lsls	r0, r0, #1
 8000f28:	5a82      	ldrh	r2, [r0, r2]
 8000f2a:	4252      	negs	r2, r2
 8000f2c:	b212      	sxth	r2, r2
      break;
 8000f2e:	e7ee      	b.n	8000f0e <MCM_Trig_Functions+0x2e>
      Local_Components.hSin = hSin_Cos_Table[( uint8_t )( uhindex )];
 8000f30:	b2c0      	uxtb	r0, r0
 8000f32:	0043      	lsls	r3, r0, #1
      Local_Components.hCos = hSin_Cos_Table[( uint8_t )( 0xFFu - ( uint8_t )( uhindex ) )];
 8000f34:	43c0      	mvns	r0, r0
      Local_Components.hSin = hSin_Cos_Table[( uint8_t )( uhindex )];
 8000f36:	4a0c      	ldr	r2, [pc, #48]	; (8000f68 <MCM_Trig_Functions+0x88>)
      Local_Components.hCos = hSin_Cos_Table[( uint8_t )( 0xFFu - ( uint8_t )( uhindex ) )];
 8000f38:	b2c0      	uxtb	r0, r0
      Local_Components.hSin = hSin_Cos_Table[( uint8_t )( uhindex )];
 8000f3a:	5e9b      	ldrsh	r3, [r3, r2]
      Local_Components.hCos =  hSin_Cos_Table[( uint8_t )( uhindex )];
 8000f3c:	0040      	lsls	r0, r0, #1
 8000f3e:	5e82      	ldrsh	r2, [r0, r2]
      break;
 8000f40:	e7e5      	b.n	8000f0e <MCM_Trig_Functions+0x2e>
      Local_Components.hSin = -hSin_Cos_Table[( uint8_t )( uhindex )];
 8000f42:	b2c0      	uxtb	r0, r0
 8000f44:	0043      	lsls	r3, r0, #1
      Local_Components.hCos = -hSin_Cos_Table[( uint8_t )( 0xFFu - ( uint8_t )( uhindex ) )];
 8000f46:	43c0      	mvns	r0, r0
      Local_Components.hSin = -hSin_Cos_Table[( uint8_t )( uhindex )];
 8000f48:	4a07      	ldr	r2, [pc, #28]	; (8000f68 <MCM_Trig_Functions+0x88>)
      Local_Components.hCos = -hSin_Cos_Table[( uint8_t )( 0xFFu - ( uint8_t )( uhindex ) )];
 8000f4a:	b2c0      	uxtb	r0, r0
      Local_Components.hSin = -hSin_Cos_Table[( uint8_t )( uhindex )];
 8000f4c:	5a9b      	ldrh	r3, [r3, r2]
 8000f4e:	425b      	negs	r3, r3
 8000f50:	b21b      	sxth	r3, r3
      Local_Components.hCos = -hSin_Cos_Table[( uint8_t )( 0xFFu - ( uint8_t )( uhindex ) )];
 8000f52:	e7e8      	b.n	8000f26 <MCM_Trig_Functions+0x46>
      Local_Components.hSin =  -hSin_Cos_Table[( uint8_t )( 0xFFu - ( uint8_t )( uhindex ) )];
 8000f54:	b2c0      	uxtb	r0, r0
 8000f56:	43c3      	mvns	r3, r0
 8000f58:	4a03      	ldr	r2, [pc, #12]	; (8000f68 <MCM_Trig_Functions+0x88>)
 8000f5a:	b2db      	uxtb	r3, r3
 8000f5c:	005b      	lsls	r3, r3, #1
 8000f5e:	5a9b      	ldrh	r3, [r3, r2]
 8000f60:	425b      	negs	r3, r3
 8000f62:	b21b      	sxth	r3, r3
 8000f64:	e7ea      	b.n	8000f3c <MCM_Trig_Functions+0x5c>
 8000f66:	46c0      	nop			; (mov r8, r8)
 8000f68:	0800677e 	.word	0x0800677e

08000f6c <MCM_Park>:
{
 8000f6c:	b57f      	push	{r0, r1, r2, r3, r4, r5, r6, lr}
 8000f6e:	b205      	sxth	r5, r0
 8000f70:	9001      	str	r0, [sp, #4]
 8000f72:	1404      	asrs	r4, r0, #16
  Local_Vector_Components = MCM_Trig_Functions( Theta );
 8000f74:	0008      	movs	r0, r1
 8000f76:	f7ff ffb3 	bl	8000ee0 <MCM_Trig_Functions>
  q_tmp_1 = Input.alpha * ( int32_t )Local_Vector_Components.hCos;
 8000f7a:	b202      	sxth	r2, r0
  q_tmp_2 = Input.beta * ( int32_t )Local_Vector_Components.hSin;
 8000f7c:	1400      	asrs	r0, r0, #16
  q_tmp_1 = Input.alpha * ( int32_t )Local_Vector_Components.hCos;
 8000f7e:	0013      	movs	r3, r2
  q_tmp_2 = Input.beta * ( int32_t )Local_Vector_Components.hSin;
 8000f80:	0001      	movs	r1, r0
  q_tmp_1 = Input.alpha * ( int32_t )Local_Vector_Components.hCos;
 8000f82:	436b      	muls	r3, r5
  q_tmp_2 = Input.beta * ( int32_t )Local_Vector_Components.hSin;
 8000f84:	4361      	muls	r1, r4
  wqd_tmp = ( q_tmp_1 - q_tmp_2 ) >> 15;
 8000f86:	1a5b      	subs	r3, r3, r1
  if ( wqd_tmp > INT16_MAX )
 8000f88:	2180      	movs	r1, #128	; 0x80
  wqd_tmp = ( q_tmp_1 - q_tmp_2 ) >> 15;
 8000f8a:	13db      	asrs	r3, r3, #15
  if ( wqd_tmp > INT16_MAX )
 8000f8c:	0209      	lsls	r1, r1, #8
 8000f8e:	428b      	cmp	r3, r1
 8000f90:	da23      	bge.n	8000fda <MCM_Park+0x6e>
  else if ( wqd_tmp < ( -32768 ) )
 8000f92:	4914      	ldr	r1, [pc, #80]	; (8000fe4 <MCM_Park+0x78>)
    hqd_tmp = ( -32768 );
 8000f94:	000e      	movs	r6, r1
  else if ( wqd_tmp < ( -32768 ) )
 8000f96:	428b      	cmp	r3, r1
 8000f98:	db00      	blt.n	8000f9c <MCM_Park+0x30>
    hqd_tmp = ( int16_t )( wqd_tmp );
 8000f9a:	b21e      	sxth	r6, r3
  if ( Output.q == ( int16_t )( -32768 ) )
 8000f9c:	4b12      	ldr	r3, [pc, #72]	; (8000fe8 <MCM_Park+0x7c>)
 8000f9e:	1c31      	adds	r1, r6, #0
 8000fa0:	429e      	cmp	r6, r3
 8000fa2:	da00      	bge.n	8000fa6 <MCM_Park+0x3a>
 8000fa4:	1c19      	adds	r1, r3, #0
  d_tmp_2 = Input.beta * ( int32_t )Local_Vector_Components.hCos;
 8000fa6:	4362      	muls	r2, r4
  d_tmp_1 = Input.alpha * ( int32_t )Local_Vector_Components.hSin;
 8000fa8:	4368      	muls	r0, r5
  wqd_tmp = ( d_tmp_1 + d_tmp_2 ) >> 15;
 8000faa:	1880      	adds	r0, r0, r2
  if ( wqd_tmp > INT16_MAX )
 8000fac:	2280      	movs	r2, #128	; 0x80
 8000fae:	b209      	sxth	r1, r1
  wqd_tmp = ( d_tmp_1 + d_tmp_2 ) >> 15;
 8000fb0:	13c0      	asrs	r0, r0, #15
  if ( wqd_tmp > INT16_MAX )
 8000fb2:	0212      	lsls	r2, r2, #8
 8000fb4:	4290      	cmp	r0, r2
 8000fb6:	da12      	bge.n	8000fde <MCM_Park+0x72>
  else if ( wqd_tmp < ( -32768 ) )
 8000fb8:	4c0a      	ldr	r4, [pc, #40]	; (8000fe4 <MCM_Park+0x78>)
    hqd_tmp = ( -32768 );
 8000fba:	0022      	movs	r2, r4
  else if ( wqd_tmp < ( -32768 ) )
 8000fbc:	42a0      	cmp	r0, r4
 8000fbe:	db00      	blt.n	8000fc2 <MCM_Park+0x56>
    hqd_tmp = ( int16_t )( wqd_tmp );
 8000fc0:	b202      	sxth	r2, r0
  return ( Output );
 8000fc2:	ac03      	add	r4, sp, #12
 8000fc4:	8021      	strh	r1, [r4, #0]
 8000fc6:	1c10      	adds	r0, r2, #0
 8000fc8:	429a      	cmp	r2, r3
 8000fca:	da01      	bge.n	8000fd0 <MCM_Park+0x64>
 8000fcc:	4b07      	ldr	r3, [pc, #28]	; (8000fec <MCM_Park+0x80>)
 8000fce:	8818      	ldrh	r0, [r3, #0]
 8000fd0:	8823      	ldrh	r3, [r4, #0]
 8000fd2:	0400      	lsls	r0, r0, #16
 8000fd4:	4318      	orrs	r0, r3
}
 8000fd6:	b004      	add	sp, #16
 8000fd8:	bd70      	pop	{r4, r5, r6, pc}
    hqd_tmp = INT16_MAX;
 8000fda:	4e05      	ldr	r6, [pc, #20]	; (8000ff0 <MCM_Park+0x84>)
 8000fdc:	e7de      	b.n	8000f9c <MCM_Park+0x30>
    hqd_tmp = INT16_MAX;
 8000fde:	4a04      	ldr	r2, [pc, #16]	; (8000ff0 <MCM_Park+0x84>)
 8000fe0:	e7ef      	b.n	8000fc2 <MCM_Park+0x56>
 8000fe2:	46c0      	nop			; (mov r8, r8)
 8000fe4:	ffff8000 	.word	0xffff8000
 8000fe8:	ffff8001 	.word	0xffff8001
 8000fec:	0800677c 	.word	0x0800677c
 8000ff0:	00007fff 	.word	0x00007fff

08000ff4 <MCM_Rev_Park>:
{
 8000ff4:	b530      	push	{r4, r5, lr}
 8000ff6:	b085      	sub	sp, #20
 8000ff8:	b205      	sxth	r5, r0
 8000ffa:	9001      	str	r0, [sp, #4]
 8000ffc:	1404      	asrs	r4, r0, #16
  Local_Vector_Components = MCM_Trig_Functions( Theta );
 8000ffe:	0008      	movs	r0, r1
 8001000:	f7ff ff6e 	bl	8000ee0 <MCM_Trig_Functions>
  alpha_tmp1 = Input.q * ( int32_t )Local_Vector_Components.hCos;
 8001004:	b202      	sxth	r2, r0
  alpha_tmp2 = Input.d * ( int32_t )Local_Vector_Components.hSin;
 8001006:	1400      	asrs	r0, r0, #16
  alpha_tmp1 = Input.q * ( int32_t )Local_Vector_Components.hCos;
 8001008:	0013      	movs	r3, r2
  alpha_tmp2 = Input.d * ( int32_t )Local_Vector_Components.hSin;
 800100a:	0001      	movs	r1, r0
  alpha_tmp1 = Input.q * ( int32_t )Local_Vector_Components.hCos;
 800100c:	436b      	muls	r3, r5
  alpha_tmp2 = Input.d * ( int32_t )Local_Vector_Components.hSin;
 800100e:	4361      	muls	r1, r4
  beta_tmp1 = Input.q * ( int32_t )Local_Vector_Components.hSin;
 8001010:	4368      	muls	r0, r5
  beta_tmp2 = Input.d * ( int32_t )Local_Vector_Components.hCos;
 8001012:	4354      	muls	r4, r2
  Output.alpha = ( int16_t )( ( ( alpha_tmp1 ) + ( alpha_tmp2 ) ) >> 15 );
 8001014:	185b      	adds	r3, r3, r1
  Output.beta = ( int16_t )( ( beta_tmp2 - beta_tmp1 ) >> 15 );
 8001016:	1a20      	subs	r0, r4, r0
  Output.alpha = ( int16_t )( ( ( alpha_tmp1 ) + ( alpha_tmp2 ) ) >> 15 );
 8001018:	13db      	asrs	r3, r3, #15
  Output.beta = ( int16_t )( ( beta_tmp2 - beta_tmp1 ) >> 15 );
 800101a:	13c0      	asrs	r0, r0, #15
  return ( Output );
 800101c:	b29b      	uxth	r3, r3
 800101e:	0400      	lsls	r0, r0, #16
 8001020:	4318      	orrs	r0, r3
}
 8001022:	b005      	add	sp, #20
 8001024:	bd30      	pop	{r4, r5, pc}

08001026 <LL_GPIO_LockPin>:
  * @retval None
  */
__STATIC_INLINE void LL_GPIO_LockPin(GPIO_TypeDef *GPIOx, uint32_t PinMask)
{
  __IO uint32_t temp;
  WRITE_REG(GPIOx->LCKR, GPIO_LCKR_LCKK | PinMask);
 8001026:	2380      	movs	r3, #128	; 0x80
 8001028:	025b      	lsls	r3, r3, #9
 800102a:	430b      	orrs	r3, r1
 800102c:	61c3      	str	r3, [r0, #28]
  WRITE_REG(GPIOx->LCKR, PinMask);
 800102e:	61c1      	str	r1, [r0, #28]
  WRITE_REG(GPIOx->LCKR, GPIO_LCKR_LCKK | PinMask);
 8001030:	61c3      	str	r3, [r0, #28]
  temp = READ_REG(GPIOx->LCKR);
 8001032:	69c3      	ldr	r3, [r0, #28]
{
 8001034:	b082      	sub	sp, #8
  temp = READ_REG(GPIOx->LCKR);
 8001036:	9301      	str	r3, [sp, #4]
  (void) temp;
 8001038:	9b01      	ldr	r3, [sp, #4]
}
 800103a:	b002      	add	sp, #8
 800103c:	4770      	bx	lr
	...

08001040 <FOC_Clear>:
  /* USER CODE END FOC_Clear 0 */
  ab_t NULL_ab = {(int16_t)0, (int16_t)0};
  qd_t NULL_qd = {(int16_t)0, (int16_t)0};
  alphabeta_t NULL_alphabeta = {(int16_t)0, (int16_t)0};

  FOCVars[bMotor].Iab = NULL_ab;
 8001040:	2226      	movs	r2, #38	; 0x26
{
 8001042:	b570      	push	{r4, r5, r6, lr}
  FOCVars[bMotor].Iab = NULL_ab;
 8001044:	2400      	movs	r4, #0
 8001046:	4342      	muls	r2, r0
 8001048:	4b11      	ldr	r3, [pc, #68]	; (8001090 <FOC_Clear+0x50>)
  FOCVars[bMotor].hTeref = (int16_t)0;
  FOCVars[bMotor].Vqd = NULL_qd;
  FOCVars[bMotor].Valphabeta = NULL_alphabeta;
  FOCVars[bMotor].hElAngle = (int16_t)0;

  PID_SetIntegralTerm(pPIDIq[bMotor], (int32_t)0);
 800104a:	0085      	lsls	r5, r0, #2
  FOCVars[bMotor].Iab = NULL_ab;
 800104c:	52d4      	strh	r4, [r2, r3]
 800104e:	189b      	adds	r3, r3, r2
 8001050:	805c      	strh	r4, [r3, #2]
  FOCVars[bMotor].Ialphabeta = NULL_alphabeta;
 8001052:	809c      	strh	r4, [r3, #4]
 8001054:	80dc      	strh	r4, [r3, #6]
  FOCVars[bMotor].Iqd = NULL_qd;
 8001056:	819c      	strh	r4, [r3, #12]
 8001058:	81dc      	strh	r4, [r3, #14]
  FOCVars[bMotor].Iqdref = NULL_qd;
 800105a:	821c      	strh	r4, [r3, #16]
 800105c:	825c      	strh	r4, [r3, #18]
  FOCVars[bMotor].hTeref = (int16_t)0;
 800105e:	83dc      	strh	r4, [r3, #30]
  FOCVars[bMotor].Vqd = NULL_qd;
 8001060:	82dc      	strh	r4, [r3, #22]
 8001062:	831c      	strh	r4, [r3, #24]
  FOCVars[bMotor].Valphabeta = NULL_alphabeta;
 8001064:	835c      	strh	r4, [r3, #26]
 8001066:	839c      	strh	r4, [r3, #28]
  FOCVars[bMotor].hElAngle = (int16_t)0;
 8001068:	841c      	strh	r4, [r3, #32]
  PID_SetIntegralTerm(pPIDIq[bMotor], (int32_t)0);
 800106a:	4b0a      	ldr	r3, [pc, #40]	; (8001094 <FOC_Clear+0x54>)
 800106c:	0021      	movs	r1, r4
 800106e:	58e8      	ldr	r0, [r5, r3]
 8001070:	f003 fe27 	bl	8004cc2 <PID_SetIntegralTerm>
  PID_SetIntegralTerm(pPIDId[bMotor], (int32_t)0);
 8001074:	4b08      	ldr	r3, [pc, #32]	; (8001098 <FOC_Clear+0x58>)
 8001076:	0021      	movs	r1, r4
 8001078:	58e8      	ldr	r0, [r5, r3]
 800107a:	f003 fe22 	bl	8004cc2 <PID_SetIntegralTerm>

  STC_Clear(pSTC[bMotor]);
 800107e:	4b07      	ldr	r3, [pc, #28]	; (800109c <FOC_Clear+0x5c>)
 8001080:	58e8      	ldr	r0, [r5, r3]
 8001082:	f004 fc1b 	bl	80058bc <STC_Clear>

  PWMC_SwitchOffPWM(pwmcHandle[bMotor]);
 8001086:	4b06      	ldr	r3, [pc, #24]	; (80010a0 <FOC_Clear+0x60>)
 8001088:	58e8      	ldr	r0, [r5, r3]
 800108a:	f003 ffac 	bl	8004fe6 <PWMC_SwitchOffPWM>

  /* USER CODE BEGIN FOC_Clear 1 */

  /* USER CODE END FOC_Clear 1 */
}
 800108e:	bd70      	pop	{r4, r5, r6, pc}
 8001090:	200008c6 	.word	0x200008c6
 8001094:	20000980 	.word	0x20000980
 8001098:	2000097c 	.word	0x2000097c
 800109c:	2000098c 	.word	0x2000098c
 80010a0:	20000994 	.word	0x20000994

080010a4 <MCboot>:
{
 80010a4:	b5f0      	push	{r4, r5, r6, r7, lr}
  bMCBootCompleted = 0;
 80010a6:	2400      	movs	r4, #0
{
 80010a8:	b087      	sub	sp, #28
 80010aa:	9002      	str	r0, [sp, #8]
  STM_Init(&STM[M1]);
 80010ac:	484d      	ldr	r0, [pc, #308]	; (80011e4 <MCboot+0x140>)
{
 80010ae:	9103      	str	r1, [sp, #12]
  STM_Init(&STM[M1]);
 80010b0:	f004 fca6 	bl	8005a00 <STM_Init>
  bMCBootCompleted = 0;
 80010b4:	4b4c      	ldr	r3, [pc, #304]	; (80011e8 <MCboot+0x144>)
  pCLM[M1] = &CircleLimitationM1;
 80010b6:	4a4d      	ldr	r2, [pc, #308]	; (80011ec <MCboot+0x148>)
  bMCBootCompleted = 0;
 80010b8:	701c      	strb	r4, [r3, #0]
  pCLM[M1] = &CircleLimitationM1;
 80010ba:	4b4d      	ldr	r3, [pc, #308]	; (80011f0 <MCboot+0x14c>)
  pwmcHandle[M1] = &PWM_Handle_M1._Super;
 80010bc:	484d      	ldr	r0, [pc, #308]	; (80011f4 <MCboot+0x150>)
  pCLM[M1] = &CircleLimitationM1;
 80010be:	601a      	str	r2, [r3, #0]
  pwmcHandle[M1] = &PWM_Handle_M1._Super;
 80010c0:	4b4d      	ldr	r3, [pc, #308]	; (80011f8 <MCboot+0x154>)
 80010c2:	6018      	str	r0, [r3, #0]
  R3_1_Init(&PWM_Handle_M1);
 80010c4:	f004 f888 	bl	80051d8 <R3_1_Init>
  PID_HandleInit(&PIDSpeedHandle_M1);
 80010c8:	4d4c      	ldr	r5, [pc, #304]	; (80011fc <MCboot+0x158>)
 80010ca:	0028      	movs	r0, r5
 80010cc:	f003 fde7 	bl	8004c9e <PID_HandleInit>
  pPIDSpeed[M1] = &PIDSpeedHandle_M1;
 80010d0:	4b4b      	ldr	r3, [pc, #300]	; (8001200 <MCboot+0x15c>)
  HALL_Init (&HALL_M1);
 80010d2:	484c      	ldr	r0, [pc, #304]	; (8001204 <MCboot+0x160>)
  pPIDSpeed[M1] = &PIDSpeedHandle_M1;
 80010d4:	601d      	str	r5, [r3, #0]
  pSTC[M1] = &SpeednTorqCtrlM1;
 80010d6:	4d4c      	ldr	r5, [pc, #304]	; (8001208 <MCboot+0x164>)
 80010d8:	4b4c      	ldr	r3, [pc, #304]	; (800120c <MCboot+0x168>)
 80010da:	602b      	str	r3, [r5, #0]
  HALL_Init (&HALL_M1);
 80010dc:	f003 fa3e 	bl	800455c <HALL_Init>
  STC_Init(pSTC[M1],pPIDSpeed[M1], &HALL_M1._Super);
 80010e0:	4b47      	ldr	r3, [pc, #284]	; (8001200 <MCboot+0x15c>)
 80010e2:	4a48      	ldr	r2, [pc, #288]	; (8001204 <MCboot+0x160>)
 80010e4:	6819      	ldr	r1, [r3, #0]
 80010e6:	6828      	ldr	r0, [r5, #0]
 80010e8:	f004 fbd3 	bl	8005892 <STC_Init>
  PID_HandleInit(&PIDIqHandle_M1);
 80010ec:	4f48      	ldr	r7, [pc, #288]	; (8001210 <MCboot+0x16c>)
 80010ee:	0038      	movs	r0, r7
 80010f0:	f003 fdd5 	bl	8004c9e <PID_HandleInit>
  PID_HandleInit(&PIDIdHandle_M1);
 80010f4:	4e47      	ldr	r6, [pc, #284]	; (8001214 <MCboot+0x170>)
 80010f6:	0030      	movs	r0, r6
 80010f8:	f003 fdd1 	bl	8004c9e <PID_HandleInit>
  pPIDIq[M1] = &PIDIqHandle_M1;
 80010fc:	4b46      	ldr	r3, [pc, #280]	; (8001218 <MCboot+0x174>)
  pBusSensorM1 = &RealBusVoltageSensorParamsM1;
 80010fe:	4847      	ldr	r0, [pc, #284]	; (800121c <MCboot+0x178>)
  pPIDIq[M1] = &PIDIqHandle_M1;
 8001100:	601f      	str	r7, [r3, #0]
  pPIDId[M1] = &PIDIdHandle_M1;
 8001102:	4b47      	ldr	r3, [pc, #284]	; (8001220 <MCboot+0x17c>)
 8001104:	601e      	str	r6, [r3, #0]
  pBusSensorM1 = &RealBusVoltageSensorParamsM1;
 8001106:	4e47      	ldr	r6, [pc, #284]	; (8001224 <MCboot+0x180>)
 8001108:	6030      	str	r0, [r6, #0]
  RVBS_Init(pBusSensorM1);
 800110a:	f004 fb2c 	bl	8005766 <RVBS_Init>
  pMPM[M1] = &PQD_MotorPowMeasM1;
 800110e:	4b46      	ldr	r3, [pc, #280]	; (8001228 <MCboot+0x184>)
 8001110:	4a46      	ldr	r2, [pc, #280]	; (800122c <MCboot+0x188>)
  NTC_Init(&TempSensorParamsM1);
 8001112:	4f47      	ldr	r7, [pc, #284]	; (8001230 <MCboot+0x18c>)
  pMPM[M1] = &PQD_MotorPowMeasM1;
 8001114:	6013      	str	r3, [r2, #0]
  pMPM[M1]->pVBS = &(pBusSensorM1->_Super);
 8001116:	6832      	ldr	r2, [r6, #0]
 8001118:	33fc      	adds	r3, #252	; 0xfc
 800111a:	615a      	str	r2, [r3, #20]
  pMPM[M1]->pFOCVars = &FOCVars[M1];
 800111c:	4a45      	ldr	r2, [pc, #276]	; (8001234 <MCboot+0x190>)
  NTC_Init(&TempSensorParamsM1);
 800111e:	0038      	movs	r0, r7
  pMPM[M1]->pFOCVars = &FOCVars[M1];
 8001120:	611a      	str	r2, [r3, #16]
  NTC_Init(&TempSensorParamsM1);
 8001122:	f003 fd75 	bl	8004c10 <NTC_Init>
  pTemperatureSensor[M1] = &TempSensorParamsM1;
 8001126:	4b44      	ldr	r3, [pc, #272]	; (8001238 <MCboot+0x194>)
  pREMNG[M1] = &RampExtMngrHFParamsM1;
 8001128:	4844      	ldr	r0, [pc, #272]	; (800123c <MCboot+0x198>)
  pTemperatureSensor[M1] = &TempSensorParamsM1;
 800112a:	601f      	str	r7, [r3, #0]
  pREMNG[M1] = &RampExtMngrHFParamsM1;
 800112c:	4b44      	ldr	r3, [pc, #272]	; (8001240 <MCboot+0x19c>)
 800112e:	6018      	str	r0, [r3, #0]
  REMNG_Init(pREMNG[M1]);
 8001130:	f004 fb62 	bl	80057f8 <REMNG_Init>
  FOC_Clear(M1);
 8001134:	0020      	movs	r0, r4
 8001136:	f7ff ff83 	bl	8001040 <FOC_Clear>
  FOCVars[M1].bDriveInput = EXTERNAL;
 800113a:	2201      	movs	r2, #1
 800113c:	4b3d      	ldr	r3, [pc, #244]	; (8001234 <MCboot+0x190>)
  FOCVars[M1].Iqdref = STC_GetDefaultIqdref(pSTC[M1]);
 800113e:	6828      	ldr	r0, [r5, #0]
  FOCVars[M1].bDriveInput = EXTERNAL;
 8001140:	3305      	adds	r3, #5
 8001142:	77da      	strb	r2, [r3, #31]
  FOCVars[M1].Iqdref = STC_GetDefaultIqdref(pSTC[M1]);
 8001144:	f004 fc4c 	bl	80059e0 <STC_GetDefaultIqdref>
 8001148:	4b3a      	ldr	r3, [pc, #232]	; (8001234 <MCboot+0x190>)
 800114a:	8218      	strh	r0, [r3, #16]
 800114c:	0c00      	lsrs	r0, r0, #16
 800114e:	8258      	strh	r0, [r3, #18]
  FOCVars[M1].UserIdref = STC_GetDefaultIqdref(pSTC[M1]).d;
 8001150:	6828      	ldr	r0, [r5, #0]
 8001152:	f004 fc45 	bl	80059e0 <STC_GetDefaultIqdref>
 8001156:	4b37      	ldr	r3, [pc, #220]	; (8001234 <MCboot+0x190>)
 8001158:	0c00      	lsrs	r0, r0, #16
  oMCInterface[M1] = & Mci[M1];
 800115a:	4f3a      	ldr	r7, [pc, #232]	; (8001244 <MCboot+0x1a0>)
  FOCVars[M1].UserIdref = STC_GetDefaultIqdref(pSTC[M1]).d;
 800115c:	8298      	strh	r0, [r3, #20]
  oMCInterface[M1] = & Mci[M1];
 800115e:	483a      	ldr	r0, [pc, #232]	; (8001248 <MCboot+0x1a4>)
  MCI_Init(oMCInterface[M1], &STM[M1], pSTC[M1], &FOCVars[M1] );
 8001160:	682a      	ldr	r2, [r5, #0]
 8001162:	4920      	ldr	r1, [pc, #128]	; (80011e4 <MCboot+0x140>)
  oMCInterface[M1] = & Mci[M1];
 8001164:	6038      	str	r0, [r7, #0]
  MCI_Init(oMCInterface[M1], &STM[M1], pSTC[M1], &FOCVars[M1] );
 8001166:	f7ff fd8f 	bl	8000c88 <MCI_Init>
  MCI_ExecSpeedRamp(oMCInterface[M1],
 800116a:	683b      	ldr	r3, [r7, #0]
 800116c:	6828      	ldr	r0, [r5, #0]
 800116e:	9301      	str	r3, [sp, #4]
 8001170:	f004 fc2e 	bl	80059d0 <STC_GetMecSpeedRefUnitDefault>
 8001174:	0022      	movs	r2, r4
 8001176:	0001      	movs	r1, r0
 8001178:	9801      	ldr	r0, [sp, #4]
 800117a:	f7ff fd8f 	bl	8000c9c <MCI_ExecSpeedRamp>
  pMCIList[M1] = oMCInterface[M1];
 800117e:	683b      	ldr	r3, [r7, #0]
  bMCBootCompleted = 1;
 8001180:	2201      	movs	r2, #1
  pMCIList[M1] = oMCInterface[M1];
 8001182:	9301      	str	r3, [sp, #4]
 8001184:	9901      	ldr	r1, [sp, #4]
 8001186:	9b02      	ldr	r3, [sp, #8]
 8001188:	6019      	str	r1, [r3, #0]
  MCT[M1].pPIDSpeed = pPIDSpeed[M1];
 800118a:	491d      	ldr	r1, [pc, #116]	; (8001200 <MCboot+0x15c>)
 800118c:	4b2f      	ldr	r3, [pc, #188]	; (800124c <MCboot+0x1a8>)
 800118e:	6809      	ldr	r1, [r1, #0]
  MCT[M1].pPIDFluxWeakening = MC_NULL; /* if M1 doesn't has FW */
 8001190:	60dc      	str	r4, [r3, #12]
  MCT[M1].pPIDSpeed = pPIDSpeed[M1];
 8001192:	6019      	str	r1, [r3, #0]
  MCT[M1].pPIDIq = pPIDIq[M1];
 8001194:	4920      	ldr	r1, [pc, #128]	; (8001218 <MCboot+0x174>)
  MCT[M1].pRevupCtrl = MC_NULL;              /* only if M1 is not sensorless*/
 8001196:	615c      	str	r4, [r3, #20]
  MCT[M1].pPIDIq = pPIDIq[M1];
 8001198:	6809      	ldr	r1, [r1, #0]
  MCT[M1].pSpeedSensorAux = MC_NULL;
 800119a:	61dc      	str	r4, [r3, #28]
  MCT[M1].pPIDIq = pPIDIq[M1];
 800119c:	6059      	str	r1, [r3, #4]
  MCT[M1].pPIDId = pPIDId[M1];
 800119e:	4920      	ldr	r1, [pc, #128]	; (8001220 <MCboot+0x17c>)
  MCT[M1].pSpeedSensorVirtual = MC_NULL;
 80011a0:	621c      	str	r4, [r3, #32]
  MCT[M1].pPIDId = pPIDId[M1];
 80011a2:	6809      	ldr	r1, [r1, #0]
 80011a4:	6099      	str	r1, [r3, #8]
  MCT[M1].pPWMnCurrFdbk = pwmcHandle[M1];
 80011a6:	4914      	ldr	r1, [pc, #80]	; (80011f8 <MCboot+0x154>)
 80011a8:	6809      	ldr	r1, [r1, #0]
 80011aa:	6119      	str	r1, [r3, #16]
  MCT[M1].pSpeedSensorMain = (SpeednPosFdbk_Handle_t *) &HALL_M1;
 80011ac:	4915      	ldr	r1, [pc, #84]	; (8001204 <MCboot+0x160>)
 80011ae:	6199      	str	r1, [r3, #24]
  MCT[M1].pSpeednTorqueCtrl = pSTC[M1];
 80011b0:	6829      	ldr	r1, [r5, #0]
 80011b2:	6259      	str	r1, [r3, #36]	; 0x24
  MCT[M1].pStateMachine = &STM[M1];
 80011b4:	490b      	ldr	r1, [pc, #44]	; (80011e4 <MCboot+0x140>)
 80011b6:	6299      	str	r1, [r3, #40]	; 0x28
  MCT[M1].pTemperatureSensor = (NTC_Handle_t *) pTemperatureSensor[M1];
 80011b8:	491f      	ldr	r1, [pc, #124]	; (8001238 <MCboot+0x194>)
 80011ba:	6809      	ldr	r1, [r1, #0]
 80011bc:	62d9      	str	r1, [r3, #44]	; 0x2c
  MCT[M1].pBusVoltageSensor = &(pBusSensorM1->_Super);
 80011be:	6831      	ldr	r1, [r6, #0]
 80011c0:	6319      	str	r1, [r3, #48]	; 0x30
  MCT[M1].pMPM =  (MotorPowMeas_Handle_t*)pMPM[M1];
 80011c2:	491a      	ldr	r1, [pc, #104]	; (800122c <MCboot+0x188>)
  MCT[M1].pBrakeDigitalOutput = MC_NULL;   /* brake is defined, oBrakeM1*/
 80011c4:	635c      	str	r4, [r3, #52]	; 0x34
  MCT[M1].pMPM =  (MotorPowMeas_Handle_t*)pMPM[M1];
 80011c6:	6809      	ldr	r1, [r1, #0]
  MCT[M1].pNTCRelay = MC_NULL;             /* relay is defined, oRelayM1*/
 80011c8:	639c      	str	r4, [r3, #56]	; 0x38
  MCT[M1].pMPM =  (MotorPowMeas_Handle_t*)pMPM[M1];
 80011ca:	63d9      	str	r1, [r3, #60]	; 0x3c
  pMCTList[M1] = &MCT[M1];
 80011cc:	9903      	ldr	r1, [sp, #12]
  MCT[M1].pFW = MC_NULL;
 80011ce:	641c      	str	r4, [r3, #64]	; 0x40
  MCT[M1].pFF = MC_NULL;
 80011d0:	645c      	str	r4, [r3, #68]	; 0x44
  MCT[M1].pPosCtrl = MC_NULL;
 80011d2:	649c      	str	r4, [r3, #72]	; 0x48
  MCT[M1].pSCC = MC_NULL;
 80011d4:	64dc      	str	r4, [r3, #76]	; 0x4c
  MCT[M1].pOTT = MC_NULL;
 80011d6:	651c      	str	r4, [r3, #80]	; 0x50
  pMCTList[M1] = &MCT[M1];
 80011d8:	600b      	str	r3, [r1, #0]
  bMCBootCompleted = 1;
 80011da:	4b03      	ldr	r3, [pc, #12]	; (80011e8 <MCboot+0x144>)
 80011dc:	701a      	strb	r2, [r3, #0]
}
 80011de:	b007      	add	sp, #28
 80011e0:	bdf0      	pop	{r4, r5, r6, r7, pc}
 80011e2:	46c0      	nop			; (mov r8, r8)
 80011e4:	2000095c 	.word	0x2000095c
 80011e8:	20000962 	.word	0x20000962
 80011ec:	20000006 	.word	0x20000006
 80011f0:	20000974 	.word	0x20000974
 80011f4:	20000358 	.word	0x20000358
 80011f8:	20000994 	.word	0x20000994
 80011fc:	20000218 	.word	0x20000218
 8001200:	20000984 	.word	0x20000984
 8001204:	200000f8 	.word	0x200000f8
 8001208:	2000098c 	.word	0x2000098c
 800120c:	20000454 	.word	0x20000454
 8001210:	200001ec 	.word	0x200001ec
 8001214:	200001c0 	.word	0x200001c0
 8001218:	20000980 	.word	0x20000980
 800121c:	2000042c 	.word	0x2000042c
 8001220:	2000097c 	.word	0x2000097c
 8001224:	20000970 	.word	0x20000970
 8001228:	20000244 	.word	0x20000244
 800122c:	20000978 	.word	0x20000978
 8001230:	20000488 	.word	0x20000488
 8001234:	200008c6 	.word	0x200008c6
 8001238:	20000990 	.word	0x20000990
 800123c:	200003d4 	.word	0x200003d4
 8001240:	20000988 	.word	0x20000988
 8001244:	2000096c 	.word	0x2000096c
 8001248:	20000940 	.word	0x20000940
 800124c:	200008ec 	.word	0x200008ec

08001250 <FOC_InitAdditionalMethods>:
__weak void FOC_InitAdditionalMethods(uint8_t bMotor)
{
  /* USER CODE BEGIN FOC_InitAdditionalMethods 0 */

  /* USER CODE END FOC_InitAdditionalMethods 0 */
}
 8001250:	4770      	bx	lr
	...

08001254 <FOC_CalcCurrRef>:
  *         in oTSC parameters
  * @param  bMotor related motor it can be M1 or M2
  * @retval none
  */
__weak void FOC_CalcCurrRef(uint8_t bMotor)
{
 8001254:	b510      	push	{r4, lr}

  /* USER CODE BEGIN FOC_CalcCurrRef 0 */

  /* USER CODE END FOC_CalcCurrRef 0 */
  if(FOCVars[bMotor].bDriveInput == INTERNAL)
 8001256:	2426      	movs	r4, #38	; 0x26
 8001258:	4344      	muls	r4, r0
 800125a:	4b07      	ldr	r3, [pc, #28]	; (8001278 <FOC_CalcCurrRef+0x24>)
 800125c:	191c      	adds	r4, r3, r4
 800125e:	1d63      	adds	r3, r4, #5
 8001260:	7fdb      	ldrb	r3, [r3, #31]
 8001262:	2b00      	cmp	r3, #0
 8001264:	d106      	bne.n	8001274 <FOC_CalcCurrRef+0x20>
  {
    FOCVars[bMotor].hTeref = STC_CalcTorqueReference(pSTC[bMotor]);
 8001266:	4b05      	ldr	r3, [pc, #20]	; (800127c <FOC_CalcCurrRef+0x28>)
 8001268:	0080      	lsls	r0, r0, #2
 800126a:	58c0      	ldr	r0, [r0, r3]
 800126c:	f004 fb85 	bl	800597a <STC_CalcTorqueReference>
 8001270:	83e0      	strh	r0, [r4, #30]
    FOCVars[bMotor].Iqdref.q = FOCVars[bMotor].hTeref;
 8001272:	8220      	strh	r0, [r4, #16]

  }
  /* USER CODE BEGIN FOC_CalcCurrRef 1 */

  /* USER CODE END FOC_CalcCurrRef 1 */
}
 8001274:	bd10      	pop	{r4, pc}
 8001276:	46c0      	nop			; (mov r8, r8)
 8001278:	200008c6 	.word	0x200008c6
 800127c:	2000098c 	.word	0x2000098c

08001280 <TSK_SetChargeBootCapDelayM1>:
  * @param  hTickCount number of ticks to be counted
  * @retval void
  */
__weak void TSK_SetChargeBootCapDelayM1(uint16_t hTickCount)
{
   hBootCapDelayCounterM1 = hTickCount;
 8001280:	4b01      	ldr	r3, [pc, #4]	; (8001288 <TSK_SetChargeBootCapDelayM1+0x8>)
 8001282:	8018      	strh	r0, [r3, #0]
}
 8001284:	4770      	bx	lr
 8001286:	46c0      	nop			; (mov r8, r8)
 8001288:	20000964 	.word	0x20000964

0800128c <TSK_ChargeBootCapDelayHasElapsedM1>:
  * @retval bool true if time has elapsed, false otherwise
  */
__weak bool TSK_ChargeBootCapDelayHasElapsedM1(void)
{
  bool retVal = false;
  if (hBootCapDelayCounterM1 == 0)
 800128c:	4b02      	ldr	r3, [pc, #8]	; (8001298 <TSK_ChargeBootCapDelayHasElapsedM1+0xc>)
 800128e:	8818      	ldrh	r0, [r3, #0]
 8001290:	4243      	negs	r3, r0
 8001292:	4158      	adcs	r0, r3
  {
    retVal = true;
  }
  return (retVal);
 8001294:	b2c0      	uxtb	r0, r0
}
 8001296:	4770      	bx	lr
 8001298:	20000964 	.word	0x20000964

0800129c <TSK_SetStopPermanencyTimeM1>:
  * @param  hTickCount number of ticks to be counted
  * @retval void
  */
__weak void TSK_SetStopPermanencyTimeM1(uint16_t hTickCount)
{
  hStopPermanencyCounterM1 = hTickCount;
 800129c:	4b01      	ldr	r3, [pc, #4]	; (80012a4 <TSK_SetStopPermanencyTimeM1+0x8>)
 800129e:	8018      	strh	r0, [r3, #0]
}
 80012a0:	4770      	bx	lr
 80012a2:	46c0      	nop			; (mov r8, r8)
 80012a4:	20000968 	.word	0x20000968

080012a8 <TSK_StopPermanencyTimeHasElapsedM1>:
  * @retval bool true if time is elapsed, false otherwise
  */
__weak bool TSK_StopPermanencyTimeHasElapsedM1(void)
{
  bool retVal = false;
  if (hStopPermanencyCounterM1 == 0)
 80012a8:	4b02      	ldr	r3, [pc, #8]	; (80012b4 <TSK_StopPermanencyTimeHasElapsedM1+0xc>)
 80012aa:	8818      	ldrh	r0, [r3, #0]
 80012ac:	4243      	negs	r3, r0
 80012ae:	4158      	adcs	r0, r3
  {
    retVal = true;
  }
  return (retVal);
 80012b0:	b2c0      	uxtb	r0, r0
}
 80012b2:	4770      	bx	lr
 80012b4:	20000968 	.word	0x20000968

080012b8 <TSK_MediumFrequencyTaskM1>:
{
 80012b8:	b5f7      	push	{r0, r1, r2, r4, r5, r6, r7, lr}
  int16_t wAux = 0;
 80012ba:	466b      	mov	r3, sp
 80012bc:	1d99      	adds	r1, r3, #6
 80012be:	2300      	movs	r3, #0
  bool IsSpeedReliable = HALL_CalcAvrgMecSpeedUnit( &HALL_M1, &wAux );
 80012c0:	4f43      	ldr	r7, [pc, #268]	; (80013d0 <TSK_MediumFrequencyTaskM1+0x118>)
  int16_t wAux = 0;
 80012c2:	800b      	strh	r3, [r1, #0]
  bool IsSpeedReliable = HALL_CalcAvrgMecSpeedUnit( &HALL_M1, &wAux );
 80012c4:	0038      	movs	r0, r7
 80012c6:	f003 fa27 	bl	8004718 <HALL_CalcAvrgMecSpeedUnit>
  PQD_CalcElMotorPower( pMPM[M1] );
 80012ca:	4e42      	ldr	r6, [pc, #264]	; (80013d4 <TSK_MediumFrequencyTaskM1+0x11c>)
  bool IsSpeedReliable = HALL_CalcAvrgMecSpeedUnit( &HALL_M1, &wAux );
 80012cc:	0005      	movs	r5, r0
  PQD_CalcElMotorPower( pMPM[M1] );
 80012ce:	6830      	ldr	r0, [r6, #0]
 80012d0:	f003 fd40 	bl	8004d54 <PQD_CalcElMotorPower>
  StateM1 = STM_GetState( &STM[M1] );
 80012d4:	4c40      	ldr	r4, [pc, #256]	; (80013d8 <TSK_MediumFrequencyTaskM1+0x120>)
 80012d6:	0020      	movs	r0, r4
 80012d8:	f004 fc26 	bl	8005b28 <STM_GetState>
  switch ( StateM1 )
 80012dc:	3803      	subs	r0, #3
 80012de:	280f      	cmp	r0, #15
 80012e0:	d828      	bhi.n	8001334 <TSK_MediumFrequencyTaskM1+0x7c>
 80012e2:	f7fe ff1b 	bl	800011c <__gnu_thumb1_case_uqi>
 80012e6:	3908      	.short	0x3908
 80012e8:	6d5d4e3b 	.word	0x6d5d4e3b
 80012ec:	27272773 	.word	0x27272773
 80012f0:	14272727 	.word	0x14272727
 80012f4:	281f      	.short	0x281f
    R3_1_TurnOnLowSides( pwmcHandle[M1] );
 80012f6:	4b39      	ldr	r3, [pc, #228]	; (80013dc <TSK_MediumFrequencyTaskM1+0x124>)
 80012f8:	6818      	ldr	r0, [r3, #0]
 80012fa:	f004 f843 	bl	8005384 <R3_1_TurnOnLowSides>
    TSK_SetChargeBootCapDelayM1( CHARGE_BOOT_CAP_TICKS );
 80012fe:	2014      	movs	r0, #20
 8001300:	f7ff ffbe 	bl	8001280 <TSK_SetChargeBootCapDelayM1>
    STM_NextState( &STM[M1], CHARGE_BOOT_CAP );
 8001304:	2110      	movs	r1, #16
    STM_NextState( &STM[M1], IDLE );
 8001306:	0020      	movs	r0, r4
 8001308:	f004 fb96 	bl	8005a38 <STM_NextState>
}
 800130c:	e012      	b.n	8001334 <TSK_MediumFrequencyTaskM1+0x7c>
    if ( TSK_ChargeBootCapDelayHasElapsedM1() )
 800130e:	f7ff ffbd 	bl	800128c <TSK_ChargeBootCapDelayHasElapsedM1>
 8001312:	2800      	cmp	r0, #0
 8001314:	d00e      	beq.n	8001334 <TSK_MediumFrequencyTaskM1+0x7c>
      PWMC_CurrentReadingCalibr( pwmcHandle[M1], CRC_START );
 8001316:	4b31      	ldr	r3, [pc, #196]	; (80013dc <TSK_MediumFrequencyTaskM1+0x124>)
 8001318:	2100      	movs	r1, #0
 800131a:	6818      	ldr	r0, [r3, #0]
 800131c:	f003 fe67 	bl	8004fee <PWMC_CurrentReadingCalibr>
      STM_NextState(&STM[M1],OFFSET_CALIB);
 8001320:	2111      	movs	r1, #17
 8001322:	e7f0      	b.n	8001306 <TSK_MediumFrequencyTaskM1+0x4e>
    if ( PWMC_CurrentReadingCalibr( pwmcHandle[M1], CRC_EXEC ) )
 8001324:	4b2d      	ldr	r3, [pc, #180]	; (80013dc <TSK_MediumFrequencyTaskM1+0x124>)
 8001326:	2101      	movs	r1, #1
 8001328:	6818      	ldr	r0, [r3, #0]
 800132a:	f003 fe60 	bl	8004fee <PWMC_CurrentReadingCalibr>
      STM_NextState( &STM[M1], CLEAR );
 800132e:	2112      	movs	r1, #18
    if ( PWMC_CurrentReadingCalibr( pwmcHandle[M1], CRC_EXEC ) )
 8001330:	2800      	cmp	r0, #0
 8001332:	d1e8      	bne.n	8001306 <TSK_MediumFrequencyTaskM1+0x4e>
}
 8001334:	bdf7      	pop	{r0, r1, r2, r4, r5, r6, r7, pc}
    HALL_Clear( &HALL_M1 );
 8001336:	0038      	movs	r0, r7
 8001338:	f003 f9a2 	bl	8004680 <HALL_Clear>
    if ( STM_NextState( &STM[M1], START ) == true )
 800133c:	2104      	movs	r1, #4
 800133e:	0020      	movs	r0, r4
 8001340:	f004 fb7a 	bl	8005a38 <STM_NextState>
 8001344:	2800      	cmp	r0, #0
 8001346:	d0f5      	beq.n	8001334 <TSK_MediumFrequencyTaskM1+0x7c>
      FOC_Clear( M1 );
 8001348:	2000      	movs	r0, #0
 800134a:	f7ff fe79 	bl	8001040 <FOC_Clear>
      R3_1_SwitchOnPWM( pwmcHandle[M1] );
 800134e:	4b23      	ldr	r3, [pc, #140]	; (80013dc <TSK_MediumFrequencyTaskM1+0x124>)
 8001350:	6818      	ldr	r0, [r3, #0]
 8001352:	f004 f83d 	bl	80053d0 <R3_1_SwitchOnPWM>
 8001356:	e7ed      	b.n	8001334 <TSK_MediumFrequencyTaskM1+0x7c>
        STM_NextState( &STM[M1], START_RUN ); /* only for sensored*/
 8001358:	2105      	movs	r1, #5
 800135a:	e7d4      	b.n	8001306 <TSK_MediumFrequencyTaskM1+0x4e>
	  FOC_InitAdditionalMethods(M1);
 800135c:	2000      	movs	r0, #0
 800135e:	f7ff ff77 	bl	8001250 <FOC_InitAdditionalMethods>
      FOC_CalcCurrRef( M1 );
 8001362:	2000      	movs	r0, #0
 8001364:	f7ff ff76 	bl	8001254 <FOC_CalcCurrRef>
      STM_NextState( &STM[M1], RUN );
 8001368:	2106      	movs	r1, #6
 800136a:	0020      	movs	r0, r4
 800136c:	f004 fb64 	bl	8005a38 <STM_NextState>
    STC_ForceSpeedReferenceToCurrentSpeed( pSTC[M1] ); /* Init the reference speed to current speed */
 8001370:	4b1b      	ldr	r3, [pc, #108]	; (80013e0 <TSK_MediumFrequencyTaskM1+0x128>)
 8001372:	6818      	ldr	r0, [r3, #0]
 8001374:	f004 fb3c 	bl	80059f0 <STC_ForceSpeedReferenceToCurrentSpeed>
    MCI_ExecBufferedCommands( oMCInterface[M1] ); /* Exec the speed ramp after changing of the speed sensor */
 8001378:	4b1a      	ldr	r3, [pc, #104]	; (80013e4 <TSK_MediumFrequencyTaskM1+0x12c>)
 800137a:	6818      	ldr	r0, [r3, #0]
 800137c:	f7ff fcc3 	bl	8000d06 <MCI_ExecBufferedCommands>
    break;
 8001380:	e7d8      	b.n	8001334 <TSK_MediumFrequencyTaskM1+0x7c>
    MCI_ExecBufferedCommands( oMCInterface[M1] );
 8001382:	4b18      	ldr	r3, [pc, #96]	; (80013e4 <TSK_MediumFrequencyTaskM1+0x12c>)
 8001384:	6818      	ldr	r0, [r3, #0]
 8001386:	f7ff fcbe 	bl	8000d06 <MCI_ExecBufferedCommands>
    FOC_CalcCurrRef( M1 );
 800138a:	2000      	movs	r0, #0
 800138c:	f7ff ff62 	bl	8001254 <FOC_CalcCurrRef>
    if( !IsSpeedReliable )
 8001390:	2d00      	cmp	r5, #0
 8001392:	d1cf      	bne.n	8001334 <TSK_MediumFrequencyTaskM1+0x7c>
      STM_FaultProcessing( &STM[M1], MC_SPEED_FDBK, 0 );
 8001394:	002a      	movs	r2, r5
 8001396:	2120      	movs	r1, #32
 8001398:	0020      	movs	r0, r4
 800139a:	f004 fb36 	bl	8005a0a <STM_FaultProcessing>
 800139e:	e7c9      	b.n	8001334 <TSK_MediumFrequencyTaskM1+0x7c>
    R3_1_SwitchOffPWM( pwmcHandle[M1] );
 80013a0:	4b0e      	ldr	r3, [pc, #56]	; (80013dc <TSK_MediumFrequencyTaskM1+0x124>)
 80013a2:	6818      	ldr	r0, [r3, #0]
 80013a4:	f004 f888 	bl	80054b8 <R3_1_SwitchOffPWM>
    FOC_Clear( M1 );
 80013a8:	2000      	movs	r0, #0
 80013aa:	f7ff fe49 	bl	8001040 <FOC_Clear>
    MPM_Clear( (MotorPowMeas_Handle_t*) pMPM[M1] );
 80013ae:	6830      	ldr	r0, [r6, #0]
 80013b0:	f003 fbef 	bl	8004b92 <MPM_Clear>
    TSK_SetStopPermanencyTimeM1( STOPPERMANENCY_TICKS );
 80013b4:	20c8      	movs	r0, #200	; 0xc8
 80013b6:	0080      	lsls	r0, r0, #2
 80013b8:	f7ff ff70 	bl	800129c <TSK_SetStopPermanencyTimeM1>
    STM_NextState( &STM[M1], STOP );
 80013bc:	2108      	movs	r1, #8
 80013be:	e7a2      	b.n	8001306 <TSK_MediumFrequencyTaskM1+0x4e>
    if ( TSK_StopPermanencyTimeHasElapsedM1() )
 80013c0:	f7ff ff72 	bl	80012a8 <TSK_StopPermanencyTimeHasElapsedM1>
      STM_NextState( &STM[M1], STOP_IDLE );
 80013c4:	2109      	movs	r1, #9
    if ( TSK_StopPermanencyTimeHasElapsedM1() )
 80013c6:	2800      	cmp	r0, #0
 80013c8:	d0b4      	beq.n	8001334 <TSK_MediumFrequencyTaskM1+0x7c>
 80013ca:	e79c      	b.n	8001306 <TSK_MediumFrequencyTaskM1+0x4e>
    STM_NextState( &STM[M1], IDLE );
 80013cc:	2100      	movs	r1, #0
 80013ce:	e79a      	b.n	8001306 <TSK_MediumFrequencyTaskM1+0x4e>
 80013d0:	200000f8 	.word	0x200000f8
 80013d4:	20000978 	.word	0x20000978
 80013d8:	2000095c 	.word	0x2000095c
 80013dc:	20000994 	.word	0x20000994
 80013e0:	2000098c 	.word	0x2000098c
 80013e4:	2000096c 	.word	0x2000096c

080013e8 <MC_Scheduler>:
{
 80013e8:	b570      	push	{r4, r5, r6, lr}
  if (bMCBootCompleted == 1)
 80013ea:	4b10      	ldr	r3, [pc, #64]	; (800142c <MC_Scheduler+0x44>)
 80013ec:	781d      	ldrb	r5, [r3, #0]
 80013ee:	2d01      	cmp	r5, #1
 80013f0:	d117      	bne.n	8001422 <MC_Scheduler+0x3a>
    if(hMFTaskCounterM1 > 0u)
 80013f2:	4c0f      	ldr	r4, [pc, #60]	; (8001430 <MC_Scheduler+0x48>)
 80013f4:	8823      	ldrh	r3, [r4, #0]
 80013f6:	2b00      	cmp	r3, #0
 80013f8:	d014      	beq.n	8001424 <MC_Scheduler+0x3c>
      hMFTaskCounterM1--;
 80013fa:	8823      	ldrh	r3, [r4, #0]
 80013fc:	3b01      	subs	r3, #1
 80013fe:	b29b      	uxth	r3, r3
 8001400:	8023      	strh	r3, [r4, #0]
    if(hBootCapDelayCounterM1 > 0u)
 8001402:	4a0c      	ldr	r2, [pc, #48]	; (8001434 <MC_Scheduler+0x4c>)
 8001404:	8813      	ldrh	r3, [r2, #0]
 8001406:	2b00      	cmp	r3, #0
 8001408:	d003      	beq.n	8001412 <MC_Scheduler+0x2a>
      hBootCapDelayCounterM1--;
 800140a:	8813      	ldrh	r3, [r2, #0]
 800140c:	3b01      	subs	r3, #1
 800140e:	b29b      	uxth	r3, r3
 8001410:	8013      	strh	r3, [r2, #0]
    if(hStopPermanencyCounterM1 > 0u)
 8001412:	4a09      	ldr	r2, [pc, #36]	; (8001438 <MC_Scheduler+0x50>)
 8001414:	8813      	ldrh	r3, [r2, #0]
 8001416:	2b00      	cmp	r3, #0
 8001418:	d003      	beq.n	8001422 <MC_Scheduler+0x3a>
      hStopPermanencyCounterM1--;
 800141a:	8813      	ldrh	r3, [r2, #0]
 800141c:	3b01      	subs	r3, #1
 800141e:	b29b      	uxth	r3, r3
 8001420:	8013      	strh	r3, [r2, #0]
}
 8001422:	bd70      	pop	{r4, r5, r6, pc}
      TSK_MediumFrequencyTaskM1();
 8001424:	f7ff ff48 	bl	80012b8 <TSK_MediumFrequencyTaskM1>
      hMFTaskCounterM1 = MF_TASK_OCCURENCE_TICKS;
 8001428:	8025      	strh	r5, [r4, #0]
 800142a:	e7ea      	b.n	8001402 <MC_Scheduler+0x1a>
 800142c:	20000962 	.word	0x20000962
 8001430:	20000966 	.word	0x20000966
 8001434:	20000964 	.word	0x20000964
 8001438:	20000968 	.word	0x20000968

0800143c <TSK_HighFrequencyTask>:
  * subsystem (see the state machine(s)).
  *
  * @retval Number of the  motor instance which FOC loop was executed.
  */
__weak uint8_t TSK_HighFrequencyTask(void)
{
 800143c:	b5f0      	push	{r4, r5, r6, r7, lr}
  /* USER CODE END HighFrequencyTask 0 */

  uint8_t bMotorNbr = 0;
  uint16_t hFOCreturn;

  HALL_CalcElAngle (&HALL_M1);
 800143e:	4839      	ldr	r0, [pc, #228]	; (8001524 <TSK_HighFrequencyTask+0xe8>)
{
 8001440:	b089      	sub	sp, #36	; 0x24
  HALL_CalcElAngle (&HALL_M1);
 8001442:	f003 f949 	bl	80046d8 <HALL_CalcElAngle>

  int16_t hElAngle;
  uint16_t hCodeError;
  SpeednPosFdbk_Handle_t *speedHandle;

  speedHandle = STC_GetSpeedSensor(pSTC[M1]);
 8001446:	4b38      	ldr	r3, [pc, #224]	; (8001528 <TSK_HighFrequencyTask+0xec>)
 8001448:	6818      	ldr	r0, [r3, #0]
 800144a:	f004 fa35 	bl	80058b8 <STC_GetSpeedSensor>
 800144e:	0006      	movs	r6, r0
  hElAngle = SPD_GetElAngle(speedHandle);
 8001450:	f004 f9de 	bl	8005810 <SPD_GetElAngle>
  PWMC_GetPhaseCurrents(pwmcHandle[M1], &Iab);
 8001454:	4f35      	ldr	r7, [pc, #212]	; (800152c <TSK_HighFrequencyTask+0xf0>)
  hElAngle = SPD_GetElAngle(speedHandle);
 8001456:	0005      	movs	r5, r0
  PWMC_GetPhaseCurrents(pwmcHandle[M1], &Iab);
 8001458:	a905      	add	r1, sp, #20
 800145a:	6838      	ldr	r0, [r7, #0]
 800145c:	f003 fcc7 	bl	8004dee <PWMC_GetPhaseCurrents>
  RCM_ExecNextConv();
 8001460:	f000 fcbc 	bl	8001ddc <RCM_ExecNextConv>
  Ialphabeta = MCM_Clarke(Iab);
 8001464:	9805      	ldr	r0, [sp, #20]
 8001466:	f7ff fd11 	bl	8000e8c <MCM_Clarke>
  Iqd = MCM_Park(Ialphabeta, hElAngle);
 800146a:	0029      	movs	r1, r5
  Ialphabeta = MCM_Clarke(Iab);
 800146c:	9006      	str	r0, [sp, #24]
  Iqd = MCM_Park(Ialphabeta, hElAngle);
 800146e:	f7ff fd7d 	bl	8000f6c <MCM_Park>
  Vqd.q = PI_Controller(pPIDIq[M1],
            (int32_t)(FOCVars[M1].Iqdref.q) - Iqd.q);
 8001472:	4c2f      	ldr	r4, [pc, #188]	; (8001530 <TSK_HighFrequencyTask+0xf4>)
  Iqd = MCM_Park(Ialphabeta, hElAngle);
 8001474:	9003      	str	r0, [sp, #12]
            (int32_t)(FOCVars[M1].Iqdref.q) - Iqd.q);
 8001476:	2310      	movs	r3, #16
 8001478:	5ee1      	ldrsh	r1, [r4, r3]
  Vqd.q = PI_Controller(pPIDIq[M1],
 800147a:	4b2e      	ldr	r3, [pc, #184]	; (8001534 <TSK_HighFrequencyTask+0xf8>)
            (int32_t)(FOCVars[M1].Iqdref.q) - Iqd.q);
 800147c:	b200      	sxth	r0, r0
  Vqd.q = PI_Controller(pPIDIq[M1],
 800147e:	1a09      	subs	r1, r1, r0
 8001480:	6818      	ldr	r0, [r3, #0]
 8001482:	f003 fc29 	bl	8004cd8 <PI_Controller>
 8001486:	9000      	str	r0, [sp, #0]

  Vqd.d = PI_Controller(pPIDId[M1],
            (int32_t)(FOCVars[M1].Iqdref.d) - Iqd.d);
 8001488:	2312      	movs	r3, #18
 800148a:	5ee1      	ldrsh	r1, [r4, r3]
 800148c:	ab02      	add	r3, sp, #8
 800148e:	2206      	movs	r2, #6
 8001490:	5e9b      	ldrsh	r3, [r3, r2]
  Vqd.d = PI_Controller(pPIDId[M1],
 8001492:	1ac9      	subs	r1, r1, r3
 8001494:	4b28      	ldr	r3, [pc, #160]	; (8001538 <TSK_HighFrequencyTask+0xfc>)
 8001496:	6818      	ldr	r0, [r3, #0]
 8001498:	f003 fc1e 	bl	8004cd8 <PI_Controller>

  Vqd = Circle_Limitation(pCLM[M1], Vqd);
 800149c:	4b27      	ldr	r3, [pc, #156]	; (800153c <TSK_HighFrequencyTask+0x100>)
 800149e:	9900      	ldr	r1, [sp, #0]
 80014a0:	681a      	ldr	r2, [r3, #0]
 80014a2:	ab04      	add	r3, sp, #16
 80014a4:	8058      	strh	r0, [r3, #2]
 80014a6:	8019      	strh	r1, [r3, #0]
 80014a8:	0010      	movs	r0, r2
 80014aa:	9904      	ldr	r1, [sp, #16]
 80014ac:	f002 ff8e 	bl	80043cc <Circle_Limitation>
 80014b0:	b203      	sxth	r3, r0
 80014b2:	9004      	str	r0, [sp, #16]
 80014b4:	9300      	str	r3, [sp, #0]
 80014b6:	1403      	asrs	r3, r0, #16
  hElAngle += SPD_GetInstElSpeedDpp(speedHandle)*REV_PARK_ANGLE_COMPENSATION_FACTOR;
 80014b8:	0030      	movs	r0, r6
  Vqd = Circle_Limitation(pCLM[M1], Vqd);
 80014ba:	9301      	str	r3, [sp, #4]
  hElAngle += SPD_GetInstElSpeedDpp(speedHandle)*REV_PARK_ANGLE_COMPENSATION_FACTOR;
 80014bc:	f004 f9ae 	bl	800581c <SPD_GetInstElSpeedDpp>
  Valphabeta = MCM_Rev_Park(Vqd, hElAngle);
 80014c0:	0029      	movs	r1, r5
 80014c2:	9804      	ldr	r0, [sp, #16]
 80014c4:	f7ff fd96 	bl	8000ff4 <MCM_Rev_Park>
 80014c8:	0001      	movs	r1, r0
 80014ca:	9007      	str	r0, [sp, #28]
  hCodeError = PWMC_SetPhaseVoltage(pwmcHandle[M1], Valphabeta);
 80014cc:	6838      	ldr	r0, [r7, #0]
 80014ce:	f003 fc92 	bl	8004df6 <PWMC_SetPhaseVoltage>
 80014d2:	0006      	movs	r6, r0
  RCM_ReadOngoingConv();
 80014d4:	f000 fcbe 	bl	8001e54 <RCM_ReadOngoingConv>
  FOCVars[M1].Vqd = Vqd;
 80014d8:	9b00      	ldr	r3, [sp, #0]
  FOCVars[M1].Iab = Iab;
 80014da:	2204      	movs	r2, #4
  FOCVars[M1].Vqd = Vqd;
 80014dc:	82e3      	strh	r3, [r4, #22]
 80014de:	9b01      	ldr	r3, [sp, #4]
  FOCVars[M1].Iab = Iab;
 80014e0:	a905      	add	r1, sp, #20
  FOCVars[M1].Vqd = Vqd;
 80014e2:	8323      	strh	r3, [r4, #24]
  FOCVars[M1].Iab = Iab;
 80014e4:	0020      	movs	r0, r4
 80014e6:	f004 fc87 	bl	8005df8 <memcpy>
  FOCVars[M1].Ialphabeta = Ialphabeta;
 80014ea:	2204      	movs	r2, #4
 80014ec:	a906      	add	r1, sp, #24
 80014ee:	1d20      	adds	r0, r4, #4
 80014f0:	f004 fc82 	bl	8005df8 <memcpy>
  FOCVars[M1].Iqd = Iqd;
 80014f4:	0020      	movs	r0, r4
 80014f6:	2204      	movs	r2, #4
 80014f8:	a903      	add	r1, sp, #12
 80014fa:	300c      	adds	r0, #12
 80014fc:	f004 fc7c 	bl	8005df8 <memcpy>
  FOCVars[M1].Valphabeta = Valphabeta;
 8001500:	0020      	movs	r0, r4
 8001502:	2204      	movs	r2, #4
 8001504:	301a      	adds	r0, #26
 8001506:	a907      	add	r1, sp, #28
 8001508:	f004 fc76 	bl	8005df8 <memcpy>
  FOCVars[M1].hElAngle = hElAngle;
 800150c:	8425      	strh	r5, [r4, #32]
  if(hFOCreturn == MC_FOC_DURATION)
 800150e:	2e01      	cmp	r6, #1
 8001510:	d104      	bne.n	800151c <TSK_HighFrequencyTask+0xe0>
    STM_FaultProcessing(&STM[M1], MC_FOC_DURATION, 0);
 8001512:	2200      	movs	r2, #0
 8001514:	0031      	movs	r1, r6
 8001516:	480a      	ldr	r0, [pc, #40]	; (8001540 <TSK_HighFrequencyTask+0x104>)
 8001518:	f004 fa77 	bl	8005a0a <STM_FaultProcessing>
}
 800151c:	2000      	movs	r0, #0
 800151e:	b009      	add	sp, #36	; 0x24
 8001520:	bdf0      	pop	{r4, r5, r6, r7, pc}
 8001522:	46c0      	nop			; (mov r8, r8)
 8001524:	200000f8 	.word	0x200000f8
 8001528:	2000098c 	.word	0x2000098c
 800152c:	20000994 	.word	0x20000994
 8001530:	200008c6 	.word	0x200008c6
 8001534:	20000980 	.word	0x20000980
 8001538:	2000097c 	.word	0x2000097c
 800153c:	20000974 	.word	0x20000974
 8001540:	2000095c 	.word	0x2000095c

08001544 <TSK_SafetyTask_PWMOFF>:
  * @param  bMotor Motor reference number defined
  *         \link Motors_reference_number here \endlink
  * @retval None
  */
__weak void TSK_SafetyTask_PWMOFF(uint8_t bMotor)
{
 8001544:	b5f8      	push	{r3, r4, r5, r6, r7, lr}
  /* USER CODE END TSK_SafetyTask_PWMOFF 0 */

  uint16_t CodeReturn = MC_NO_ERROR;
  uint16_t errMask[NBR_OF_MOTORS] = {VBUS_TEMP_ERR_MASK};

  CodeReturn |= errMask[bMotor] & NTC_CalcAvTemp(pTemperatureSensor[bMotor]); /* check for fault if FW protection is activated. It returns MC_OVER_TEMP or MC_NO_ERROR */
 8001546:	4b1d      	ldr	r3, [pc, #116]	; (80015bc <TSK_SafetyTask_PWMOFF+0x78>)
 8001548:	0086      	lsls	r6, r0, #2
{
 800154a:	0005      	movs	r5, r0
  CodeReturn |= errMask[bMotor] & NTC_CalcAvTemp(pTemperatureSensor[bMotor]); /* check for fault if FW protection is activated. It returns MC_OVER_TEMP or MC_NO_ERROR */
 800154c:	58f0      	ldr	r0, [r6, r3]
 800154e:	f003 fb73 	bl	8004c38 <NTC_CalcAvTemp>
  CodeReturn |= PWMC_CheckOverCurrent(pwmcHandle[bMotor]);                    /* check for fault. It return MC_BREAK_IN or MC_NO_FAULTS
 8001552:	4b1b      	ldr	r3, [pc, #108]	; (80015c0 <TSK_SafetyTask_PWMOFF+0x7c>)
  CodeReturn |= errMask[bMotor] & NTC_CalcAvTemp(pTemperatureSensor[bMotor]); /* check for fault if FW protection is activated. It returns MC_OVER_TEMP or MC_NO_ERROR */
 8001554:	0004      	movs	r4, r0
 8001556:	2708      	movs	r7, #8
  CodeReturn |= PWMC_CheckOverCurrent(pwmcHandle[bMotor]);                    /* check for fault. It return MC_BREAK_IN or MC_NO_FAULTS
 8001558:	58f0      	ldr	r0, [r6, r3]
 800155a:	f003 fd6b 	bl	8005034 <PWMC_CheckOverCurrent>
  CodeReturn |= errMask[bMotor] & NTC_CalcAvTemp(pTemperatureSensor[bMotor]); /* check for fault if FW protection is activated. It returns MC_OVER_TEMP or MC_NO_ERROR */
 800155e:	43bc      	bics	r4, r7
  CodeReturn |= PWMC_CheckOverCurrent(pwmcHandle[bMotor]);                    /* check for fault. It return MC_BREAK_IN or MC_NO_FAULTS
 8001560:	4304      	orrs	r4, r0
 8001562:	b2a4      	uxth	r4, r4
                                                                                 (for STM32F30x can return MC_OVER_VOLT in case of HW Overvoltage) */
  if(bMotor == M1)
 8001564:	2d00      	cmp	r5, #0
 8001566:	d106      	bne.n	8001576 <TSK_SafetyTask_PWMOFF+0x32>
  {
    CodeReturn |=  errMask[bMotor] &RVBS_CalcAvVbus(pBusSensorM1);
 8001568:	4b16      	ldr	r3, [pc, #88]	; (80015c4 <TSK_SafetyTask_PWMOFF+0x80>)
 800156a:	6818      	ldr	r0, [r3, #0]
 800156c:	f004 f912 	bl	8005794 <RVBS_CalcAvVbus>
 8001570:	43b8      	bics	r0, r7
 8001572:	4304      	orrs	r4, r0
 8001574:	b2a4      	uxth	r4, r4
  }

  STM_FaultProcessing(&STM[bMotor], CodeReturn, ~CodeReturn); /* Update the STM according error code */
 8001576:	2706      	movs	r7, #6
 8001578:	43e2      	mvns	r2, r4
 800157a:	436f      	muls	r7, r5
 800157c:	4b12      	ldr	r3, [pc, #72]	; (80015c8 <TSK_SafetyTask_PWMOFF+0x84>)
 800157e:	0021      	movs	r1, r4
 8001580:	19df      	adds	r7, r3, r7
 8001582:	0038      	movs	r0, r7
 8001584:	b292      	uxth	r2, r2
 8001586:	f004 fa40 	bl	8005a0a <STM_FaultProcessing>
  switch (STM_GetState(&STM[bMotor])) /* Acts on PWM outputs in case of faults */
 800158a:	0038      	movs	r0, r7
 800158c:	f004 facc 	bl	8005b28 <STM_GetState>
 8001590:	280a      	cmp	r0, #10
 8001592:	d002      	beq.n	800159a <TSK_SafetyTask_PWMOFF+0x56>
 8001594:	280b      	cmp	r0, #11
 8001596:	d00c      	beq.n	80015b2 <TSK_SafetyTask_PWMOFF+0x6e>
    break;
  }
  /* USER CODE BEGIN TSK_SafetyTask_PWMOFF 3 */

  /* USER CODE END TSK_SafetyTask_PWMOFF 3 */
}
 8001598:	bdf8      	pop	{r3, r4, r5, r6, r7, pc}
    PWMC_SwitchOffPWM(pwmcHandle[bMotor]);
 800159a:	4b09      	ldr	r3, [pc, #36]	; (80015c0 <TSK_SafetyTask_PWMOFF+0x7c>)
 800159c:	5998      	ldr	r0, [r3, r6]
 800159e:	f003 fd22 	bl	8004fe6 <PWMC_SwitchOffPWM>
    FOC_Clear(bMotor);
 80015a2:	0028      	movs	r0, r5
 80015a4:	f7ff fd4c 	bl	8001040 <FOC_Clear>
    MPM_Clear((MotorPowMeas_Handle_t*)pMPM[bMotor]);
 80015a8:	4b08      	ldr	r3, [pc, #32]	; (80015cc <TSK_SafetyTask_PWMOFF+0x88>)
 80015aa:	5998      	ldr	r0, [r3, r6]
 80015ac:	f003 faf1 	bl	8004b92 <MPM_Clear>
    break;
 80015b0:	e7f2      	b.n	8001598 <TSK_SafetyTask_PWMOFF+0x54>
    PWMC_SwitchOffPWM(pwmcHandle[bMotor]);
 80015b2:	4b03      	ldr	r3, [pc, #12]	; (80015c0 <TSK_SafetyTask_PWMOFF+0x7c>)
 80015b4:	5998      	ldr	r0, [r3, r6]
 80015b6:	f003 fd16 	bl	8004fe6 <PWMC_SwitchOffPWM>
}
 80015ba:	e7ed      	b.n	8001598 <TSK_SafetyTask_PWMOFF+0x54>
 80015bc:	20000990 	.word	0x20000990
 80015c0:	20000994 	.word	0x20000994
 80015c4:	20000970 	.word	0x20000970
 80015c8:	2000095c 	.word	0x2000095c
 80015cc:	20000978 	.word	0x20000978

080015d0 <TSK_SafetyTask>:
{
 80015d0:	b510      	push	{r4, lr}
  if (bMCBootCompleted == 1)
 80015d2:	4b05      	ldr	r3, [pc, #20]	; (80015e8 <TSK_SafetyTask+0x18>)
 80015d4:	781b      	ldrb	r3, [r3, #0]
 80015d6:	2b01      	cmp	r3, #1
 80015d8:	d104      	bne.n	80015e4 <TSK_SafetyTask+0x14>
    TSK_SafetyTask_PWMOFF(M1);
 80015da:	2000      	movs	r0, #0
 80015dc:	f7ff ffb2 	bl	8001544 <TSK_SafetyTask_PWMOFF>
    RCM_ExecUserConv ();
 80015e0:	f000 fbd0 	bl	8001d84 <RCM_ExecUserConv>
}
 80015e4:	bd10      	pop	{r4, pc}
 80015e6:	46c0      	nop			; (mov r8, r8)
 80015e8:	20000962 	.word	0x20000962

080015ec <MC_RunMotorControlTasks>:
{
 80015ec:	b510      	push	{r4, lr}
  if ( bMCBootCompleted ) {
 80015ee:	4b05      	ldr	r3, [pc, #20]	; (8001604 <MC_RunMotorControlTasks+0x18>)
 80015f0:	781b      	ldrb	r3, [r3, #0]
 80015f2:	2b00      	cmp	r3, #0
 80015f4:	d005      	beq.n	8001602 <MC_RunMotorControlTasks+0x16>
    MC_Scheduler();
 80015f6:	f7ff fef7 	bl	80013e8 <MC_Scheduler>
    TSK_SafetyTask();
 80015fa:	f7ff ffe9 	bl	80015d0 <TSK_SafetyTask>
    UI_Scheduler();
 80015fe:	f000 ff17 	bl	8002430 <UI_Scheduler>
}
 8001602:	bd10      	pop	{r4, pc}
 8001604:	20000962 	.word	0x20000962

08001608 <TSK_HardwareFaultTask>:
  *
  *  This function is to be executed when a general hardware failure has been detected
  * by the microcontroller and is used to put the system in safety condition.
  */
__weak void TSK_HardwareFaultTask(void)
{
 8001608:	b510      	push	{r4, lr}
  /* USER CODE BEGIN TSK_HardwareFaultTask 0 */

  /* USER CODE END TSK_HardwareFaultTask 0 */

  R3_1_SwitchOffPWM(pwmcHandle[M1]);
 800160a:	4b05      	ldr	r3, [pc, #20]	; (8001620 <TSK_HardwareFaultTask+0x18>)
 800160c:	6818      	ldr	r0, [r3, #0]
 800160e:	f003 ff53 	bl	80054b8 <R3_1_SwitchOffPWM>
  STM_FaultProcessing(&STM[M1], MC_SW_ERROR, 0);
 8001612:	2200      	movs	r2, #0
 8001614:	2180      	movs	r1, #128	; 0x80
 8001616:	4803      	ldr	r0, [pc, #12]	; (8001624 <TSK_HardwareFaultTask+0x1c>)
 8001618:	f004 f9f7 	bl	8005a0a <STM_FaultProcessing>
  /* USER CODE BEGIN TSK_HardwareFaultTask 1 */

  /* USER CODE END TSK_HardwareFaultTask 1 */
}
 800161c:	bd10      	pop	{r4, pc}
 800161e:	46c0      	nop			; (mov r8, r8)
 8001620:	20000994 	.word	0x20000994
 8001624:	2000095c 	.word	0x2000095c

08001628 <mc_lock_pins>:
 /**
  * @brief  Locks GPIO pins used for Motor Control to prevent accidental reconfiguration
  */
__weak void mc_lock_pins (void)
{
 8001628:	b570      	push	{r4, r5, r6, lr}
LL_GPIO_LockPin(M1_CURR_AMPL_W_GPIO_Port, M1_CURR_AMPL_W_Pin);
 800162a:	2490      	movs	r4, #144	; 0x90
 800162c:	05e4      	lsls	r4, r4, #23
 800162e:	0020      	movs	r0, r4
 8001630:	2108      	movs	r1, #8
LL_GPIO_LockPin(M1_CURR_AMPL_U_GPIO_Port, M1_CURR_AMPL_U_Pin);
LL_GPIO_LockPin(M1_CURR_AMPL_V_GPIO_Port, M1_CURR_AMPL_V_Pin);
LL_GPIO_LockPin(M1_BUS_VOLTAGE_GPIO_Port, M1_BUS_VOLTAGE_Pin);
 8001632:	4d1f      	ldr	r5, [pc, #124]	; (80016b0 <mc_lock_pins+0x88>)
LL_GPIO_LockPin(M1_CURR_AMPL_W_GPIO_Port, M1_CURR_AMPL_W_Pin);
 8001634:	f7ff fcf7 	bl	8001026 <LL_GPIO_LockPin>
LL_GPIO_LockPin(M1_CURR_AMPL_U_GPIO_Port, M1_CURR_AMPL_U_Pin);
 8001638:	0020      	movs	r0, r4
 800163a:	2120      	movs	r1, #32
 800163c:	f7ff fcf3 	bl	8001026 <LL_GPIO_LockPin>
LL_GPIO_LockPin(M1_CURR_AMPL_V_GPIO_Port, M1_CURR_AMPL_V_Pin);
 8001640:	0020      	movs	r0, r4
 8001642:	2110      	movs	r1, #16
 8001644:	f7ff fcef 	bl	8001026 <LL_GPIO_LockPin>
LL_GPIO_LockPin(M1_BUS_VOLTAGE_GPIO_Port, M1_BUS_VOLTAGE_Pin);
 8001648:	0028      	movs	r0, r5
 800164a:	2102      	movs	r1, #2
 800164c:	f7ff fceb 	bl	8001026 <LL_GPIO_LockPin>
LL_GPIO_LockPin(M1_HALL_H2_GPIO_Port, M1_HALL_H2_Pin);
 8001650:	0020      	movs	r0, r4
 8001652:	2102      	movs	r1, #2
 8001654:	f7ff fce7 	bl	8001026 <LL_GPIO_LockPin>
LL_GPIO_LockPin(M1_HALL_H3_GPIO_Port, M1_HALL_H3_Pin);
 8001658:	0020      	movs	r0, r4
 800165a:	2104      	movs	r1, #4
 800165c:	f7ff fce3 	bl	8001026 <LL_GPIO_LockPin>
LL_GPIO_LockPin(M1_HALL_H1_GPIO_Port, M1_HALL_H1_Pin);
 8001660:	0020      	movs	r0, r4
 8001662:	2101      	movs	r1, #1
 8001664:	f7ff fcdf 	bl	8001026 <LL_GPIO_LockPin>
LL_GPIO_LockPin(M1_PWM_UH_GPIO_Port, M1_PWM_UH_Pin);
 8001668:	2180      	movs	r1, #128	; 0x80
 800166a:	0020      	movs	r0, r4
 800166c:	0049      	lsls	r1, r1, #1
 800166e:	f7ff fcda 	bl	8001026 <LL_GPIO_LockPin>
LL_GPIO_LockPin(M1_PWM_VH_GPIO_Port, M1_PWM_VH_Pin);
 8001672:	2180      	movs	r1, #128	; 0x80
 8001674:	0020      	movs	r0, r4
 8001676:	0089      	lsls	r1, r1, #2
 8001678:	f7ff fcd5 	bl	8001026 <LL_GPIO_LockPin>
LL_GPIO_LockPin(M1_OCP_GPIO_Port, M1_OCP_Pin);
 800167c:	2180      	movs	r1, #128	; 0x80
 800167e:	0028      	movs	r0, r5
 8001680:	0149      	lsls	r1, r1, #5
 8001682:	f7ff fcd0 	bl	8001026 <LL_GPIO_LockPin>
LL_GPIO_LockPin(M1_PWM_VL_GPIO_Port, M1_PWM_VL_Pin);
 8001686:	2180      	movs	r1, #128	; 0x80
 8001688:	0028      	movs	r0, r5
 800168a:	01c9      	lsls	r1, r1, #7
 800168c:	f7ff fccb 	bl	8001026 <LL_GPIO_LockPin>
LL_GPIO_LockPin(M1_PWM_WH_GPIO_Port, M1_PWM_WH_Pin);
 8001690:	2180      	movs	r1, #128	; 0x80
 8001692:	0020      	movs	r0, r4
 8001694:	00c9      	lsls	r1, r1, #3
 8001696:	f7ff fcc6 	bl	8001026 <LL_GPIO_LockPin>
LL_GPIO_LockPin(M1_PWM_WL_GPIO_Port, M1_PWM_WL_Pin);
 800169a:	2180      	movs	r1, #128	; 0x80
 800169c:	0028      	movs	r0, r5
 800169e:	0209      	lsls	r1, r1, #8
 80016a0:	f7ff fcc1 	bl	8001026 <LL_GPIO_LockPin>
LL_GPIO_LockPin(M1_PWM_UL_GPIO_Port, M1_PWM_UL_Pin);
 80016a4:	2180      	movs	r1, #128	; 0x80
 80016a6:	0028      	movs	r0, r5
 80016a8:	0189      	lsls	r1, r1, #6
 80016aa:	f7ff fcbc 	bl	8001026 <LL_GPIO_LockPin>
}
 80016ae:	bd70      	pop	{r4, r5, r6, pc}
 80016b0:	48000400 	.word	0x48000400

080016b4 <MCP_ReceivedFrame>:
* @param  Code code value of frame to send.
* @param  buffer frame data buffer.
* @param  Size size of data frame.
*/
__weak void MCP_ReceivedFrame(MCP_Handle_t *pHandle, uint8_t Code, uint8_t *buffer, uint8_t Size)
{
 80016b4:	b5f0      	push	{r4, r5, r6, r7, lr}
  bool RequireAck = true;
  bool bNoError = false; // Default is error
 80016b6:	2609      	movs	r6, #9
{
 80016b8:	b08f      	sub	sp, #60	; 0x3c
 80016ba:	9303      	str	r3, [sp, #12]
  bool bNoError = false; // Default is error
 80016bc:	ab02      	add	r3, sp, #8
 80016be:	18f6      	adds	r6, r6, r3
 80016c0:	2300      	movs	r3, #0
{
 80016c2:	0004      	movs	r4, r0
  bool bNoError = false; // Default is error
 80016c4:	7033      	strb	r3, [r6, #0]
{
 80016c6:	000f      	movs	r7, r1
 80016c8:	0015      	movs	r5, r2
  uint8_t bErrorCode;

  /* Protocol version >3.3 motor selection inside Frame ID */
  uint8_t bMotorSelection = (Code & 0xE0) >> 5; /* Mask: 1110|0000 */
 80016ca:	094b      	lsrs	r3, r1, #5
  if (bMotorSelection != 0)
 80016cc:	d012      	beq.n	80016f4 <MCP_ReceivedFrame+0x40>
  {
    if (UI_SetReg(&pHandle->_Super, MC_PROTOCOL_REG_TARGET_MOTOR, bMotorSelection - 1))
 80016ce:	3b01      	subs	r3, #1
 80016d0:	001a      	movs	r2, r3
 80016d2:	2100      	movs	r1, #0
 80016d4:	9302      	str	r3, [sp, #8]
 80016d6:	f000 ff04 	bl	80024e2 <UI_SetReg>
 80016da:	2800      	cmp	r0, #0
 80016dc:	d023      	beq.n	8001726 <MCP_ReceivedFrame+0x72>
    {
      Code &= 0x1F; /* Mask: 0001|1111 */
 80016de:	231f      	movs	r3, #31
 80016e0:	401f      	ands	r7, r3

      /* Change also the DAC selected motor */
      if (pHandle->pDAC)
 80016e2:	0023      	movs	r3, r4
 80016e4:	33c4      	adds	r3, #196	; 0xc4
 80016e6:	6818      	ldr	r0, [r3, #0]
 80016e8:	2800      	cmp	r0, #0
 80016ea:	d003      	beq.n	80016f4 <MCP_ReceivedFrame+0x40>
      {
        UI_SetReg(&pHandle->pDAC->_Super, MC_PROTOCOL_REG_TARGET_MOTOR, bMotorSelection - 1);
 80016ec:	2100      	movs	r1, #0
 80016ee:	9a02      	ldr	r2, [sp, #8]
 80016f0:	f000 fef7 	bl	80024e2 <UI_SetReg>
      Code = MC_PROTOCOL_CODE_NONE; /* Error */
      bErrorCode = ERROR_BAD_MOTOR_SELECTED;
    }
  }

  switch (Code)
 80016f4:	2f12      	cmp	r7, #18
 80016f6:	d900      	bls.n	80016fa <MCP_ReceivedFrame+0x46>
 80016f8:	e203      	b.n	8001b02 <MCP_ReceivedFrame+0x44e>
 80016fa:	0038      	movs	r0, r7
 80016fc:	f7fe fd22 	bl	8000144 <__gnu_thumb1_case_uhi>
 8001700:	002a0094 	.word	0x002a0094
 8001704:	013e00a6 	.word	0x013e00a6
 8001708:	02010201 	.word	0x02010201
 800170c:	016c0148 	.word	0x016c0148
 8001710:	01b6018d 	.word	0x01b6018d
 8001714:	01e201d4 	.word	0x01e201d4
 8001718:	017f0019 	.word	0x017f0019
 800171c:	02010201 	.word	0x02010201
 8001720:	02010201 	.word	0x02010201
 8001724:	0094      	.short	0x0094
      bErrorCode = ERROR_BAD_MOTOR_SELECTED;
 8001726:	230e      	movs	r3, #14
 8001728:	aa02      	add	r2, sp, #8
 800172a:	189b      	adds	r3, r3, r2
 800172c:	220b      	movs	r2, #11
    }
    break;

  default:
    {
      bErrorCode = ERROR_BAD_FRAME_ID;
 800172e:	701a      	strb	r2, [r3, #0]
    }
    break;
  }

  if (RequireAck)
 8001730:	e07a      	b.n	8001828 <MCP_ReceivedFrame+0x174>
      for (i = 0; (i<32) && (pHandle->s_fwVer[i]!=0); i++)
 8001732:	0023      	movs	r3, r4
 8001734:	2000      	movs	r0, #0
 8001736:	33c0      	adds	r3, #192	; 0xc0
 8001738:	681a      	ldr	r2, [r3, #0]
 800173a:	ad06      	add	r5, sp, #24
 800173c:	5c11      	ldrb	r1, [r2, r0]
 800173e:	b2c3      	uxtb	r3, r0
 8001740:	2900      	cmp	r1, #0
 8001742:	d000      	beq.n	8001746 <MCP_ReceivedFrame+0x92>
 8001744:	e1d7      	b.n	8001af6 <MCP_ReceivedFrame+0x442>
        outBuff[i] = 0;
 8001746:	2220      	movs	r2, #32
 8001748:	1ad2      	subs	r2, r2, r3
 800174a:	b2d2      	uxtb	r2, r2
 800174c:	1828      	adds	r0, r5, r0
 800174e:	f004 fb5c 	bl	8005e0a <memset>
 8001752:	e137      	b.n	80019c4 <MCP_ReceivedFrame+0x310>
      bErrorCode = ERROR_CODE_WRONG_SET;
 8001754:	220e      	movs	r2, #14
 8001756:	ab02      	add	r3, sp, #8
 8001758:	18d2      	adds	r2, r2, r3
 800175a:	2305      	movs	r3, #5
      MC_Protocol_REG_t bRegID = (MC_Protocol_REG_t)buffer[0];
 800175c:	7829      	ldrb	r1, [r5, #0]
      bErrorCode = ERROR_CODE_WRONG_SET;
 800175e:	7013      	strb	r3, [r2, #0]
      switch (bRegID)
 8001760:	291d      	cmp	r1, #29
 8001762:	d935      	bls.n	80017d0 <MCP_ReceivedFrame+0x11c>
 8001764:	2988      	cmp	r1, #136	; 0x88
 8001766:	d80b      	bhi.n	8001780 <MCP_ReceivedFrame+0xcc>
 8001768:	2973      	cmp	r1, #115	; 0x73
 800176a:	d80c      	bhi.n	8001786 <MCP_ReceivedFrame+0xd2>
 800176c:	2965      	cmp	r1, #101	; 0x65
 800176e:	d807      	bhi.n	8001780 <MCP_ReceivedFrame+0xcc>
 8001770:	294e      	cmp	r1, #78	; 0x4e
 8001772:	d819      	bhi.n	80017a8 <MCP_ReceivedFrame+0xf4>
 8001774:	2941      	cmp	r1, #65	; 0x41
 8001776:	d064      	beq.n	8001842 <MCP_ReceivedFrame+0x18e>
 8001778:	000b      	movs	r3, r1
 800177a:	3b46      	subs	r3, #70	; 0x46
 800177c:	2b02      	cmp	r3, #2
 800177e:	d91d      	bls.n	80017bc <MCP_ReceivedFrame+0x108>
          bErrorCode = ERROR_CODE_SET_READ_ONLY;
 8001780:	2302      	movs	r3, #2
 8001782:	7013      	strb	r3, [r2, #0]
  if (RequireAck)
 8001784:	e050      	b.n	8001828 <MCP_ReceivedFrame+0x174>
 8001786:	0008      	movs	r0, r1
 8001788:	3874      	subs	r0, #116	; 0x74
 800178a:	2814      	cmp	r0, #20
 800178c:	d8f8      	bhi.n	8001780 <MCP_ReceivedFrame+0xcc>
 800178e:	f7fe fcbb 	bl	8000108 <__gnu_thumb1_case_sqi>
 8001792:	1540      	.short	0x1540
 8001794:	15151515 	.word	0x15151515
 8001798:	15f7f7f7 	.word	0x15f7f7f7
 800179c:	f7f7f715 	.word	0xf7f7f715
 80017a0:	f7f7f7f7 	.word	0xf7f7f7f7
 80017a4:	5858      	.short	0x5858
 80017a6:	58          	.byte	0x58
 80017a7:	00          	.byte	0x00
 80017a8:	0008      	movs	r0, r1
 80017aa:	2301      	movs	r3, #1
 80017ac:	384f      	subs	r0, #79	; 0x4f
 80017ae:	b2c0      	uxtb	r0, r0
 80017b0:	4083      	lsls	r3, r0
 80017b2:	4871      	ldr	r0, [pc, #452]	; (8001978 <MCP_ReceivedFrame+0x2c4>)
 80017b4:	4203      	tst	r3, r0
 80017b6:	d144      	bne.n	8001842 <MCP_ReceivedFrame+0x18e>
 80017b8:	04db      	lsls	r3, r3, #19
 80017ba:	d5e1      	bpl.n	8001780 <MCP_ReceivedFrame+0xcc>
          int32_t wValue = buffer[1] + (buffer[2] << 8) + (buffer[3] << 16) + (buffer[4] << 24);
 80017bc:	78aa      	ldrb	r2, [r5, #2]
 80017be:	786b      	ldrb	r3, [r5, #1]
 80017c0:	0212      	lsls	r2, r2, #8
 80017c2:	18d2      	adds	r2, r2, r3
 80017c4:	78eb      	ldrb	r3, [r5, #3]
 80017c6:	041b      	lsls	r3, r3, #16
 80017c8:	18d2      	adds	r2, r2, r3
 80017ca:	792b      	ldrb	r3, [r5, #4]
 80017cc:	061b      	lsls	r3, r3, #24
 80017ce:	e03b      	b.n	8001848 <MCP_ReceivedFrame+0x194>
 80017d0:	0008      	movs	r0, r1
 80017d2:	f7fe fc99 	bl	8000108 <__gnu_thumb1_case_sqi>
 80017d6:	d50f      	.short	0xd50f
 80017d8:	36d51ed5 	.word	0x36d51ed5
 80017dc:	36363636 	.word	0x36363636
 80017e0:	36363636 	.word	0x36363636
 80017e4:	f3f33636 	.word	0xf3f33636
 80017e8:	3636d5d5 	.word	0x3636d5d5
 80017ec:	d5363636 	.word	0xd5363636
 80017f0:	3320d5d5 	.word	0x3320d5d5
          UI_SetReg(&pHandle->pDAC->_Super, bRegID, wValue);
 80017f4:	0023      	movs	r3, r4
          int32_t wValue = (int32_t)(buffer[1]);
 80017f6:	786d      	ldrb	r5, [r5, #1]
          UI_SetReg(&pHandle->pDAC->_Super, bRegID, wValue);
 80017f8:	33c4      	adds	r3, #196	; 0xc4
 80017fa:	002a      	movs	r2, r5
 80017fc:	2100      	movs	r1, #0
 80017fe:	6818      	ldr	r0, [r3, #0]
 8001800:	f000 fe6f 	bl	80024e2 <UI_SetReg>
          bNoError = UI_SetReg(&pHandle->_Super, bRegID, wValue);
 8001804:	002a      	movs	r2, r5
 8001806:	2100      	movs	r1, #0
          bNoError = UI_SetReg(&pHandle->_Super, bRegID, wValue);
 8001808:	0020      	movs	r0, r4
 800180a:	f000 fe6a 	bl	80024e2 <UI_SetReg>
 800180e:	7030      	strb	r0, [r6, #0]
  if (RequireAck)
 8001810:	e00a      	b.n	8001828 <MCP_ReceivedFrame+0x174>
          bNoError = UI_SetReg(&pHandle->_Super, bRegID, (int32_t)(buffer[1]));
 8001812:	786a      	ldrb	r2, [r5, #1]
 8001814:	e7f8      	b.n	8001808 <MCP_ReceivedFrame+0x154>
          UI_SetDAC(&pHandle->pDAC->_Super, DAC_CH0, (MC_Protocol_REG_t)(buffer[1]));
 8001816:	2100      	movs	r1, #0
 8001818:	786a      	ldrb	r2, [r5, #1]
          UI_SetDAC(&pHandle->pDAC->_Super, DAC_CH1, (MC_Protocol_REG_t)(buffer[1]));
 800181a:	0023      	movs	r3, r4
 800181c:	33c4      	adds	r3, #196	; 0xc4
 800181e:	6818      	ldr	r0, [r3, #0]
 8001820:	f000 ff96 	bl	8002750 <UI_SetDAC>
          bNoError = true; /* No check inside class return always true*/
 8001824:	2301      	movs	r3, #1
 8001826:	7033      	strb	r3, [r6, #0]
  {
    if (bNoError)
 8001828:	7833      	ldrb	r3, [r6, #0]
    {
      pHandle->fFcpSend(pHandle->pFCP, ACK_NOERROR, MC_NULL, 0);
 800182a:	6b65      	ldr	r5, [r4, #52]	; 0x34
 800182c:	6b20      	ldr	r0, [r4, #48]	; 0x30
    if (bNoError)
 800182e:	2b00      	cmp	r3, #0
 8001830:	d100      	bne.n	8001834 <MCP_ReceivedFrame+0x180>
 8001832:	e16b      	b.n	8001b0c <MCP_ReceivedFrame+0x458>
      pHandle->fFcpSend(pHandle->pFCP, ACK_NOERROR, MC_NULL, 0);
 8001834:	2300      	movs	r3, #0
 8001836:	21f0      	movs	r1, #240	; 0xf0
 8001838:	001a      	movs	r2, r3
 800183a:	e071      	b.n	8001920 <MCP_ReceivedFrame+0x26c>
          UI_SetDAC(&pHandle->pDAC->_Super, DAC_CH1, (MC_Protocol_REG_t)(buffer[1]));
 800183c:	2101      	movs	r1, #1
 800183e:	786a      	ldrb	r2, [r5, #1]
 8001840:	e7eb      	b.n	800181a <MCP_ReceivedFrame+0x166>
          int32_t wValue = buffer[1] + (buffer[2] << 8);
 8001842:	78aa      	ldrb	r2, [r5, #2]
 8001844:	786b      	ldrb	r3, [r5, #1]
 8001846:	0212      	lsls	r2, r2, #8
 8001848:	18d2      	adds	r2, r2, r3
 800184a:	e7dd      	b.n	8001808 <MCP_ReceivedFrame+0x154>
      bErrorCode = ERROR_CODE_GET_WRITE_ONLY;
 800184c:	230e      	movs	r3, #14
 800184e:	aa02      	add	r2, sp, #8
 8001850:	189b      	adds	r3, r3, r2
 8001852:	2203      	movs	r2, #3
      MC_Protocol_REG_t bRegID = (MC_Protocol_REG_t)buffer[0];
 8001854:	7829      	ldrb	r1, [r5, #0]
      bErrorCode = ERROR_CODE_GET_WRITE_ONLY;
 8001856:	701a      	strb	r2, [r3, #0]
      switch (bRegID)
 8001858:	2988      	cmp	r1, #136	; 0x88
 800185a:	d8e5      	bhi.n	8001828 <MCP_ReceivedFrame+0x174>
 800185c:	0008      	movs	r0, r1
 800185e:	f7fe fc53 	bl	8000108 <__gnu_thumb1_case_sqi>
 8001862:	7e45      	.short	0x7e45
 8001864:	727e4545 	.word	0x727e4545
 8001868:	72727272 	.word	0x72727272
 800186c:	72727272 	.word	0x72727272
 8001870:	72727272 	.word	0x72727272
 8001874:	72727272 	.word	0x72727272
 8001878:	72727272 	.word	0x72727272
 800187c:	61517272 	.word	0x61517272
 8001880:	7272727e 	.word	0x7272727e
 8001884:	e3e3e345 	.word	0xe3e3e345
 8001888:	e3e3e3e3 	.word	0xe3e3e3e3
 800188c:	e3e3e3e3 	.word	0xe3e3e3e3
 8001890:	e3e3e3e3 	.word	0xe3e3e3e3
 8001894:	e3e3e3e3 	.word	0xe3e3e3e3
 8001898:	e3e3e3e3 	.word	0xe3e3e3e3
 800189c:	e3e3e3e3 	.word	0xe3e3e3e3
 80018a0:	72e3e3e3 	.word	0x72e3e3e3
 80018a4:	e3e3e3e3 	.word	0xe3e3e3e3
 80018a8:	727e7e7e 	.word	0x727e7e7e
 80018ac:	45727272 	.word	0x45727272
 80018b0:	7272727e 	.word	0x7272727e
 80018b4:	72727272 	.word	0x72727272
 80018b8:	72727272 	.word	0x72727272
 80018bc:	72e37e45 	.word	0x72e37e45
 80018c0:	72727272 	.word	0x72727272
 80018c4:	7272e3e3 	.word	0x7272e3e3
 80018c8:	7e7e4545 	.word	0x7e7e4545
 80018cc:	457e7e7e 	.word	0x457e7e7e
 80018d0:	e37e7272 	.word	0xe37e7272
 80018d4:	7e457272 	.word	0x7e457272
 80018d8:	7e7e7e7e 	.word	0x7e7e7e7e
 80018dc:	7e7e7e7e 	.word	0x7e7e7e7e
 80018e0:	e3457e7e 	.word	0xe3457e7e
 80018e4:	7e7e7e45 	.word	0x7e7e7e45
 80018e8:	7272      	.short	0x7272
 80018ea:	72          	.byte	0x72
 80018eb:	00          	.byte	0x00
          int32_t value = UI_GetReg( &pHandle->_Super, bRegID, &bNoError );
 80018ec:	0032      	movs	r2, r6
 80018ee:	0020      	movs	r0, r4
 80018f0:	f000 ff3e 	bl	8002770 <UI_GetReg>
           if ( bNoError == true )
 80018f4:	7833      	ldrb	r3, [r6, #0]
          int32_t value = UI_GetReg( &pHandle->_Super, bRegID, &bNoError );
 80018f6:	9006      	str	r0, [sp, #24]
           if ( bNoError == true )
 80018f8:	2b00      	cmp	r3, #0
 80018fa:	d095      	beq.n	8001828 <MCP_ReceivedFrame+0x174>
            pHandle->fFcpSend(pHandle->pFCP, ACK_NOERROR, (uint8_t*)(&value), 1);
 80018fc:	2301      	movs	r3, #1
 80018fe:	6b65      	ldr	r5, [r4, #52]	; 0x34
            pHandle->fFcpSend(pHandle->pFCP, ACK_NOERROR, (uint8_t*)(&value), 4);
 8001900:	aa06      	add	r2, sp, #24
 8001902:	e00b      	b.n	800191c <MCP_ReceivedFrame+0x268>
          if (pHandle->pDAC)
 8001904:	0023      	movs	r3, r4
 8001906:	33c4      	adds	r3, #196	; 0xc4
 8001908:	6818      	ldr	r0, [r3, #0]
 800190a:	2800      	cmp	r0, #0
 800190c:	d08c      	beq.n	8001828 <MCP_ReceivedFrame+0x174>
            MC_Protocol_REG_t value = UI_GetDAC(&pHandle->pDAC->_Super, DAC_CH0);
 800190e:	2100      	movs	r1, #0
 8001910:	f000 ff24 	bl	800275c <UI_GetDAC>
            pHandle->fFcpSend(pHandle->pFCP, ACK_NOERROR, (uint8_t*)(&value), 1);
 8001914:	2301      	movs	r3, #1
            MC_Protocol_REG_t value = UI_GetDAC(&pHandle->pDAC->_Super, DAC_CH0);
 8001916:	aa06      	add	r2, sp, #24
            pHandle->fFcpSend(pHandle->pFCP, ACK_NOERROR, (uint8_t*)(&value), 1);
 8001918:	6b65      	ldr	r5, [r4, #52]	; 0x34
            MC_Protocol_REG_t value = UI_GetDAC(&pHandle->pDAC->_Super, DAC_CH0);
 800191a:	7010      	strb	r0, [r2, #0]
            pHandle->fFcpSend(pHandle->pFCP, ACK_NOERROR, (uint8_t*)(&value), 4);
 800191c:	21f0      	movs	r1, #240	; 0xf0
 800191e:	6b20      	ldr	r0, [r4, #48]	; 0x30
    }
    else
    {
      pHandle->fFcpSend(pHandle->pFCP, ACK_ERROR, &bErrorCode, 1);
 8001920:	47a8      	blx	r5
    }
  }
}
 8001922:	e0e6      	b.n	8001af2 <MCP_ReceivedFrame+0x43e>
          if (pHandle->pDAC)
 8001924:	0023      	movs	r3, r4
 8001926:	33c4      	adds	r3, #196	; 0xc4
 8001928:	6818      	ldr	r0, [r3, #0]
 800192a:	2800      	cmp	r0, #0
 800192c:	d100      	bne.n	8001930 <MCP_ReceivedFrame+0x27c>
 800192e:	e77b      	b.n	8001828 <MCP_ReceivedFrame+0x174>
            MC_Protocol_REG_t value = UI_GetDAC(&pHandle->pDAC->_Super, DAC_CH1);
 8001930:	2101      	movs	r1, #1
 8001932:	f000 ff13 	bl	800275c <UI_GetDAC>
            pHandle->fFcpSend(pHandle->pFCP, ACK_NOERROR, (uint8_t*)(&value), 1);
 8001936:	2301      	movs	r3, #1
            MC_Protocol_REG_t value = UI_GetDAC(&pHandle->pDAC->_Super, DAC_CH1);
 8001938:	aa06      	add	r2, sp, #24
 800193a:	7010      	strb	r0, [r2, #0]
      pHandle->fFcpSend(pHandle->pFCP, ACK_NOERROR, outBuff, 32 );
 800193c:	21f0      	movs	r1, #240	; 0xf0
 800193e:	6b20      	ldr	r0, [r4, #48]	; 0x30
 8001940:	6b65      	ldr	r5, [r4, #52]	; 0x34
 8001942:	47a8      	blx	r5
      bNoError = true;
 8001944:	e76e      	b.n	8001824 <MCP_ReceivedFrame+0x170>
          int32_t value = UI_GetReg( &pHandle->_Super, bRegID, &bNoError );
 8001946:	0032      	movs	r2, r6
 8001948:	0020      	movs	r0, r4
 800194a:	f000 ff11 	bl	8002770 <UI_GetReg>
          if ( bNoError == true )
 800194e:	7833      	ldrb	r3, [r6, #0]
          int32_t value = UI_GetReg( &pHandle->_Super, bRegID, &bNoError );
 8001950:	9006      	str	r0, [sp, #24]
          if ( bNoError == true )
 8001952:	2b00      	cmp	r3, #0
 8001954:	d100      	bne.n	8001958 <MCP_ReceivedFrame+0x2a4>
 8001956:	e767      	b.n	8001828 <MCP_ReceivedFrame+0x174>
            pHandle->fFcpSend(pHandle->pFCP, ACK_NOERROR, (uint8_t*)(&value), 2);
 8001958:	2302      	movs	r3, #2
 800195a:	6b65      	ldr	r5, [r4, #52]	; 0x34
 800195c:	e7d0      	b.n	8001900 <MCP_ReceivedFrame+0x24c>
          int32_t value = UI_GetReg( &pHandle->_Super, bRegID, &bNoError);
 800195e:	0032      	movs	r2, r6
 8001960:	0020      	movs	r0, r4
 8001962:	f000 ff05 	bl	8002770 <UI_GetReg>
          if ( bNoError == true )
 8001966:	7833      	ldrb	r3, [r6, #0]
          int32_t value = UI_GetReg( &pHandle->_Super, bRegID, &bNoError);
 8001968:	9006      	str	r0, [sp, #24]
          if ( bNoError == true )
 800196a:	2b00      	cmp	r3, #0
 800196c:	d100      	bne.n	8001970 <MCP_ReceivedFrame+0x2bc>
 800196e:	e75b      	b.n	8001828 <MCP_ReceivedFrame+0x174>
            pHandle->fFcpSend(pHandle->pFCP, ACK_NOERROR, (uint8_t*)(&value), 4);
 8001970:	2304      	movs	r3, #4
 8001972:	6b65      	ldr	r5, [r4, #52]	; 0x34
 8001974:	e7c4      	b.n	8001900 <MCP_ReceivedFrame+0x24c>
 8001976:	46c0      	nop			; (mov r8, r8)
 8001978:	006407f1 	.word	0x006407f1
      bErrorCode = ERROR_CODE_WRONG_CMD;
 800197c:	230e      	movs	r3, #14
 800197e:	aa02      	add	r2, sp, #8
 8001980:	189b      	adds	r3, r3, r2
 8001982:	2207      	movs	r2, #7
      bNoError = UI_ExecCmd(&pHandle->_Super,bCmdID);
 8001984:	0020      	movs	r0, r4
      uint8_t bCmdID = buffer[0];
 8001986:	7829      	ldrb	r1, [r5, #0]
      bErrorCode = ERROR_CODE_WRONG_CMD;
 8001988:	701a      	strb	r2, [r3, #0]
      bNoError = UI_ExecCmd(&pHandle->_Super,bCmdID);
 800198a:	f000 fe2a 	bl	80025e2 <UI_ExecCmd>
 800198e:	e73e      	b.n	800180e <MCP_ReceivedFrame+0x15a>
        outBuff[i] = 0;
 8001990:	ad06      	add	r5, sp, #24
 8001992:	2220      	movs	r2, #32
 8001994:	2100      	movs	r1, #0
 8001996:	0028      	movs	r0, r5
 8001998:	f004 fa37 	bl	8005e0a <memset>
      for (i = 0; (i<29) && (pHandle->s_fwVer[i]!='\t'); i++)
 800199c:	0023      	movs	r3, r4
 800199e:	2200      	movs	r2, #0
 80019a0:	33c0      	adds	r3, #192	; 0xc0
 80019a2:	6819      	ldr	r1, [r3, #0]
 80019a4:	5c88      	ldrb	r0, [r1, r2]
 80019a6:	b2d3      	uxtb	r3, r2
 80019a8:	2809      	cmp	r0, #9
 80019aa:	d10e      	bne.n	80019ca <MCP_ReceivedFrame+0x316>
      outBuff[0] = pHandle->s_fwVer[i+5];
 80019ac:	1d5a      	adds	r2, r3, #5
 80019ae:	b2d2      	uxtb	r2, r2
 80019b0:	5c8a      	ldrb	r2, [r1, r2]
 80019b2:	702a      	strb	r2, [r5, #0]
      outBuff[1] = pHandle->s_fwVer[i+7];
 80019b4:	1dda      	adds	r2, r3, #7
 80019b6:	b2d2      	uxtb	r2, r2
 80019b8:	5c8a      	ldrb	r2, [r1, r2]
      outBuff[2] = pHandle->s_fwVer[i+9];
 80019ba:	3309      	adds	r3, #9
      outBuff[1] = pHandle->s_fwVer[i+7];
 80019bc:	706a      	strb	r2, [r5, #1]
      outBuff[2] = pHandle->s_fwVer[i+9];
 80019be:	b2db      	uxtb	r3, r3
 80019c0:	5ccb      	ldrb	r3, [r1, r3]
 80019c2:	70ab      	strb	r3, [r5, #2]
      pHandle->fFcpSend(pHandle->pFCP, ACK_NOERROR, outBuff, 32 );
 80019c4:	2320      	movs	r3, #32
 80019c6:	002a      	movs	r2, r5
 80019c8:	e7b8      	b.n	800193c <MCP_ReceivedFrame+0x288>
        outBuff[3+i] = pHandle->s_fwVer[i];
 80019ca:	18ab      	adds	r3, r5, r2
      for (i = 0; (i<29) && (pHandle->s_fwVer[i]!='\t'); i++)
 80019cc:	3201      	adds	r2, #1
        outBuff[3+i] = pHandle->s_fwVer[i];
 80019ce:	70d8      	strb	r0, [r3, #3]
      for (i = 0; (i<29) && (pHandle->s_fwVer[i]!='\t'); i++)
 80019d0:	2a1d      	cmp	r2, #29
 80019d2:	d1e7      	bne.n	80019a4 <MCP_ReceivedFrame+0x2f0>
 80019d4:	0013      	movs	r3, r2
 80019d6:	e7e9      	b.n	80019ac <MCP_ReceivedFrame+0x2f8>
      uint16_t duration = buffer[4] + (buffer[5] << 8);
 80019d8:	796b      	ldrb	r3, [r5, #5]
 80019da:	792a      	ldrb	r2, [r5, #4]
      int32_t rpm = buffer[0] + (buffer[1] << 8) + (buffer[2] << 16) + (buffer[3] << 24);
 80019dc:	7869      	ldrb	r1, [r5, #1]
      uint16_t duration = buffer[4] + (buffer[5] << 8);
 80019de:	021b      	lsls	r3, r3, #8
 80019e0:	18d2      	adds	r2, r2, r3
      int32_t rpm = buffer[0] + (buffer[1] << 8) + (buffer[2] << 16) + (buffer[3] << 24);
 80019e2:	782b      	ldrb	r3, [r5, #0]
 80019e4:	0209      	lsls	r1, r1, #8
 80019e6:	18c9      	adds	r1, r1, r3
 80019e8:	78ab      	ldrb	r3, [r5, #2]
      bNoError = UI_ExecSpeedRamp(&pHandle->_Super, rpm,duration);
 80019ea:	0020      	movs	r0, r4
      int32_t rpm = buffer[0] + (buffer[1] << 8) + (buffer[2] << 16) + (buffer[3] << 24);
 80019ec:	041b      	lsls	r3, r3, #16
 80019ee:	18c9      	adds	r1, r1, r3
 80019f0:	78eb      	ldrb	r3, [r5, #3]
      bNoError = UI_ExecSpeedRamp(&pHandle->_Super, rpm,duration);
 80019f2:	b292      	uxth	r2, r2
      int32_t rpm = buffer[0] + (buffer[1] << 8) + (buffer[2] << 16) + (buffer[3] << 24);
 80019f4:	061b      	lsls	r3, r3, #24
 80019f6:	18c9      	adds	r1, r1, r3
      bNoError = UI_ExecSpeedRamp(&pHandle->_Super, rpm,duration);
 80019f8:	f000 fe34 	bl	8002664 <UI_ExecSpeedRamp>
 80019fc:	e707      	b.n	800180e <MCP_ReceivedFrame+0x15a>
      uint16_t duration = buffer[4] + (buffer[5] << 8);
 80019fe:	796b      	ldrb	r3, [r5, #5]
 8001a00:	792a      	ldrb	r2, [r5, #4]
      int32_t torque = buffer[0] + (buffer[1] << 8) + (buffer[2] << 16) + (buffer[3] << 24);
 8001a02:	7869      	ldrb	r1, [r5, #1]
      uint16_t duration = buffer[4] + (buffer[5] << 8);
 8001a04:	021b      	lsls	r3, r3, #8
 8001a06:	18d2      	adds	r2, r2, r3
      int32_t torque = buffer[0] + (buffer[1] << 8) + (buffer[2] << 16) + (buffer[3] << 24);
 8001a08:	782b      	ldrb	r3, [r5, #0]
 8001a0a:	0209      	lsls	r1, r1, #8
 8001a0c:	18c9      	adds	r1, r1, r3
      bNoError = UI_ExecTorqueRamp(&pHandle->_Super, torque,duration);
 8001a0e:	0020      	movs	r0, r4
 8001a10:	b292      	uxth	r2, r2
 8001a12:	b209      	sxth	r1, r1
 8001a14:	f000 fe39 	bl	800268a <UI_ExecTorqueRamp>
 8001a18:	e6f9      	b.n	800180e <MCP_ReceivedFrame+0x15a>
      UI_GetRevupData(&pHandle->_Super, buffer[0], &Durationms, &FinalMecSpeedUnit, &FinalTorque);
 8001a1a:	7829      	ldrb	r1, [r5, #0]
 8001a1c:	250e      	movs	r5, #14
 8001a1e:	220a      	movs	r2, #10
 8001a20:	ab02      	add	r3, sp, #8
 8001a22:	18ed      	adds	r5, r5, r3
 8001a24:	af05      	add	r7, sp, #20
 8001a26:	a802      	add	r0, sp, #8
 8001a28:	003b      	movs	r3, r7
 8001a2a:	9500      	str	r5, [sp, #0]
 8001a2c:	1812      	adds	r2, r2, r0
 8001a2e:	0020      	movs	r0, r4
 8001a30:	f000 fe36 	bl	80026a0 <UI_GetRevupData>
      rpm = (FinalMecSpeedUnit * _RPM) / SPEED_UNIT;
 8001a34:	2300      	movs	r3, #0
 8001a36:	5efa      	ldrsh	r2, [r7, r3]
 8001a38:	2306      	movs	r3, #6
 8001a3a:	4353      	muls	r3, r2
      outBuff[0] = (uint8_t)(rpm);
 8001a3c:	aa06      	add	r2, sp, #24
      outBuff[1] = (uint8_t)(rpm >> 8);
 8001a3e:	1219      	asrs	r1, r3, #8
      outBuff[0] = (uint8_t)(rpm);
 8001a40:	7013      	strb	r3, [r2, #0]
      outBuff[1] = (uint8_t)(rpm >> 8);
 8001a42:	7051      	strb	r1, [r2, #1]
      outBuff[2] = (uint8_t)(rpm >> 16);
 8001a44:	1419      	asrs	r1, r3, #16
      outBuff[3] = (uint8_t)(rpm >> 24);
 8001a46:	161b      	asrs	r3, r3, #24
      outBuff[2] = (uint8_t)(rpm >> 16);
 8001a48:	7091      	strb	r1, [r2, #2]
      outBuff[3] = (uint8_t)(rpm >> 24);
 8001a4a:	70d3      	strb	r3, [r2, #3]
      outBuff[4] = (uint8_t)(FinalTorque);
 8001a4c:	2100      	movs	r1, #0
 8001a4e:	5e6b      	ldrsh	r3, [r5, r1]
      pHandle->fFcpSend(pHandle->pFCP, ACK_NOERROR, outBuff, 8 );
 8001a50:	6b20      	ldr	r0, [r4, #48]	; 0x30
      outBuff[4] = (uint8_t)(FinalTorque);
 8001a52:	7113      	strb	r3, [r2, #4]
      outBuff[5] = (uint8_t)(FinalTorque >> 8);
 8001a54:	121b      	asrs	r3, r3, #8
 8001a56:	7153      	strb	r3, [r2, #5]
      outBuff[6] = (uint8_t)(Durationms);
 8001a58:	ab02      	add	r3, sp, #8
 8001a5a:	895b      	ldrh	r3, [r3, #10]
      pHandle->fFcpSend(pHandle->pFCP, ACK_NOERROR, outBuff, 8 );
 8001a5c:	21f0      	movs	r1, #240	; 0xf0
      outBuff[6] = (uint8_t)(Durationms);
 8001a5e:	7193      	strb	r3, [r2, #6]
      outBuff[7] = (uint8_t)(Durationms >> 8);
 8001a60:	0a1b      	lsrs	r3, r3, #8
 8001a62:	71d3      	strb	r3, [r2, #7]
      pHandle->fFcpSend(pHandle->pFCP, ACK_NOERROR, outBuff, 8 );
 8001a64:	6b65      	ldr	r5, [r4, #52]	; 0x34
 8001a66:	2308      	movs	r3, #8
 8001a68:	47a8      	blx	r5
  if (RequireAck)
 8001a6a:	e6dd      	b.n	8001828 <MCP_ReceivedFrame+0x174>
      rpm = buffer[1] + (buffer[2] << 8) + (buffer[3] << 16) + (buffer[4] << 24);
 8001a6c:	78a8      	ldrb	r0, [r5, #2]
 8001a6e:	786b      	ldrb	r3, [r5, #1]
 8001a70:	0200      	lsls	r0, r0, #8
 8001a72:	18c0      	adds	r0, r0, r3
 8001a74:	78eb      	ldrb	r3, [r5, #3]
      hFinalMecSpeedUnit = (rpm * SPEED_UNIT ) / _RPM ;
 8001a76:	2106      	movs	r1, #6
      rpm = buffer[1] + (buffer[2] << 8) + (buffer[3] << 16) + (buffer[4] << 24);
 8001a78:	041b      	lsls	r3, r3, #16
 8001a7a:	18c0      	adds	r0, r0, r3
 8001a7c:	792b      	ldrb	r3, [r5, #4]
 8001a7e:	061b      	lsls	r3, r3, #24
 8001a80:	18c0      	adds	r0, r0, r3
      hFinalMecSpeedUnit = (rpm * SPEED_UNIT ) / _RPM ;
 8001a82:	f7fe fbf3 	bl	800026c <__divsi3>
      hDurationms = buffer[7] + (buffer[8] << 8);
 8001a86:	7a29      	ldrb	r1, [r5, #8]
 8001a88:	79ea      	ldrb	r2, [r5, #7]
      bNoError = UI_SetRevupData( &pHandle->_Super, bStage, hDurationms, hFinalMecSpeedUnit, hFinalTorque );
 8001a8a:	b203      	sxth	r3, r0
      hDurationms = buffer[7] + (buffer[8] << 8);
 8001a8c:	0209      	lsls	r1, r1, #8
      hFinalTorque = buffer[5] + (buffer[6] << 8);
 8001a8e:	79a8      	ldrb	r0, [r5, #6]
      hDurationms = buffer[7] + (buffer[8] << 8);
 8001a90:	1852      	adds	r2, r2, r1
      bNoError = UI_SetRevupData( &pHandle->_Super, bStage, hDurationms, hFinalMecSpeedUnit, hFinalTorque );
 8001a92:	7829      	ldrb	r1, [r5, #0]
      hFinalTorque = buffer[5] + (buffer[6] << 8);
 8001a94:	796d      	ldrb	r5, [r5, #5]
 8001a96:	0200      	lsls	r0, r0, #8
 8001a98:	182d      	adds	r5, r5, r0
      bNoError = UI_SetRevupData( &pHandle->_Super, bStage, hDurationms, hFinalMecSpeedUnit, hFinalTorque );
 8001a9a:	b22d      	sxth	r5, r5
 8001a9c:	0020      	movs	r0, r4
 8001a9e:	b292      	uxth	r2, r2
 8001aa0:	9500      	str	r5, [sp, #0]
 8001aa2:	f000 fe1c 	bl	80026de <UI_SetRevupData>
 8001aa6:	e6b2      	b.n	800180e <MCP_ReceivedFrame+0x15a>
      hIdRef = buffer[2] + (buffer[3] << 8);
 8001aa8:	78eb      	ldrb	r3, [r5, #3]
 8001aaa:	78aa      	ldrb	r2, [r5, #2]
 8001aac:	021b      	lsls	r3, r3, #8
 8001aae:	18d2      	adds	r2, r2, r3
      hIqRef = buffer[0] + (buffer[1] << 8);
 8001ab0:	786b      	ldrb	r3, [r5, #1]
 8001ab2:	7829      	ldrb	r1, [r5, #0]
 8001ab4:	021b      	lsls	r3, r3, #8
 8001ab6:	18c9      	adds	r1, r1, r3
      UI_SetCurrentReferences(&pHandle->_Super, hIqRef, hIdRef);
 8001ab8:	0020      	movs	r0, r4
 8001aba:	b212      	sxth	r2, r2
 8001abc:	b209      	sxth	r1, r1
 8001abe:	f000 fe2b 	bl	8002718 <UI_SetCurrentReferences>
      bNoError = true;
 8001ac2:	e6af      	b.n	8001824 <MCP_ReceivedFrame+0x170>
      stepList.len = Size;
 8001ac4:	9b03      	ldr	r3, [sp, #12]
      stepList.data = buffer;
 8001ac6:	a806      	add	r0, sp, #24
 8001ac8:	9506      	str	r5, [sp, #24]
      stepList.len = Size;
 8001aca:	7103      	strb	r3, [r0, #4]
      bErrorCode = ERROR_MP_NOT_ENABLED;
 8001acc:	230e      	movs	r3, #14
 8001ace:	aa02      	add	r2, sp, #8
 8001ad0:	189b      	adds	r3, r3, r2
 8001ad2:	220c      	movs	r2, #12
      bNoError = UI_GetMPInfo(&stepList, &MPInfo);
 8001ad4:	4d10      	ldr	r5, [pc, #64]	; (8001b18 <MCP_ReceivedFrame+0x464>)
      bErrorCode = ERROR_MP_NOT_ENABLED;
 8001ad6:	701a      	strb	r2, [r3, #0]
      bNoError = UI_GetMPInfo(&stepList, &MPInfo);
 8001ad8:	0029      	movs	r1, r5
 8001ada:	f000 fe2b 	bl	8002734 <UI_GetMPInfo>
 8001ade:	7030      	strb	r0, [r6, #0]
      if (bNoError)
 8001ae0:	2800      	cmp	r0, #0
 8001ae2:	d100      	bne.n	8001ae6 <MCP_ReceivedFrame+0x432>
 8001ae4:	e6a0      	b.n	8001828 <MCP_ReceivedFrame+0x174>
        pHandle->fFcpSend(pHandle->pFCP, ACK_NOERROR, MPInfo.data, MPInfo.len);
 8001ae6:	21f0      	movs	r1, #240	; 0xf0
 8001ae8:	792b      	ldrb	r3, [r5, #4]
 8001aea:	6b66      	ldr	r6, [r4, #52]	; 0x34
 8001aec:	682a      	ldr	r2, [r5, #0]
 8001aee:	6b20      	ldr	r0, [r4, #48]	; 0x30
 8001af0:	47b0      	blx	r6
}
 8001af2:	b00f      	add	sp, #60	; 0x3c
 8001af4:	bdf0      	pop	{r4, r5, r6, r7, pc}
        outBuff[i] = pHandle->s_fwVer[i];
 8001af6:	5429      	strb	r1, [r5, r0]
      for (i = 0; (i<32) && (pHandle->s_fwVer[i]!=0); i++)
 8001af8:	3001      	adds	r0, #1
 8001afa:	2820      	cmp	r0, #32
 8001afc:	d000      	beq.n	8001b00 <MCP_ReceivedFrame+0x44c>
 8001afe:	e61d      	b.n	800173c <MCP_ReceivedFrame+0x88>
 8001b00:	e760      	b.n	80019c4 <MCP_ReceivedFrame+0x310>
      bErrorCode = ERROR_BAD_FRAME_ID;
 8001b02:	230e      	movs	r3, #14
 8001b04:	aa02      	add	r2, sp, #8
 8001b06:	189b      	adds	r3, r3, r2
 8001b08:	2201      	movs	r2, #1
 8001b0a:	e610      	b.n	800172e <MCP_ReceivedFrame+0x7a>
      pHandle->fFcpSend(pHandle->pFCP, ACK_ERROR, &bErrorCode, 1);
 8001b0c:	220e      	movs	r2, #14
 8001b0e:	a902      	add	r1, sp, #8
 8001b10:	1852      	adds	r2, r2, r1
 8001b12:	2301      	movs	r3, #1
 8001b14:	21ff      	movs	r1, #255	; 0xff
 8001b16:	e703      	b.n	8001920 <MCP_ReceivedFrame+0x26c>
 8001b18:	20000998 	.word	0x20000998

08001b1c <MCP_WaitNextFrame>:
{
 8001b1c:	b510      	push	{r4, lr}
 8001b1e:	0004      	movs	r4, r0
  pHandle->fFcpAbortReceive(pHandle->pFCP);
 8001b20:	6be3      	ldr	r3, [r4, #60]	; 0x3c
 8001b22:	6b00      	ldr	r0, [r0, #48]	; 0x30
 8001b24:	4798      	blx	r3
  pHandle->BufferSize = FCP_MAX_PAYLOAD_SIZE;
 8001b26:	0023      	movs	r3, r4
 8001b28:	2280      	movs	r2, #128	; 0x80
 8001b2a:	33c8      	adds	r3, #200	; 0xc8
 8001b2c:	701a      	strb	r2, [r3, #0]
  pHandle->fFcpReceive(pHandle->pFCP);
 8001b2e:	6ba3      	ldr	r3, [r4, #56]	; 0x38
 8001b30:	6b20      	ldr	r0, [r4, #48]	; 0x30
 8001b32:	4798      	blx	r3
}
 8001b34:	bd10      	pop	{r4, pc}
	...

08001b38 <MCP_Init>:
{
 8001b38:	b573      	push	{r0, r1, r4, r5, r6, lr}
 8001b3a:	0004      	movs	r4, r0
 8001b3c:	001d      	movs	r5, r3
  pHandle->pDAC = pDAC;
 8001b3e:	0023      	movs	r3, r4
{
 8001b40:	0016      	movs	r6, r2
  pHandle->pDAC = pDAC;
 8001b42:	9a07      	ldr	r2, [sp, #28]
 8001b44:	33c4      	adds	r3, #196	; 0xc4
  pHandle->pFCP = pFCP;
 8001b46:	6321      	str	r1, [r4, #48]	; 0x30
  pHandle->pDAC = pDAC;
 8001b48:	601a      	str	r2, [r3, #0]
  pHandle->s_fwVer = s_fwVer;
 8001b4a:	9a08      	ldr	r2, [sp, #32]
 8001b4c:	3b04      	subs	r3, #4
 8001b4e:	601a      	str	r2, [r3, #0]
  FCP_SetClient( pFCP, pHandle,
 8001b50:	4b07      	ldr	r3, [pc, #28]	; (8001b70 <MCP_Init+0x38>)
{
 8001b52:	0008      	movs	r0, r1
  FCP_SetClient( pFCP, pHandle,
 8001b54:	4a07      	ldr	r2, [pc, #28]	; (8001b74 <MCP_Init+0x3c>)
 8001b56:	0021      	movs	r1, r4
 8001b58:	9300      	str	r3, [sp, #0]
 8001b5a:	4b07      	ldr	r3, [pc, #28]	; (8001b78 <MCP_Init+0x40>)
 8001b5c:	f002 fc80 	bl	8004460 <FCP_SetClient>
  pHandle->fFcpAbortReceive = fFcpAbortReceive;
 8001b60:	9b06      	ldr	r3, [sp, #24]
  pHandle->fFcpSend = fFcpSend;
 8001b62:	6366      	str	r6, [r4, #52]	; 0x34
  pHandle->fFcpReceive = fFcpReceive;
 8001b64:	63a5      	str	r5, [r4, #56]	; 0x38
  MCP_WaitNextFrame(pHandle);
 8001b66:	0020      	movs	r0, r4
  pHandle->fFcpAbortReceive = fFcpAbortReceive;
 8001b68:	63e3      	str	r3, [r4, #60]	; 0x3c
  MCP_WaitNextFrame(pHandle);
 8001b6a:	f7ff ffd7 	bl	8001b1c <MCP_WaitNextFrame>
}
 8001b6e:	bd73      	pop	{r0, r1, r4, r5, r6, pc}
 8001b70:	08001b7d 	.word	0x08001b7d
 8001b74:	08001b85 	.word	0x08001b85
 8001b78:	080016b5 	.word	0x080016b5

08001b7c <MCP_OnTimeOut>:
{
 8001b7c:	b510      	push	{r4, lr}
     MCP_WaitNextFrame(pHandle);
 8001b7e:	f7ff ffcd 	bl	8001b1c <MCP_WaitNextFrame>
}
 8001b82:	bd10      	pop	{r4, pc}

08001b84 <MCP_SentFrame>:
{
 8001b84:	b510      	push	{r4, lr}
    MCP_WaitNextFrame(pHandle);
 8001b86:	f7ff ffc9 	bl	8001b1c <MCP_WaitNextFrame>
}
 8001b8a:	bd10      	pop	{r4, pc}

08001b8c <MX_MotorControl_Init>:
 *
 * CubeMX calls this function after all peripherals initializations and
 * before the NVIC is configured
 */
__weak void MX_MotorControl_Init(void)
{
 8001b8c:	b537      	push	{r0, r1, r2, r4, r5, lr}
  /* Reconfigure the SysTick interrupt to fire every 500 us. */
  HAL_SYSTICK_Config(HAL_RCC_GetHCLKFreq()/SYS_TICK_FREQUENCY);
 8001b8e:	f001 fd63 	bl	8003658 <HAL_RCC_GetHCLKFreq>
 8001b92:	21fa      	movs	r1, #250	; 0xfa
 8001b94:	00c9      	lsls	r1, r1, #3
 8001b96:	f7fe fadf 	bl	8000158 <__udivsi3>
 8001b9a:	f001 f995 	bl	8002ec8 <HAL_SYSTICK_Config>
  /* Initialize the Motor Control Subsystem */
  MCboot(pMCI,pMCT);
 8001b9e:	4d08      	ldr	r5, [pc, #32]	; (8001bc0 <MX_MotorControl_Init+0x34>)
 8001ba0:	4c08      	ldr	r4, [pc, #32]	; (8001bc4 <MX_MotorControl_Init+0x38>)
 8001ba2:	0029      	movs	r1, r5
 8001ba4:	0020      	movs	r0, r4
 8001ba6:	f7ff fa7d 	bl	80010a4 <MCboot>
  mc_lock_pins();
 8001baa:	f7ff fd3d 	bl	8001628 <mc_lock_pins>

  /* Initialize the MC User Interface */
  UI_TaskInit(wConfig,NBR_OF_MOTORS,pMCI,pMCT,s_fwVer);
 8001bae:	4b06      	ldr	r3, [pc, #24]	; (8001bc8 <MX_MotorControl_Init+0x3c>)
 8001bb0:	0022      	movs	r2, r4
 8001bb2:	9300      	str	r3, [sp, #0]
 8001bb4:	2101      	movs	r1, #1
 8001bb6:	002b      	movs	r3, r5
 8001bb8:	4804      	ldr	r0, [pc, #16]	; (8001bcc <MX_MotorControl_Init+0x40>)
 8001bba:	f000 fbd9 	bl	8002370 <UI_TaskInit>
}
 8001bbe:	bd37      	pop	{r0, r1, r2, r4, r5, pc}
 8001bc0:	200009a4 	.word	0x200009a4
 8001bc4:	200009a0 	.word	0x200009a0
 8001bc8:	080069f4 	.word	0x080069f4
 8001bcc:	2000061c 	.word	0x2000061c

08001bd0 <RCM_RegisterRegConv>:
  *         Contains ADC, Channel and sampling time to be used.
  *
  *  @retval the handle of the registered conversion or 255 if the registration failed
  */
uint8_t RCM_RegisterRegConv(RegConv_t * regConv)
{
 8001bd0:	b5f0      	push	{r4, r5, r6, r7, lr}
 8001bd2:	0002      	movs	r2, r0
  uint8_t handle=255;
  uint8_t i=0;
 8001bd4:	2300      	movs	r3, #0
  uint8_t handle=255;
 8001bd6:	20ff      	movs	r0, #255	; 0xff
      {
        if ((RCM_handle_array [i]->channel == regConv->channel) &&
            (RCM_handle_array [i]->regADC == regConv->regADC))
          {
           handle =i; /* Reuse the same handle */
           i = RCM_MAX_CONV; /* we can skip the rest of the loop*/
 8001bd8:	2704      	movs	r7, #4
      if (  RCM_handle_array [i] == 0 && handle > RCM_MAX_CONV)
 8001bda:	4e1d      	ldr	r6, [pc, #116]	; (8001c50 <RCM_RegisterRegConv+0x80>)
 8001bdc:	0099      	lsls	r1, r3, #2
 8001bde:	5989      	ldr	r1, [r1, r6]
 8001be0:	2900      	cmp	r1, #0
 8001be2:	d12a      	bne.n	8001c3a <RCM_RegisterRegConv+0x6a>
 8001be4:	2804      	cmp	r0, #4
 8001be6:	d900      	bls.n	8001bea <RCM_RegisterRegConv+0x1a>
 8001be8:	0018      	movs	r0, r3
          }
      }
      i++;
 8001bea:	3301      	adds	r3, #1
 8001bec:	b2db      	uxtb	r3, r3
    while (i < RCM_MAX_CONV)
 8001bee:	2b03      	cmp	r3, #3
 8001bf0:	d9f4      	bls.n	8001bdc <RCM_RegisterRegConv+0xc>
    }
    if (handle < RCM_MAX_CONV )
 8001bf2:	2803      	cmp	r0, #3
 8001bf4:	d820      	bhi.n	8001c38 <RCM_RegisterRegConv+0x68>
    {
      RCM_handle_array [handle] = regConv;
      RCM_CB_array [handle].cb = NULL; /* if a previous callback was attached, it is cleared*/
 8001bf6:	2400      	movs	r4, #0
      RCM_handle_array [handle] = regConv;
 8001bf8:	0083      	lsls	r3, r0, #2
      RCM_CB_array [handle].cb = NULL; /* if a previous callback was attached, it is cleared*/
 8001bfa:	4916      	ldr	r1, [pc, #88]	; (8001c54 <RCM_RegisterRegConv+0x84>)
      RCM_handle_array [handle] = regConv;
 8001bfc:	50f2      	str	r2, [r6, r3]
      RCM_CB_array [handle].cb = NULL; /* if a previous callback was attached, it is cleared*/
 8001bfe:	00c3      	lsls	r3, r0, #3
 8001c00:	505c      	str	r4, [r3, r1]
      if (LL_ADC_IsEnabled(regConv->regADC) == 0 )
 8001c02:	6813      	ldr	r3, [r2, #0]
  * @param  ADCx ADC instance
  * @retval 0: ADC is disabled, 1: ADC is enabled.
  */
__STATIC_INLINE uint32_t LL_ADC_IsEnabled(ADC_TypeDef *ADCx)
{
  return (READ_BIT(ADCx->CR, ADC_CR_ADEN) == (ADC_CR_ADEN));
 8001c04:	689a      	ldr	r2, [r3, #8]
 8001c06:	07d2      	lsls	r2, r2, #31
 8001c08:	d40e      	bmi.n	8001c28 <RCM_RegisterRegConv+0x58>
__STATIC_INLINE void LL_ADC_StartCalibration(ADC_TypeDef *ADCx)
{
  /* Note: Write register with some additional bits forced to state reset     */
  /*       instead of modifying only the selected bit for this function,      */
  /*       to not interfere with bits with HW property "rs".                  */
  MODIFY_REG(ADCx->CR,
 8001c0a:	2480      	movs	r4, #128	; 0x80
 8001c0c:	689d      	ldr	r5, [r3, #8]
 8001c0e:	4912      	ldr	r1, [pc, #72]	; (8001c58 <RCM_RegisterRegConv+0x88>)
 8001c10:	0624      	lsls	r4, r4, #24
 8001c12:	400d      	ands	r5, r1
 8001c14:	432c      	orrs	r4, r5
 8001c16:	609c      	str	r4, [r3, #8]
  * @param  ADCx ADC instance
  * @retval 0: calibration complete, 1: calibration in progress.
  */
__STATIC_INLINE uint32_t LL_ADC_IsCalibrationOnGoing(ADC_TypeDef *ADCx)
{
  return (READ_BIT(ADCx->CR, ADC_CR_ADCAL) == (ADC_CR_ADCAL));
 8001c18:	689a      	ldr	r2, [r3, #8]
      {

        LL_ADC_StartCalibration( regConv->regADC);
        while ( LL_ADC_IsCalibrationOnGoing( regConv->regADC ) )
 8001c1a:	2a00      	cmp	r2, #0
 8001c1c:	dbfc      	blt.n	8001c18 <RCM_RegisterRegConv+0x48>
  MODIFY_REG(ADCx->CR,
 8001c1e:	689a      	ldr	r2, [r3, #8]
 8001c20:	4011      	ands	r1, r2
 8001c22:	2201      	movs	r2, #1
 8001c24:	430a      	orrs	r2, r1
 8001c26:	609a      	str	r2, [r3, #8]
      }
      else
      {
      }
      /* conversion handler is created, will be enabled by the first call to RCM_ExecRegularConv*/
      RCM_NoInj_array [handle].enable = false;
 8001c28:	2206      	movs	r2, #6
 8001c2a:	2100      	movs	r1, #0
 8001c2c:	4342      	muls	r2, r0
 8001c2e:	4b0b      	ldr	r3, [pc, #44]	; (8001c5c <RCM_RegisterRegConv+0x8c>)
 8001c30:	54d1      	strb	r1, [r2, r3]
      RCM_NoInj_array [handle].next = handle;
 8001c32:	189b      	adds	r3, r3, r2
 8001c34:	7158      	strb	r0, [r3, #5]
      RCM_NoInj_array [handle].prev = handle;
 8001c36:	7118      	strb	r0, [r3, #4]
    else
    {
      /* Nothing to do handle is already set to error value : 255 */
    }
  return handle;
}
 8001c38:	bdf0      	pop	{r4, r5, r6, r7, pc}
        if ((RCM_handle_array [i]->channel == regConv->channel) &&
 8001c3a:	790d      	ldrb	r5, [r1, #4]
 8001c3c:	7914      	ldrb	r4, [r2, #4]
 8001c3e:	42a5      	cmp	r5, r4
 8001c40:	d1d3      	bne.n	8001bea <RCM_RegisterRegConv+0x1a>
 8001c42:	6809      	ldr	r1, [r1, #0]
 8001c44:	6814      	ldr	r4, [r2, #0]
 8001c46:	42a1      	cmp	r1, r4
 8001c48:	d1cf      	bne.n	8001bea <RCM_RegisterRegConv+0x1a>
 8001c4a:	0018      	movs	r0, r3
           i = RCM_MAX_CONV; /* we can skip the rest of the loop*/
 8001c4c:	003b      	movs	r3, r7
 8001c4e:	e7cc      	b.n	8001bea <RCM_RegisterRegConv+0x1a>
 8001c50:	200009e8 	.word	0x200009e8
 8001c54:	200009a8 	.word	0x200009a8
 8001c58:	7fffffe8 	.word	0x7fffffe8
 8001c5c:	200009c8 	.word	0x200009c8

08001c60 <RCM_ExecRegularConv>:
 * Otherwise, the latest stored conversion result will be returned.
 *
 * NOTE: This function is not part of the public API and users should not call it.
 */
uint16_t RCM_ExecRegularConv (uint8_t handle)
{
 8001c60:	b5f0      	push	{r4, r5, r6, r7, lr}
  uint16_t retVal;
  uint8_t formerNext;
  uint8_t i=0;
  uint8_t LastEnable = RCM_MAX_CONV;

  if (RCM_NoInj_array [handle].enable == false)
 8001c62:	2606      	movs	r6, #6
 8001c64:	0034      	movs	r4, r6
 8001c66:	4344      	muls	r4, r0
 8001c68:	4a40      	ldr	r2, [pc, #256]	; (8001d6c <RCM_ExecRegularConv+0x10c>)
 8001c6a:	5ca3      	ldrb	r3, [r4, r2]
 8001c6c:	2b00      	cmp	r3, #0
 8001c6e:	d132      	bne.n	8001cd6 <RCM_ExecRegularConv+0x76>
  uint8_t LastEnable = RCM_MAX_CONV;
 8001c70:	2504      	movs	r5, #4
      {
        if (RCM_NoInj_array [i].next > handle)
        /* We found a previous reg conv to link with */
        {
          formerNext = RCM_NoInj_array [i].next;
          RCM_NoInj_array [handle].next = formerNext;
 8001c72:	1914      	adds	r4, r2, r4
      if (RCM_NoInj_array [i].enable == true)
 8001c74:	0037      	movs	r7, r6
 8001c76:	435f      	muls	r7, r3
 8001c78:	5dd1      	ldrb	r1, [r2, r7]
 8001c7a:	2900      	cmp	r1, #0
 8001c7c:	d00a      	beq.n	8001c94 <RCM_ExecRegularConv+0x34>
        if (RCM_NoInj_array [i].next > handle)
 8001c7e:	19d7      	adds	r7, r2, r7
 8001c80:	7979      	ldrb	r1, [r7, #5]
 8001c82:	4281      	cmp	r1, r0
 8001c84:	d969      	bls.n	8001d5a <RCM_ExecRegularConv+0xfa>
          RCM_NoInj_array [handle].prev = i;
 8001c86:	7123      	strb	r3, [r4, #4]
          RCM_NoInj_array [i].next = handle;
          RCM_NoInj_array [formerNext].prev = handle;
          i= RCM_MAX_CONV; /* stop the loop, handler inserted*/
 8001c88:	2304      	movs	r3, #4
          RCM_NoInj_array [handle].next = formerNext;
 8001c8a:	7161      	strb	r1, [r4, #5]
          RCM_NoInj_array [formerNext].prev = handle;
 8001c8c:	4371      	muls	r1, r6
 8001c8e:	1851      	adds	r1, r2, r1
          RCM_NoInj_array [i].next = handle;
 8001c90:	7178      	strb	r0, [r7, #5]
          RCM_NoInj_array [formerNext].prev = handle;
 8001c92:	7108      	strb	r0, [r1, #4]
        }
      }
      else
      { /* nothing to do */
      }
      i++;
 8001c94:	3301      	adds	r3, #1
 8001c96:	b2db      	uxtb	r3, r3
      if (i == RCM_MAX_CONV)
 8001c98:	2b04      	cmp	r3, #4
 8001c9a:	d163      	bne.n	8001d64 <RCM_ExecRegularConv+0x104>
      /* We reach end of the array without handler inserted*/
      {
       if (LastEnable != RCM_MAX_CONV )
 8001c9c:	2d04      	cmp	r5, #4
 8001c9e:	d05e      	beq.n	8001d5e <RCM_ExecRegularConv+0xfe>
       /* we find a regular conversion with smaller position to be linked with */
       {
         formerNext = RCM_NoInj_array [LastEnable].next;
 8001ca0:	3302      	adds	r3, #2
 8001ca2:	0019      	movs	r1, r3
         RCM_NoInj_array [handle].next = formerNext;
 8001ca4:	001c      	movs	r4, r3
         formerNext = RCM_NoInj_array [LastEnable].next;
 8001ca6:	4369      	muls	r1, r5
 8001ca8:	1851      	adds	r1, r2, r1
 8001caa:	794e      	ldrb	r6, [r1, #5]
         RCM_NoInj_array [handle].next = formerNext;
 8001cac:	4344      	muls	r4, r0
         RCM_NoInj_array [handle].prev = LastEnable;
         RCM_NoInj_array [LastEnable].next = handle;
         RCM_NoInj_array [formerNext].prev = handle;
 8001cae:	4373      	muls	r3, r6
         RCM_NoInj_array [handle].next = formerNext;
 8001cb0:	1914      	adds	r4, r2, r4
         RCM_NoInj_array [formerNext].prev = handle;
 8001cb2:	18d3      	adds	r3, r2, r3
         RCM_NoInj_array [handle].next = formerNext;
 8001cb4:	7166      	strb	r6, [r4, #5]
         RCM_NoInj_array [handle].prev = LastEnable;
 8001cb6:	7125      	strb	r5, [r4, #4]
         RCM_NoInj_array [LastEnable].next = handle;
 8001cb8:	7148      	strb	r0, [r1, #5]
         RCM_NoInj_array [formerNext].prev = handle;
 8001cba:	7118      	strb	r0, [r3, #4]
      {
       /* Nothing to do we are parsing the array, nothing inserted yet*/
      }
    }
    /* The handle is now linked with others, we can set the enable flag */
    RCM_NoInj_array [handle].enable = true;
 8001cbc:	2306      	movs	r3, #6
 8001cbe:	0019      	movs	r1, r3
 8001cc0:	2401      	movs	r4, #1
 8001cc2:	4341      	muls	r1, r0
 8001cc4:	5254      	strh	r4, [r2, r1]
    RCM_NoInj_array [handle].status = notvalid;
    if (RCM_NoInj_array[RCM_currentHandle].status != ongoing )
 8001cc6:	492a      	ldr	r1, [pc, #168]	; (8001d70 <RCM_ExecRegularConv+0x110>)
 8001cc8:	780c      	ldrb	r4, [r1, #0]
 8001cca:	4363      	muls	r3, r4
 8001ccc:	18d3      	adds	r3, r2, r3
 8001cce:	785b      	ldrb	r3, [r3, #1]
 8001cd0:	2b01      	cmp	r3, #1
 8001cd2:	d000      	beq.n	8001cd6 <RCM_ExecRegularConv+0x76>
    {/* select the new conversion to be the next scheduled only if a conversion is not ongoing*/
      RCM_currentHandle = handle;
 8001cd4:	7008      	strb	r0, [r1, #0]
  }
  else
  {
  /* Nothing to do the current handle is already scheduled */
  }
  if (PWM_Handle_M1.ADCRegularLocked == false)
 8001cd6:	4b27      	ldr	r3, [pc, #156]	; (8001d74 <RCM_ExecRegularConv+0x114>)
 8001cd8:	3377      	adds	r3, #119	; 0x77
 8001cda:	781b      	ldrb	r3, [r3, #0]
 8001cdc:	2b00      	cmp	r3, #0
 8001cde:	d136      	bne.n	8001d4e <RCM_ExecRegularConv+0xee>
  MODIFY_REG(ADCx->CFGR1, ADC_CFGR1_DMAEN | ADC_CFGR1_DMACFG, DMATransfer);
 8001ce0:	2603      	movs	r6, #3
  /* The ADC is free to be used asynchronously*/
  {
    LL_ADC_REG_SetDMATransfer(RCM_handle_array[handle]->regADC, LL_ADC_REG_DMA_TRANSFER_NONE);
 8001ce2:	4c25      	ldr	r4, [pc, #148]	; (8001d78 <RCM_ExecRegularConv+0x118>)
 8001ce4:	0083      	lsls	r3, r0, #2
 8001ce6:	591d      	ldr	r5, [r3, r4]
 8001ce8:	682b      	ldr	r3, [r5, #0]
 8001cea:	68d9      	ldr	r1, [r3, #12]
 8001cec:	43b1      	bics	r1, r6
 8001cee:	60d9      	str	r1, [r3, #12]
  MODIFY_REG(ADCx->CFGR1, ADC_CFGR1_EXTEN | ADC_CFGR1_EXTSEL, TriggerSource);
 8001cf0:	68d9      	ldr	r1, [r3, #12]
 8001cf2:	4e22      	ldr	r6, [pc, #136]	; (8001d7c <RCM_ExecRegularConv+0x11c>)
 8001cf4:	4031      	ands	r1, r6
  MODIFY_REG(ADCx->SMPR, ADC_SMPR_SMP, SamplingTime);
 8001cf6:	2607      	movs	r6, #7
  MODIFY_REG(ADCx->CFGR1, ADC_CFGR1_EXTEN | ADC_CFGR1_EXTSEL, TriggerSource);
 8001cf8:	60d9      	str	r1, [r3, #12]
  MODIFY_REG(ADCx->SMPR, ADC_SMPR_SMP, SamplingTime);
 8001cfa:	6959      	ldr	r1, [r3, #20]
 8001cfc:	43b1      	bics	r1, r6
 8001cfe:	68ae      	ldr	r6, [r5, #8]
 8001d00:	4331      	orrs	r1, r6
 8001d02:	6159      	str	r1, [r3, #20]
  WRITE_REG(ADCx->CHSELR, (Channel & ADC_CHANNEL_ID_BITFIELD_MASK));
 8001d04:	2180      	movs	r1, #128	; 0x80
    /* Disabling External Trigger of ADC */
    LL_ADC_REG_SetTriggerSource (RCM_handle_array[handle]->regADC, LL_ADC_REG_TRIG_SOFTWARE);

    /* Set Sampling time and channel */
    LL_ADC_SetSamplingTimeCommonChannels (RCM_handle_array[handle]->regADC,  RCM_handle_array[handle]->samplingTime );
    LL_ADC_REG_SetSequencerChannels (RCM_handle_array[handle]->regADC, __LL_ADC_DECIMAL_NB_TO_CHANNEL(RCM_handle_array[handle]->channel) );
 8001d06:	792d      	ldrb	r5, [r5, #4]
 8001d08:	0189      	lsls	r1, r1, #6
 8001d0a:	40a9      	lsls	r1, r5
  * @param  ADCx ADC instance
  * @retval None
  */
__STATIC_INLINE void LL_ADC_ClearFlag_EOC(ADC_TypeDef *ADCx)
{
  WRITE_REG(ADCx->ISR, LL_ADC_FLAG_EOC);
 8001d0c:	2504      	movs	r5, #4
  WRITE_REG(ADCx->CHSELR, (Channel & ADC_CHANNEL_ID_BITFIELD_MASK));
 8001d0e:	0b49      	lsrs	r1, r1, #13
 8001d10:	6299      	str	r1, [r3, #40]	; 0x28
  WRITE_REG(ADCx->ISR, LL_ADC_FLAG_EOC);
 8001d12:	601d      	str	r5, [r3, #0]
  MODIFY_REG(ADCx->CR,
 8001d14:	6899      	ldr	r1, [r3, #8]
 8001d16:	4e1a      	ldr	r6, [pc, #104]	; (8001d80 <RCM_ExecRegularConv+0x120>)
 8001d18:	4031      	ands	r1, r6
 8001d1a:	4329      	orrs	r1, r5
 8001d1c:	6099      	str	r1, [r3, #8]
  return (READ_BIT(ADCx->ISR, ADC_ISR_EOC) == (ADC_ISR_EOC));
 8001d1e:	6819      	ldr	r1, [r3, #0]

    /* Start ADC conversion */
    LL_ADC_REG_StartConversion( RCM_handle_array[handle]->regADC );

    /* Wait EOC */
    while ( LL_ADC_IsActiveFlag_EOC( RCM_handle_array[handle]->regADC ) == RESET )
 8001d20:	4229      	tst	r1, r5
 8001d22:	d0fc      	beq.n	8001d1e <RCM_ExecRegularConv+0xbe>
  return (uint16_t)(READ_BIT(ADCx->DR, ADC_DR_DATA));
 8001d24:	6c19      	ldr	r1, [r3, #64]	; 0x40
    {
    }

    /* Read the "Regular" conversion (Not related to current sampling) */
    RCM_NoInj_array [handle].value = LL_ADC_REG_ReadConversionData12( RCM_handle_array[handle]->regADC );
 8001d26:	2306      	movs	r3, #6
 8001d28:	4343      	muls	r3, r0
 8001d2a:	18d2      	adds	r2, r2, r3
 8001d2c:	8051      	strh	r1, [r2, #2]
  MODIFY_REG(ADCx->CFGR1, ADC_CFGR1_DMAEN | ADC_CFGR1_DMACFG, DMATransfer);
 8001d2e:	2103      	movs	r1, #3
    LL_ADC_REG_SetDMATransfer( RCM_handle_array[RCM_currentHandle]->regADC, LL_ADC_REG_DMA_TRANSFER_LIMITED );
 8001d30:	4d0f      	ldr	r5, [pc, #60]	; (8001d70 <RCM_ExecRegularConv+0x110>)
 8001d32:	782b      	ldrb	r3, [r5, #0]
 8001d34:	009b      	lsls	r3, r3, #2
 8001d36:	58e3      	ldr	r3, [r4, r3]
 8001d38:	681c      	ldr	r4, [r3, #0]
 8001d3a:	68e3      	ldr	r3, [r4, #12]
 8001d3c:	438b      	bics	r3, r1
 8001d3e:	0019      	movs	r1, r3
 8001d40:	2301      	movs	r3, #1
 8001d42:	430b      	orrs	r3, r1
 8001d44:	60e3      	str	r3, [r4, #12]
    RCM_currentHandle = RCM_NoInj_array [handle].next;
 8001d46:	7953      	ldrb	r3, [r2, #5]
 8001d48:	702b      	strb	r3, [r5, #0]
    RCM_NoInj_array [handle].status = valid;
 8001d4a:	2302      	movs	r3, #2
 8001d4c:	7053      	strb	r3, [r2, #1]
  }
  retVal = RCM_NoInj_array [handle].value;
 8001d4e:	2306      	movs	r3, #6
 8001d50:	4343      	muls	r3, r0
 8001d52:	4806      	ldr	r0, [pc, #24]	; (8001d6c <RCM_ExecRegularConv+0x10c>)
 8001d54:	18c0      	adds	r0, r0, r3
return retVal;
 8001d56:	8840      	ldrh	r0, [r0, #2]
}
 8001d58:	bdf0      	pop	{r4, r5, r6, r7, pc}
 8001d5a:	001d      	movs	r5, r3
 8001d5c:	e79a      	b.n	8001c94 <RCM_ExecRegularConv+0x34>
         RCM_currentHandle = handle;
 8001d5e:	4b04      	ldr	r3, [pc, #16]	; (8001d70 <RCM_ExecRegularConv+0x110>)
 8001d60:	7018      	strb	r0, [r3, #0]
    while (i < RCM_MAX_CONV)
 8001d62:	e7ab      	b.n	8001cbc <RCM_ExecRegularConv+0x5c>
 8001d64:	2b03      	cmp	r3, #3
 8001d66:	d800      	bhi.n	8001d6a <RCM_ExecRegularConv+0x10a>
 8001d68:	e784      	b.n	8001c74 <RCM_ExecRegularConv+0x14>
 8001d6a:	e7a7      	b.n	8001cbc <RCM_ExecRegularConv+0x5c>
 8001d6c:	200009c8 	.word	0x200009c8
 8001d70:	200009e4 	.word	0x200009e4
 8001d74:	20000358 	.word	0x20000358
 8001d78:	200009e8 	.word	0x200009e8
 8001d7c:	fffff23f 	.word	0xfffff23f
 8001d80:	7fffffe8 	.word	0x7fffffe8

08001d84 <RCM_ExecUserConv>:
 *  latest call to RCM_RequestUserConv
 *
 * NOTE: This function is not part of the public API and users should not call it.
 */
void RCM_ExecUserConv ()
{
 8001d84:	b570      	push	{r4, r5, r6, lr}
  if (RCM_UserConvState == RCM_USERCONV_REQUESTED)
 8001d86:	4c10      	ldr	r4, [pc, #64]	; (8001dc8 <RCM_ExecUserConv+0x44>)
 8001d88:	7823      	ldrb	r3, [r4, #0]
 8001d8a:	2b01      	cmp	r3, #1
 8001d8c:	d11a      	bne.n	8001dc4 <RCM_ExecUserConv+0x40>
  {
    RCM_UserConvValue = RCM_ExecRegularConv (RCM_UserConvHandle);
 8001d8e:	4d0f      	ldr	r5, [pc, #60]	; (8001dcc <RCM_ExecUserConv+0x48>)
 8001d90:	7828      	ldrb	r0, [r5, #0]
 8001d92:	f7ff ff65 	bl	8001c60 <RCM_ExecRegularConv>
    /* Regular conversion is read from RCM_NoInj_array but we must take care that first conversion is done*/
    /* status could also be ongoing, but decision is taken to provide previous conversion */
    /* instead of waiting for RCM_NoInj_array [RCM_UserConvHandle].status == valid */
    if (RCM_NoInj_array [RCM_UserConvHandle].status != notvalid)
 8001d96:	2206      	movs	r2, #6
    RCM_UserConvValue = RCM_ExecRegularConv (RCM_UserConvHandle);
 8001d98:	4b0d      	ldr	r3, [pc, #52]	; (8001dd0 <RCM_ExecUserConv+0x4c>)
 8001d9a:	0001      	movs	r1, r0
 8001d9c:	8018      	strh	r0, [r3, #0]
    if (RCM_NoInj_array [RCM_UserConvHandle].status != notvalid)
 8001d9e:	7828      	ldrb	r0, [r5, #0]
 8001da0:	4b0c      	ldr	r3, [pc, #48]	; (8001dd4 <RCM_ExecUserConv+0x50>)
 8001da2:	4342      	muls	r2, r0
 8001da4:	189b      	adds	r3, r3, r2
 8001da6:	785b      	ldrb	r3, [r3, #1]
 8001da8:	2b00      	cmp	r3, #0
 8001daa:	d001      	beq.n	8001db0 <RCM_ExecUserConv+0x2c>
    {
      RCM_UserConvState = RCM_USERCONV_EOC;
 8001dac:	2302      	movs	r3, #2
 8001dae:	7023      	strb	r3, [r4, #0]
    }
    if (RCM_CB_array [RCM_UserConvHandle].cb != NULL)
 8001db0:	4b09      	ldr	r3, [pc, #36]	; (8001dd8 <RCM_ExecUserConv+0x54>)
 8001db2:	00c2      	lsls	r2, r0, #3
 8001db4:	58d5      	ldr	r5, [r2, r3]
 8001db6:	2d00      	cmp	r5, #0
 8001db8:	d004      	beq.n	8001dc4 <RCM_ExecUserConv+0x40>
    {
      RCM_UserConvState = RCM_USERCONV_IDLE;
 8001dba:	2600      	movs	r6, #0
      RCM_CB_array [RCM_UserConvHandle].cb (RCM_UserConvHandle, RCM_UserConvValue ,RCM_CB_array [RCM_UserConvHandle].data);
 8001dbc:	189b      	adds	r3, r3, r2
 8001dbe:	685a      	ldr	r2, [r3, #4]
      RCM_UserConvState = RCM_USERCONV_IDLE;
 8001dc0:	7026      	strb	r6, [r4, #0]
      RCM_CB_array [RCM_UserConvHandle].cb (RCM_UserConvHandle, RCM_UserConvValue ,RCM_CB_array [RCM_UserConvHandle].data);
 8001dc2:	47a8      	blx	r5
    }
  }
}
 8001dc4:	bd70      	pop	{r4, r5, r6, pc}
 8001dc6:	46c0      	nop			; (mov r8, r8)
 8001dc8:	200009e1 	.word	0x200009e1
 8001dcc:	200009e0 	.word	0x200009e0
 8001dd0:	200009e2 	.word	0x200009e2
 8001dd4:	200009c8 	.word	0x200009c8
 8001dd8:	200009a8 	.word	0x200009a8

08001ddc <RCM_ExecNextConv>:
 *
 * NOTE: This function is not part of the public API and users should not call it.
 */
void RCM_ExecNextConv (void)
{
  if (RCM_NoInj_array [RCM_currentHandle].enable == true)
 8001ddc:	2006      	movs	r0, #6
 8001dde:	0002      	movs	r2, r0
{
 8001de0:	b5f0      	push	{r4, r5, r6, r7, lr}
  if (RCM_NoInj_array [RCM_currentHandle].enable == true)
 8001de2:	4d17      	ldr	r5, [pc, #92]	; (8001e40 <RCM_ExecNextConv+0x64>)
 8001de4:	4917      	ldr	r1, [pc, #92]	; (8001e44 <RCM_ExecNextConv+0x68>)
 8001de6:	782b      	ldrb	r3, [r5, #0]
 8001de8:	435a      	muls	r2, r3
 8001dea:	5c52      	ldrb	r2, [r2, r1]
 8001dec:	2a00      	cmp	r2, #0
 8001dee:	d026      	beq.n	8001e3e <RCM_ExecNextConv+0x62>
  WRITE_REG(ADCx->ISR, LL_ADC_FLAG_EOC);
 8001df0:	2404      	movs	r4, #4
  MODIFY_REG(ADCx->CFGR1, ADC_CFGR1_DMAEN | ADC_CFGR1_DMACFG, DMATransfer);
 8001df2:	2703      	movs	r7, #3
    /* When this function is called, the ADC conversions triggered by External
       event for current reading has been completed.
       ADC is therefore ready to be started because already stopped.*/

    /* Clear EOC */
    LL_ADC_ClearFlag_EOC( RCM_handle_array[RCM_currentHandle]->regADC );
 8001df4:	4a14      	ldr	r2, [pc, #80]	; (8001e48 <RCM_ExecNextConv+0x6c>)
 8001df6:	009b      	lsls	r3, r3, #2
 8001df8:	589b      	ldr	r3, [r3, r2]
 8001dfa:	681b      	ldr	r3, [r3, #0]
  WRITE_REG(ADCx->ISR, LL_ADC_FLAG_EOC);
 8001dfc:	601c      	str	r4, [r3, #0]
    /* Disabling ADC DMA request  */
    LL_ADC_REG_SetDMATransfer(RCM_handle_array[RCM_currentHandle]->regADC, LL_ADC_REG_DMA_TRANSFER_NONE);
 8001dfe:	782d      	ldrb	r5, [r5, #0]
 8001e00:	00ab      	lsls	r3, r5, #2
 8001e02:	589e      	ldr	r6, [r3, r2]
    /* Set Sampling time and channel of ADC for Regular Conversion */
    LL_ADC_SetSamplingTimeCommonChannels (RCM_handle_array[RCM_currentHandle]->regADC,  RCM_handle_array[RCM_currentHandle]->samplingTime );
    LL_ADC_REG_SetSequencerChannels (RCM_handle_array[RCM_currentHandle]->regADC, __LL_ADC_DECIMAL_NB_TO_CHANNEL(RCM_handle_array[RCM_currentHandle]->channel) );
    /* Start ADC for regular conversion */
    LL_ADC_REG_StartConversion( RCM_handle_array[RCM_currentHandle]->regADC );
    RCM_NoInj_array [RCM_currentHandle].status = ongoing;
 8001e04:	4368      	muls	r0, r5
    LL_ADC_REG_SetDMATransfer(RCM_handle_array[RCM_currentHandle]->regADC, LL_ADC_REG_DMA_TRANSFER_NONE);
 8001e06:	6833      	ldr	r3, [r6, #0]
    RCM_NoInj_array [RCM_currentHandle].status = ongoing;
 8001e08:	1809      	adds	r1, r1, r0
  MODIFY_REG(ADCx->CFGR1, ADC_CFGR1_DMAEN | ADC_CFGR1_DMACFG, DMATransfer);
 8001e0a:	68da      	ldr	r2, [r3, #12]
 8001e0c:	43ba      	bics	r2, r7
 8001e0e:	60da      	str	r2, [r3, #12]
  MODIFY_REG(ADCx->CFGR1, ADC_CFGR1_EXTEN | ADC_CFGR1_EXTSEL, TriggerSource);
 8001e10:	68da      	ldr	r2, [r3, #12]
 8001e12:	4f0e      	ldr	r7, [pc, #56]	; (8001e4c <RCM_ExecNextConv+0x70>)
 8001e14:	403a      	ands	r2, r7
  MODIFY_REG(ADCx->SMPR, ADC_SMPR_SMP, SamplingTime);
 8001e16:	2707      	movs	r7, #7
  MODIFY_REG(ADCx->CFGR1, ADC_CFGR1_EXTEN | ADC_CFGR1_EXTSEL, TriggerSource);
 8001e18:	60da      	str	r2, [r3, #12]
  MODIFY_REG(ADCx->SMPR, ADC_SMPR_SMP, SamplingTime);
 8001e1a:	695a      	ldr	r2, [r3, #20]
 8001e1c:	43ba      	bics	r2, r7
 8001e1e:	68b7      	ldr	r7, [r6, #8]
 8001e20:	433a      	orrs	r2, r7
 8001e22:	615a      	str	r2, [r3, #20]
    LL_ADC_REG_SetSequencerChannels (RCM_handle_array[RCM_currentHandle]->regADC, __LL_ADC_DECIMAL_NB_TO_CHANNEL(RCM_handle_array[RCM_currentHandle]->channel) );
 8001e24:	7932      	ldrb	r2, [r6, #4]
 8001e26:	2601      	movs	r6, #1
 8001e28:	0037      	movs	r7, r6
 8001e2a:	4097      	lsls	r7, r2
  WRITE_REG(ADCx->CHSELR, (Channel & ADC_CHANNEL_ID_BITFIELD_MASK));
 8001e2c:	037a      	lsls	r2, r7, #13
 8001e2e:	0b52      	lsrs	r2, r2, #13
 8001e30:	629a      	str	r2, [r3, #40]	; 0x28
  MODIFY_REG(ADCx->CR,
 8001e32:	689a      	ldr	r2, [r3, #8]
 8001e34:	4f06      	ldr	r7, [pc, #24]	; (8001e50 <RCM_ExecNextConv+0x74>)
 8001e36:	403a      	ands	r2, r7
 8001e38:	4314      	orrs	r4, r2
 8001e3a:	609c      	str	r4, [r3, #8]
    RCM_NoInj_array [RCM_currentHandle].status = ongoing;
 8001e3c:	704e      	strb	r6, [r1, #1]
  }
  else
  {
  /* nothing to do, conversion not enabled have already notvalid status */
  }
}
 8001e3e:	bdf0      	pop	{r4, r5, r6, r7, pc}
 8001e40:	200009e4 	.word	0x200009e4
 8001e44:	200009c8 	.word	0x200009c8
 8001e48:	200009e8 	.word	0x200009e8
 8001e4c:	fffff23f 	.word	0xfffff23f
 8001e50:	7fffffe8 	.word	0x7fffffe8

08001e54 <RCM_ReadOngoingConv>:
 *
 * NOTE: This function is not part of the public API and users should not call it.
 */
void RCM_ReadOngoingConv (void)
{
  if ( RCM_NoInj_array [RCM_currentHandle].status == ongoing &&
 8001e54:	2306      	movs	r3, #6
{
 8001e56:	b570      	push	{r4, r5, r6, lr}
  if ( RCM_NoInj_array [RCM_currentHandle].status == ongoing &&
 8001e58:	490e      	ldr	r1, [pc, #56]	; (8001e94 <RCM_ReadOngoingConv+0x40>)
 8001e5a:	480f      	ldr	r0, [pc, #60]	; (8001e98 <RCM_ReadOngoingConv+0x44>)
 8001e5c:	780c      	ldrb	r4, [r1, #0]
 8001e5e:	4363      	muls	r3, r4
 8001e60:	18c3      	adds	r3, r0, r3
 8001e62:	785e      	ldrb	r6, [r3, #1]
 8001e64:	2e01      	cmp	r6, #1
 8001e66:	d10f      	bne.n	8001e88 <RCM_ReadOngoingConv+0x34>
      LL_ADC_IsActiveFlag_EOC( RCM_handle_array[RCM_currentHandle]->regADC ))
 8001e68:	4a0c      	ldr	r2, [pc, #48]	; (8001e9c <RCM_ReadOngoingConv+0x48>)
 8001e6a:	00a5      	lsls	r5, r4, #2
 8001e6c:	58aa      	ldr	r2, [r5, r2]
 8001e6e:	6815      	ldr	r5, [r2, #0]
  return (READ_BIT(ADCx->ISR, ADC_ISR_EOC) == (ADC_ISR_EOC));
 8001e70:	682a      	ldr	r2, [r5, #0]
  if ( RCM_NoInj_array [RCM_currentHandle].status == ongoing &&
 8001e72:	0752      	lsls	r2, r2, #29
 8001e74:	d508      	bpl.n	8001e88 <RCM_ReadOngoingConv+0x34>
  return (uint16_t)(READ_BIT(ADCx->DR, ADC_DR_DATA));
 8001e76:	6c2a      	ldr	r2, [r5, #64]	; 0x40
  {
    /* Reading of ADC Converted Value */
    RCM_NoInj_array [RCM_currentHandle].value = LL_ADC_REG_ReadConversionData12( RCM_handle_array[RCM_currentHandle]->regADC );
 8001e78:	805a      	strh	r2, [r3, #2]
    RCM_NoInj_array [RCM_currentHandle].status = valid;
 8001e7a:	2202      	movs	r2, #2
 8001e7c:	705a      	strb	r2, [r3, #1]
  MODIFY_REG(ADCx->CFGR1, ADC_CFGR1_DMAEN | ADC_CFGR1_DMACFG, DMATransfer);
 8001e7e:	2303      	movs	r3, #3
 8001e80:	68ea      	ldr	r2, [r5, #12]
 8001e82:	439a      	bics	r2, r3
 8001e84:	4332      	orrs	r2, r6
 8001e86:	60ea      	str	r2, [r5, #12]
    /* Restore back DMA configuration. */
    LL_ADC_REG_SetDMATransfer( RCM_handle_array[RCM_currentHandle]->regADC, LL_ADC_REG_DMA_TRANSFER_LIMITED );
  }

  /* Prepare next conversion */
  RCM_currentHandle = RCM_NoInj_array [RCM_currentHandle].next;
 8001e88:	2306      	movs	r3, #6
 8001e8a:	4363      	muls	r3, r4
 8001e8c:	18c3      	adds	r3, r0, r3
 8001e8e:	795b      	ldrb	r3, [r3, #5]
 8001e90:	700b      	strb	r3, [r1, #0]
}
 8001e92:	bd70      	pop	{r4, r5, r6, pc}
 8001e94:	200009e4 	.word	0x200009e4
 8001e98:	200009c8 	.word	0x200009c8
 8001e9c:	200009e8 	.word	0x200009e8

08001ea0 <HAL_MspInit>:
{
  /* USER CODE BEGIN MspInit 0 */

  /* USER CODE END MspInit 0 */

  __HAL_RCC_SYSCFG_CLK_ENABLE();
 8001ea0:	2001      	movs	r0, #1
 8001ea2:	4b0a      	ldr	r3, [pc, #40]	; (8001ecc <HAL_MspInit+0x2c>)
{
 8001ea4:	b082      	sub	sp, #8
  __HAL_RCC_SYSCFG_CLK_ENABLE();
 8001ea6:	6999      	ldr	r1, [r3, #24]
 8001ea8:	4301      	orrs	r1, r0
 8001eaa:	6199      	str	r1, [r3, #24]
  __HAL_RCC_PWR_CLK_ENABLE();
 8001eac:	2180      	movs	r1, #128	; 0x80
  __HAL_RCC_SYSCFG_CLK_ENABLE();
 8001eae:	699a      	ldr	r2, [r3, #24]
  __HAL_RCC_PWR_CLK_ENABLE();
 8001eb0:	0549      	lsls	r1, r1, #21
  __HAL_RCC_SYSCFG_CLK_ENABLE();
 8001eb2:	4002      	ands	r2, r0
 8001eb4:	9200      	str	r2, [sp, #0]
 8001eb6:	9a00      	ldr	r2, [sp, #0]
  __HAL_RCC_PWR_CLK_ENABLE();
 8001eb8:	69da      	ldr	r2, [r3, #28]
 8001eba:	430a      	orrs	r2, r1
 8001ebc:	61da      	str	r2, [r3, #28]
 8001ebe:	69db      	ldr	r3, [r3, #28]
 8001ec0:	400b      	ands	r3, r1
 8001ec2:	9301      	str	r3, [sp, #4]
 8001ec4:	9b01      	ldr	r3, [sp, #4]
  /* System interrupt init*/

  /* USER CODE BEGIN MspInit 1 */

  /* USER CODE END MspInit 1 */
}
 8001ec6:	b002      	add	sp, #8
 8001ec8:	4770      	bx	lr
 8001eca:	46c0      	nop			; (mov r8, r8)
 8001ecc:	40021000 	.word	0x40021000

08001ed0 <HAL_ADC_MspInit>:
* This function configures the hardware resources used in this example
* @param hadc: ADC handle pointer
* @retval None
*/
void HAL_ADC_MspInit(ADC_HandleTypeDef* hadc)
{
 8001ed0:	b570      	push	{r4, r5, r6, lr}
 8001ed2:	0005      	movs	r5, r0
 8001ed4:	b088      	sub	sp, #32
  GPIO_InitTypeDef GPIO_InitStruct = {0};
 8001ed6:	2214      	movs	r2, #20
 8001ed8:	2100      	movs	r1, #0
 8001eda:	a803      	add	r0, sp, #12
 8001edc:	f003 ff95 	bl	8005e0a <memset>
  if(hadc->Instance==ADC1)
 8001ee0:	4b26      	ldr	r3, [pc, #152]	; (8001f7c <HAL_ADC_MspInit+0xac>)
 8001ee2:	682a      	ldr	r2, [r5, #0]
 8001ee4:	429a      	cmp	r2, r3
 8001ee6:	d147      	bne.n	8001f78 <HAL_ADC_MspInit+0xa8>
  {
  /* USER CODE BEGIN ADC1_MspInit 0 */

  /* USER CODE END ADC1_MspInit 0 */
    /* Peripheral clock enable */
    __HAL_RCC_ADC1_CLK_ENABLE();
 8001ee8:	2080      	movs	r0, #128	; 0x80
 8001eea:	4b25      	ldr	r3, [pc, #148]	; (8001f80 <HAL_ADC_MspInit+0xb0>)
 8001eec:	0080      	lsls	r0, r0, #2
 8001eee:	6999      	ldr	r1, [r3, #24]
    PA4     ------> ADC_IN4
    PA5     ------> ADC_IN5
    PB1     ------> ADC_IN9
    */
    GPIO_InitStruct.Pin = M1_CURR_AMPL_W_Pin|M1_CURR_AMPL_V_Pin|M1_CURR_AMPL_U_Pin;
    GPIO_InitStruct.Mode = GPIO_MODE_ANALOG;
 8001ef0:	2403      	movs	r4, #3
    __HAL_RCC_ADC1_CLK_ENABLE();
 8001ef2:	4301      	orrs	r1, r0
 8001ef4:	6199      	str	r1, [r3, #24]
 8001ef6:	699a      	ldr	r2, [r3, #24]
    GPIO_InitStruct.Pull = GPIO_NOPULL;
    HAL_GPIO_Init(GPIOA, &GPIO_InitStruct);

    GPIO_InitStruct.Pin = M1_BUS_VOLTAGE_Pin;
    GPIO_InitStruct.Mode = GPIO_MODE_ANALOG;
    GPIO_InitStruct.Pull = GPIO_NOPULL;
 8001ef8:	2600      	movs	r6, #0
    __HAL_RCC_ADC1_CLK_ENABLE();
 8001efa:	4002      	ands	r2, r0
    __HAL_RCC_GPIOA_CLK_ENABLE();
 8001efc:	2080      	movs	r0, #128	; 0x80
    __HAL_RCC_ADC1_CLK_ENABLE();
 8001efe:	9200      	str	r2, [sp, #0]
 8001f00:	9a00      	ldr	r2, [sp, #0]
    __HAL_RCC_GPIOA_CLK_ENABLE();
 8001f02:	6959      	ldr	r1, [r3, #20]
 8001f04:	0280      	lsls	r0, r0, #10
 8001f06:	4301      	orrs	r1, r0
 8001f08:	6159      	str	r1, [r3, #20]
    __HAL_RCC_GPIOB_CLK_ENABLE();
 8001f0a:	2180      	movs	r1, #128	; 0x80
    __HAL_RCC_GPIOA_CLK_ENABLE();
 8001f0c:	695a      	ldr	r2, [r3, #20]
    __HAL_RCC_GPIOB_CLK_ENABLE();
 8001f0e:	02c9      	lsls	r1, r1, #11
    __HAL_RCC_GPIOA_CLK_ENABLE();
 8001f10:	4002      	ands	r2, r0
 8001f12:	9201      	str	r2, [sp, #4]
 8001f14:	9a01      	ldr	r2, [sp, #4]
    __HAL_RCC_GPIOB_CLK_ENABLE();
 8001f16:	695a      	ldr	r2, [r3, #20]
    HAL_GPIO_Init(GPIOA, &GPIO_InitStruct);
 8001f18:	2090      	movs	r0, #144	; 0x90
    __HAL_RCC_GPIOB_CLK_ENABLE();
 8001f1a:	430a      	orrs	r2, r1
 8001f1c:	615a      	str	r2, [r3, #20]
 8001f1e:	695b      	ldr	r3, [r3, #20]
    HAL_GPIO_Init(GPIOA, &GPIO_InitStruct);
 8001f20:	05c0      	lsls	r0, r0, #23
    __HAL_RCC_GPIOB_CLK_ENABLE();
 8001f22:	400b      	ands	r3, r1
 8001f24:	9302      	str	r3, [sp, #8]
 8001f26:	9b02      	ldr	r3, [sp, #8]
    GPIO_InitStruct.Pin = M1_CURR_AMPL_W_Pin|M1_CURR_AMPL_V_Pin|M1_CURR_AMPL_U_Pin;
 8001f28:	2338      	movs	r3, #56	; 0x38
    HAL_GPIO_Init(GPIOA, &GPIO_InitStruct);
 8001f2a:	a903      	add	r1, sp, #12
    GPIO_InitStruct.Pin = M1_CURR_AMPL_W_Pin|M1_CURR_AMPL_V_Pin|M1_CURR_AMPL_U_Pin;
 8001f2c:	9303      	str	r3, [sp, #12]
    GPIO_InitStruct.Mode = GPIO_MODE_ANALOG;
 8001f2e:	9404      	str	r4, [sp, #16]
    HAL_GPIO_Init(GPIOA, &GPIO_InitStruct);
 8001f30:	f001 f81c 	bl	8002f6c <HAL_GPIO_Init>
    GPIO_InitStruct.Pin = M1_BUS_VOLTAGE_Pin;
 8001f34:	2302      	movs	r3, #2
    HAL_GPIO_Init(M1_BUS_VOLTAGE_GPIO_Port, &GPIO_InitStruct);
 8001f36:	4813      	ldr	r0, [pc, #76]	; (8001f84 <HAL_ADC_MspInit+0xb4>)
 8001f38:	a903      	add	r1, sp, #12
    GPIO_InitStruct.Pin = M1_BUS_VOLTAGE_Pin;
 8001f3a:	9303      	str	r3, [sp, #12]
    GPIO_InitStruct.Mode = GPIO_MODE_ANALOG;
 8001f3c:	9404      	str	r4, [sp, #16]
    GPIO_InitStruct.Pull = GPIO_NOPULL;
 8001f3e:	9605      	str	r6, [sp, #20]
    HAL_GPIO_Init(M1_BUS_VOLTAGE_GPIO_Port, &GPIO_InitStruct);
 8001f40:	f001 f814 	bl	8002f6c <HAL_GPIO_Init>

    /* ADC1 DMA Init */
    /* ADC Init */
    hdma_adc.Instance = DMA1_Channel1;
 8001f44:	4c10      	ldr	r4, [pc, #64]	; (8001f88 <HAL_ADC_MspInit+0xb8>)
 8001f46:	4b11      	ldr	r3, [pc, #68]	; (8001f8c <HAL_ADC_MspInit+0xbc>)
    hdma_adc.Init.MemInc = DMA_MINC_ENABLE;
    hdma_adc.Init.PeriphDataAlignment = DMA_PDATAALIGN_HALFWORD;
    hdma_adc.Init.MemDataAlignment = DMA_MDATAALIGN_HALFWORD;
    hdma_adc.Init.Mode = DMA_CIRCULAR;
    hdma_adc.Init.Priority = DMA_PRIORITY_HIGH;
    if (HAL_DMA_Init(&hdma_adc) != HAL_OK)
 8001f48:	0020      	movs	r0, r4
    hdma_adc.Instance = DMA1_Channel1;
 8001f4a:	6023      	str	r3, [r4, #0]
    hdma_adc.Init.MemInc = DMA_MINC_ENABLE;
 8001f4c:	2380      	movs	r3, #128	; 0x80
 8001f4e:	60e3      	str	r3, [r4, #12]
    hdma_adc.Init.PeriphDataAlignment = DMA_PDATAALIGN_HALFWORD;
 8001f50:	18db      	adds	r3, r3, r3
 8001f52:	6123      	str	r3, [r4, #16]
    hdma_adc.Init.MemDataAlignment = DMA_MDATAALIGN_HALFWORD;
 8001f54:	2380      	movs	r3, #128	; 0x80
 8001f56:	00db      	lsls	r3, r3, #3
 8001f58:	6163      	str	r3, [r4, #20]
    hdma_adc.Init.Mode = DMA_CIRCULAR;
 8001f5a:	2320      	movs	r3, #32
 8001f5c:	61a3      	str	r3, [r4, #24]
    hdma_adc.Init.Priority = DMA_PRIORITY_HIGH;
 8001f5e:	2380      	movs	r3, #128	; 0x80
 8001f60:	019b      	lsls	r3, r3, #6
    hdma_adc.Init.Direction = DMA_PERIPH_TO_MEMORY;
 8001f62:	6066      	str	r6, [r4, #4]
    hdma_adc.Init.PeriphInc = DMA_PINC_DISABLE;
 8001f64:	60a6      	str	r6, [r4, #8]
    hdma_adc.Init.Priority = DMA_PRIORITY_HIGH;
 8001f66:	61e3      	str	r3, [r4, #28]
    if (HAL_DMA_Init(&hdma_adc) != HAL_OK)
 8001f68:	f000 ffce 	bl	8002f08 <HAL_DMA_Init>
 8001f6c:	42b0      	cmp	r0, r6
 8001f6e:	d001      	beq.n	8001f74 <HAL_ADC_MspInit+0xa4>
    {
      Error_Handler();
 8001f70:	f7fe fe70 	bl	8000c54 <Error_Handler>
    }

    __HAL_LINKDMA(hadc,DMA_Handle,hdma_adc);
 8001f74:	632c      	str	r4, [r5, #48]	; 0x30
 8001f76:	6265      	str	r5, [r4, #36]	; 0x24
  /* USER CODE BEGIN ADC1_MspInit 1 */

  /* USER CODE END ADC1_MspInit 1 */
  }

}
 8001f78:	b008      	add	sp, #32
 8001f7a:	bd70      	pop	{r4, r5, r6, pc}
 8001f7c:	40012400 	.word	0x40012400
 8001f80:	40021000 	.word	0x40021000
 8001f84:	48000400 	.word	0x48000400
 8001f88:	20000708 	.word	0x20000708
 8001f8c:	40020008 	.word	0x40020008

08001f90 <HAL_TIM_PWM_MspInit>:
* This function configures the hardware resources used in this example
* @param htim_pwm: TIM_PWM handle pointer
* @retval None
*/
void HAL_TIM_PWM_MspInit(TIM_HandleTypeDef* htim_pwm)
{
 8001f90:	b510      	push	{r4, lr}
 8001f92:	0004      	movs	r4, r0
 8001f94:	b088      	sub	sp, #32
  GPIO_InitTypeDef GPIO_InitStruct = {0};
 8001f96:	2214      	movs	r2, #20
 8001f98:	2100      	movs	r1, #0
 8001f9a:	a803      	add	r0, sp, #12
 8001f9c:	f003 ff35 	bl	8005e0a <memset>
  if(htim_pwm->Instance==TIM1)
 8001fa0:	4b11      	ldr	r3, [pc, #68]	; (8001fe8 <HAL_TIM_PWM_MspInit+0x58>)
 8001fa2:	6822      	ldr	r2, [r4, #0]
 8001fa4:	429a      	cmp	r2, r3
 8001fa6:	d11d      	bne.n	8001fe4 <HAL_TIM_PWM_MspInit+0x54>
  {
  /* USER CODE BEGIN TIM1_MspInit 0 */

  /* USER CODE END TIM1_MspInit 0 */
    /* Peripheral clock enable */
    __HAL_RCC_TIM1_CLK_ENABLE();
 8001fa8:	2080      	movs	r0, #128	; 0x80
 8001faa:	4b10      	ldr	r3, [pc, #64]	; (8001fec <HAL_TIM_PWM_MspInit+0x5c>)
 8001fac:	0100      	lsls	r0, r0, #4
 8001fae:	6999      	ldr	r1, [r3, #24]
 8001fb0:	4301      	orrs	r1, r0
 8001fb2:	6199      	str	r1, [r3, #24]

    __HAL_RCC_GPIOB_CLK_ENABLE();
 8001fb4:	2180      	movs	r1, #128	; 0x80
    __HAL_RCC_TIM1_CLK_ENABLE();
 8001fb6:	699a      	ldr	r2, [r3, #24]
    __HAL_RCC_GPIOB_CLK_ENABLE();
 8001fb8:	02c9      	lsls	r1, r1, #11
    __HAL_RCC_TIM1_CLK_ENABLE();
 8001fba:	4002      	ands	r2, r0
 8001fbc:	9201      	str	r2, [sp, #4]
 8001fbe:	9a01      	ldr	r2, [sp, #4]
    __HAL_RCC_GPIOB_CLK_ENABLE();
 8001fc0:	695a      	ldr	r2, [r3, #20]
    GPIO_InitStruct.Pin = M1_OCP_Pin;
    GPIO_InitStruct.Mode = GPIO_MODE_AF_PP;
    GPIO_InitStruct.Pull = GPIO_PULLDOWN;
    GPIO_InitStruct.Speed = GPIO_SPEED_FREQ_LOW;
    GPIO_InitStruct.Alternate = GPIO_AF2_TIM1;
    HAL_GPIO_Init(M1_OCP_GPIO_Port, &GPIO_InitStruct);
 8001fc2:	480b      	ldr	r0, [pc, #44]	; (8001ff0 <HAL_TIM_PWM_MspInit+0x60>)
    __HAL_RCC_GPIOB_CLK_ENABLE();
 8001fc4:	430a      	orrs	r2, r1
 8001fc6:	615a      	str	r2, [r3, #20]
 8001fc8:	695b      	ldr	r3, [r3, #20]
 8001fca:	400b      	ands	r3, r1
 8001fcc:	9302      	str	r3, [sp, #8]
 8001fce:	9b02      	ldr	r3, [sp, #8]
    GPIO_InitStruct.Pin = M1_OCP_Pin;
 8001fd0:	2380      	movs	r3, #128	; 0x80
 8001fd2:	015b      	lsls	r3, r3, #5
 8001fd4:	9303      	str	r3, [sp, #12]
    GPIO_InitStruct.Mode = GPIO_MODE_AF_PP;
 8001fd6:	2302      	movs	r3, #2
    HAL_GPIO_Init(M1_OCP_GPIO_Port, &GPIO_InitStruct);
 8001fd8:	a903      	add	r1, sp, #12
    GPIO_InitStruct.Mode = GPIO_MODE_AF_PP;
 8001fda:	9304      	str	r3, [sp, #16]
    GPIO_InitStruct.Pull = GPIO_PULLDOWN;
 8001fdc:	9305      	str	r3, [sp, #20]
    GPIO_InitStruct.Alternate = GPIO_AF2_TIM1;
 8001fde:	9307      	str	r3, [sp, #28]
    HAL_GPIO_Init(M1_OCP_GPIO_Port, &GPIO_InitStruct);
 8001fe0:	f000 ffc4 	bl	8002f6c <HAL_GPIO_Init>
  /* USER CODE BEGIN TIM1_MspInit 1 */

  /* USER CODE END TIM1_MspInit 1 */
  }

}
 8001fe4:	b008      	add	sp, #32
 8001fe6:	bd10      	pop	{r4, pc}
 8001fe8:	40012c00 	.word	0x40012c00
 8001fec:	40021000 	.word	0x40021000
 8001ff0:	48000400 	.word	0x48000400

08001ff4 <HAL_TIM_Base_MspInit>:
* This function configures the hardware resources used in this example
* @param htim_base: TIM_Base handle pointer
* @retval None
*/
void HAL_TIM_Base_MspInit(TIM_HandleTypeDef* htim_base)
{
 8001ff4:	b510      	push	{r4, lr}
 8001ff6:	0004      	movs	r4, r0
 8001ff8:	b088      	sub	sp, #32
  GPIO_InitTypeDef GPIO_InitStruct = {0};
 8001ffa:	2214      	movs	r2, #20
 8001ffc:	2100      	movs	r1, #0
 8001ffe:	a803      	add	r0, sp, #12
 8002000:	f003 ff03 	bl	8005e0a <memset>
  if(htim_base->Instance==TIM2)
 8002004:	2280      	movs	r2, #128	; 0x80
 8002006:	6823      	ldr	r3, [r4, #0]
 8002008:	05d2      	lsls	r2, r2, #23
 800200a:	4293      	cmp	r3, r2
 800200c:	d11f      	bne.n	800204e <HAL_TIM_Base_MspInit+0x5a>
  {
  /* USER CODE BEGIN TIM2_MspInit 0 */

  /* USER CODE END TIM2_MspInit 0 */
    /* Peripheral clock enable */
    __HAL_RCC_TIM2_CLK_ENABLE();
 800200e:	2001      	movs	r0, #1
 8002010:	4b16      	ldr	r3, [pc, #88]	; (800206c <HAL_TIM_Base_MspInit+0x78>)
 8002012:	69d9      	ldr	r1, [r3, #28]
 8002014:	4301      	orrs	r1, r0
 8002016:	61d9      	str	r1, [r3, #28]

    __HAL_RCC_GPIOA_CLK_ENABLE();
 8002018:	2180      	movs	r1, #128	; 0x80
    __HAL_RCC_TIM2_CLK_ENABLE();
 800201a:	69da      	ldr	r2, [r3, #28]
    __HAL_RCC_GPIOA_CLK_ENABLE();
 800201c:	0289      	lsls	r1, r1, #10
    __HAL_RCC_TIM2_CLK_ENABLE();
 800201e:	4002      	ands	r2, r0
 8002020:	9200      	str	r2, [sp, #0]
 8002022:	9a00      	ldr	r2, [sp, #0]
    __HAL_RCC_GPIOA_CLK_ENABLE();
 8002024:	695a      	ldr	r2, [r3, #20]
    GPIO_InitStruct.Pin = M1_HALL_H1_Pin|M1_HALL_H2_Pin|M1_HALL_H3_Pin;
    GPIO_InitStruct.Mode = GPIO_MODE_AF_PP;
    GPIO_InitStruct.Pull = GPIO_NOPULL;
    GPIO_InitStruct.Speed = GPIO_SPEED_FREQ_HIGH;
    GPIO_InitStruct.Alternate = GPIO_AF2_TIM2;
    HAL_GPIO_Init(GPIOA, &GPIO_InitStruct);
 8002026:	2090      	movs	r0, #144	; 0x90
    __HAL_RCC_GPIOA_CLK_ENABLE();
 8002028:	430a      	orrs	r2, r1
 800202a:	615a      	str	r2, [r3, #20]
 800202c:	695b      	ldr	r3, [r3, #20]
    GPIO_InitStruct.Speed = GPIO_SPEED_FREQ_HIGH;
 800202e:	2203      	movs	r2, #3
    __HAL_RCC_GPIOA_CLK_ENABLE();
 8002030:	400b      	ands	r3, r1
 8002032:	9301      	str	r3, [sp, #4]
 8002034:	9b01      	ldr	r3, [sp, #4]
    GPIO_InitStruct.Pin = M1_HALL_H1_Pin|M1_HALL_H2_Pin|M1_HALL_H3_Pin;
 8002036:	2307      	movs	r3, #7
    HAL_GPIO_Init(GPIOA, &GPIO_InitStruct);
 8002038:	a903      	add	r1, sp, #12
    GPIO_InitStruct.Pin = M1_HALL_H1_Pin|M1_HALL_H2_Pin|M1_HALL_H3_Pin;
 800203a:	9303      	str	r3, [sp, #12]
    HAL_GPIO_Init(GPIOA, &GPIO_InitStruct);
 800203c:	05c0      	lsls	r0, r0, #23
    GPIO_InitStruct.Mode = GPIO_MODE_AF_PP;
 800203e:	3b05      	subs	r3, #5
 8002040:	9304      	str	r3, [sp, #16]
    GPIO_InitStruct.Speed = GPIO_SPEED_FREQ_HIGH;
 8002042:	9206      	str	r2, [sp, #24]
    GPIO_InitStruct.Alternate = GPIO_AF2_TIM2;
 8002044:	9307      	str	r3, [sp, #28]
    HAL_GPIO_Init(GPIOA, &GPIO_InitStruct);
 8002046:	f000 ff91 	bl	8002f6c <HAL_GPIO_Init>
  /* USER CODE BEGIN TIM14_MspInit 1 */

  /* USER CODE END TIM14_MspInit 1 */
  }

}
 800204a:	b008      	add	sp, #32
 800204c:	bd10      	pop	{r4, pc}
  else if(htim_base->Instance==TIM14)
 800204e:	4a08      	ldr	r2, [pc, #32]	; (8002070 <HAL_TIM_Base_MspInit+0x7c>)
 8002050:	4293      	cmp	r3, r2
 8002052:	d1fa      	bne.n	800204a <HAL_TIM_Base_MspInit+0x56>
    __HAL_RCC_TIM14_CLK_ENABLE();
 8002054:	2080      	movs	r0, #128	; 0x80
 8002056:	4a05      	ldr	r2, [pc, #20]	; (800206c <HAL_TIM_Base_MspInit+0x78>)
 8002058:	0040      	lsls	r0, r0, #1
 800205a:	69d1      	ldr	r1, [r2, #28]
 800205c:	4301      	orrs	r1, r0
 800205e:	61d1      	str	r1, [r2, #28]
 8002060:	69d3      	ldr	r3, [r2, #28]
 8002062:	4003      	ands	r3, r0
 8002064:	9302      	str	r3, [sp, #8]
 8002066:	9b02      	ldr	r3, [sp, #8]
}
 8002068:	e7ef      	b.n	800204a <HAL_TIM_Base_MspInit+0x56>
 800206a:	46c0      	nop			; (mov r8, r8)
 800206c:	40021000 	.word	0x40021000
 8002070:	40002000 	.word	0x40002000

08002074 <HAL_TIM_MspPostInit>:

void HAL_TIM_MspPostInit(TIM_HandleTypeDef* htim)
{
 8002074:	b530      	push	{r4, r5, lr}
 8002076:	0004      	movs	r4, r0
 8002078:	b089      	sub	sp, #36	; 0x24
  GPIO_InitTypeDef GPIO_InitStruct = {0};
 800207a:	2214      	movs	r2, #20
 800207c:	2100      	movs	r1, #0
 800207e:	a803      	add	r0, sp, #12
 8002080:	f003 fec3 	bl	8005e0a <memset>
  if(htim->Instance==TIM1)
 8002084:	6823      	ldr	r3, [r4, #0]
 8002086:	4a22      	ldr	r2, [pc, #136]	; (8002110 <HAL_TIM_MspPostInit+0x9c>)
 8002088:	4293      	cmp	r3, r2
 800208a:	d12d      	bne.n	80020e8 <HAL_TIM_MspPostInit+0x74>
  {
  /* USER CODE BEGIN TIM1_MspPostInit 0 */

  /* USER CODE END TIM1_MspPostInit 0 */
    __HAL_RCC_GPIOB_CLK_ENABLE();
 800208c:	2080      	movs	r0, #128	; 0x80
 800208e:	4b21      	ldr	r3, [pc, #132]	; (8002114 <HAL_TIM_MspPostInit+0xa0>)
 8002090:	02c0      	lsls	r0, r0, #11
 8002092:	6959      	ldr	r1, [r3, #20]
    PA8     ------> TIM1_CH1
    PA9     ------> TIM1_CH2
    PA10     ------> TIM1_CH3
    */
    GPIO_InitStruct.Pin = M1_PWM_UL_Pin|M1_PWM_VL_Pin|M1_PWM_WL_Pin;
    GPIO_InitStruct.Mode = GPIO_MODE_AF_PP;
 8002094:	2402      	movs	r4, #2
    __HAL_RCC_GPIOB_CLK_ENABLE();
 8002096:	4301      	orrs	r1, r0
 8002098:	6159      	str	r1, [r3, #20]
    __HAL_RCC_GPIOA_CLK_ENABLE();
 800209a:	2180      	movs	r1, #128	; 0x80
    __HAL_RCC_GPIOB_CLK_ENABLE();
 800209c:	695a      	ldr	r2, [r3, #20]
    __HAL_RCC_GPIOA_CLK_ENABLE();
 800209e:	0289      	lsls	r1, r1, #10
    __HAL_RCC_GPIOB_CLK_ENABLE();
 80020a0:	4002      	ands	r2, r0
 80020a2:	9200      	str	r2, [sp, #0]
 80020a4:	9a00      	ldr	r2, [sp, #0]
    __HAL_RCC_GPIOA_CLK_ENABLE();
 80020a6:	695a      	ldr	r2, [r3, #20]
    GPIO_InitStruct.Pull = GPIO_PULLDOWN;
    GPIO_InitStruct.Speed = GPIO_SPEED_FREQ_HIGH;
 80020a8:	2503      	movs	r5, #3
    __HAL_RCC_GPIOA_CLK_ENABLE();
 80020aa:	430a      	orrs	r2, r1
 80020ac:	615a      	str	r2, [r3, #20]
 80020ae:	695b      	ldr	r3, [r3, #20]
    GPIO_InitStruct.Alternate = GPIO_AF2_TIM1;
    HAL_GPIO_Init(GPIOB, &GPIO_InitStruct);
 80020b0:	4819      	ldr	r0, [pc, #100]	; (8002118 <HAL_TIM_MspPostInit+0xa4>)
    __HAL_RCC_GPIOA_CLK_ENABLE();
 80020b2:	400b      	ands	r3, r1
 80020b4:	9301      	str	r3, [sp, #4]
 80020b6:	9b01      	ldr	r3, [sp, #4]
    GPIO_InitStruct.Pin = M1_PWM_UL_Pin|M1_PWM_VL_Pin|M1_PWM_WL_Pin;
 80020b8:	23e0      	movs	r3, #224	; 0xe0
    HAL_GPIO_Init(GPIOB, &GPIO_InitStruct);
 80020ba:	a903      	add	r1, sp, #12
    GPIO_InitStruct.Pin = M1_PWM_UL_Pin|M1_PWM_VL_Pin|M1_PWM_WL_Pin;
 80020bc:	021b      	lsls	r3, r3, #8
 80020be:	9303      	str	r3, [sp, #12]
    GPIO_InitStruct.Mode = GPIO_MODE_AF_PP;
 80020c0:	9404      	str	r4, [sp, #16]
    GPIO_InitStruct.Pull = GPIO_PULLDOWN;
 80020c2:	9405      	str	r4, [sp, #20]
    GPIO_InitStruct.Speed = GPIO_SPEED_FREQ_HIGH;
 80020c4:	9506      	str	r5, [sp, #24]
    GPIO_InitStruct.Alternate = GPIO_AF2_TIM1;
 80020c6:	9407      	str	r4, [sp, #28]
    HAL_GPIO_Init(GPIOB, &GPIO_InitStruct);
 80020c8:	f000 ff50 	bl	8002f6c <HAL_GPIO_Init>

    GPIO_InitStruct.Pin = M1_PWM_UH_Pin|M1_PWM_VH_Pin|M1_PWM_WH_Pin;
 80020cc:	23e0      	movs	r3, #224	; 0xe0
 80020ce:	00db      	lsls	r3, r3, #3
 80020d0:	9303      	str	r3, [sp, #12]
    GPIO_InitStruct.Mode = GPIO_MODE_AF_PP;
 80020d2:	9404      	str	r4, [sp, #16]
    GPIO_InitStruct.Pull = GPIO_PULLDOWN;
 80020d4:	9405      	str	r4, [sp, #20]
    GPIO_InitStruct.Speed = GPIO_SPEED_FREQ_HIGH;
 80020d6:	9506      	str	r5, [sp, #24]
    GPIO_InitStruct.Alternate = GPIO_AF2_TIM1;
 80020d8:	9407      	str	r4, [sp, #28]
    GPIO_InitStruct.Pin = DAC_EMUL_CH1_Pin;
    GPIO_InitStruct.Mode = GPIO_MODE_AF_PP;
    GPIO_InitStruct.Pull = GPIO_NOPULL;
    GPIO_InitStruct.Speed = GPIO_SPEED_FREQ_LOW;
    GPIO_InitStruct.Alternate = GPIO_AF4_TIM14;
    HAL_GPIO_Init(DAC_EMUL_CH1_GPIO_Port, &GPIO_InitStruct);
 80020da:	2090      	movs	r0, #144	; 0x90
 80020dc:	a903      	add	r1, sp, #12
 80020de:	05c0      	lsls	r0, r0, #23
 80020e0:	f000 ff44 	bl	8002f6c <HAL_GPIO_Init>
  /* USER CODE BEGIN TIM14_MspPostInit 1 */

  /* USER CODE END TIM14_MspPostInit 1 */
  }

}
 80020e4:	b009      	add	sp, #36	; 0x24
 80020e6:	bd30      	pop	{r4, r5, pc}
  else if(htim->Instance==TIM14)
 80020e8:	4a0c      	ldr	r2, [pc, #48]	; (800211c <HAL_TIM_MspPostInit+0xa8>)
 80020ea:	4293      	cmp	r3, r2
 80020ec:	d1fa      	bne.n	80020e4 <HAL_TIM_MspPostInit+0x70>
    __HAL_RCC_GPIOA_CLK_ENABLE();
 80020ee:	2080      	movs	r0, #128	; 0x80
 80020f0:	4a08      	ldr	r2, [pc, #32]	; (8002114 <HAL_TIM_MspPostInit+0xa0>)
 80020f2:	0280      	lsls	r0, r0, #10
 80020f4:	6951      	ldr	r1, [r2, #20]
 80020f6:	4301      	orrs	r1, r0
 80020f8:	6151      	str	r1, [r2, #20]
 80020fa:	6953      	ldr	r3, [r2, #20]
 80020fc:	4003      	ands	r3, r0
 80020fe:	9302      	str	r3, [sp, #8]
 8002100:	9b02      	ldr	r3, [sp, #8]
    GPIO_InitStruct.Pin = DAC_EMUL_CH1_Pin;
 8002102:	2380      	movs	r3, #128	; 0x80
 8002104:	9303      	str	r3, [sp, #12]
    GPIO_InitStruct.Mode = GPIO_MODE_AF_PP;
 8002106:	3b7e      	subs	r3, #126	; 0x7e
 8002108:	9304      	str	r3, [sp, #16]
    GPIO_InitStruct.Alternate = GPIO_AF4_TIM14;
 800210a:	3302      	adds	r3, #2
 800210c:	9307      	str	r3, [sp, #28]
 800210e:	e7e4      	b.n	80020da <HAL_TIM_MspPostInit+0x66>
 8002110:	40012c00 	.word	0x40012c00
 8002114:	40021000 	.word	0x40021000
 8002118:	48000400 	.word	0x48000400
 800211c:	40002000 	.word	0x40002000

08002120 <HAL_UART_MspInit>:
* This function configures the hardware resources used in this example
* @param huart: UART handle pointer
* @retval None
*/
void HAL_UART_MspInit(UART_HandleTypeDef* huart)
{
 8002120:	b510      	push	{r4, lr}
 8002122:	0004      	movs	r4, r0
 8002124:	b088      	sub	sp, #32
  GPIO_InitTypeDef GPIO_InitStruct = {0};
 8002126:	2214      	movs	r2, #20
 8002128:	2100      	movs	r1, #0
 800212a:	a803      	add	r0, sp, #12
 800212c:	f003 fe6d 	bl	8005e0a <memset>
  if(huart->Instance==USART1)
 8002130:	4b10      	ldr	r3, [pc, #64]	; (8002174 <HAL_UART_MspInit+0x54>)
 8002132:	6822      	ldr	r2, [r4, #0]
 8002134:	429a      	cmp	r2, r3
 8002136:	d11a      	bne.n	800216e <HAL_UART_MspInit+0x4e>
  {
  /* USER CODE BEGIN USART1_MspInit 0 */

  /* USER CODE END USART1_MspInit 0 */
    /* Peripheral clock enable */
    __HAL_RCC_USART1_CLK_ENABLE();
 8002138:	2080      	movs	r0, #128	; 0x80
 800213a:	4b0f      	ldr	r3, [pc, #60]	; (8002178 <HAL_UART_MspInit+0x58>)
 800213c:	01c0      	lsls	r0, r0, #7
 800213e:	6999      	ldr	r1, [r3, #24]
 8002140:	4301      	orrs	r1, r0
 8002142:	6199      	str	r1, [r3, #24]

    __HAL_RCC_GPIOB_CLK_ENABLE();
 8002144:	2180      	movs	r1, #128	; 0x80
    __HAL_RCC_USART1_CLK_ENABLE();
 8002146:	699a      	ldr	r2, [r3, #24]
    __HAL_RCC_GPIOB_CLK_ENABLE();
 8002148:	02c9      	lsls	r1, r1, #11
    __HAL_RCC_USART1_CLK_ENABLE();
 800214a:	4002      	ands	r2, r0
 800214c:	9201      	str	r2, [sp, #4]
 800214e:	9a01      	ldr	r2, [sp, #4]
    __HAL_RCC_GPIOB_CLK_ENABLE();
 8002150:	695a      	ldr	r2, [r3, #20]
    GPIO_InitStruct.Pin = UART_TX_Pin|UART_RX_Pin;
    GPIO_InitStruct.Mode = GPIO_MODE_AF_PP;
    GPIO_InitStruct.Pull = GPIO_NOPULL;
    GPIO_InitStruct.Speed = GPIO_SPEED_FREQ_LOW;
    GPIO_InitStruct.Alternate = GPIO_AF0_USART1;
    HAL_GPIO_Init(GPIOB, &GPIO_InitStruct);
 8002152:	480a      	ldr	r0, [pc, #40]	; (800217c <HAL_UART_MspInit+0x5c>)
    __HAL_RCC_GPIOB_CLK_ENABLE();
 8002154:	430a      	orrs	r2, r1
 8002156:	615a      	str	r2, [r3, #20]
 8002158:	695b      	ldr	r3, [r3, #20]
 800215a:	400b      	ands	r3, r1
 800215c:	9302      	str	r3, [sp, #8]
 800215e:	9b02      	ldr	r3, [sp, #8]
    GPIO_InitStruct.Pin = UART_TX_Pin|UART_RX_Pin;
 8002160:	23c0      	movs	r3, #192	; 0xc0
    HAL_GPIO_Init(GPIOB, &GPIO_InitStruct);
 8002162:	a903      	add	r1, sp, #12
    GPIO_InitStruct.Pin = UART_TX_Pin|UART_RX_Pin;
 8002164:	9303      	str	r3, [sp, #12]
    GPIO_InitStruct.Mode = GPIO_MODE_AF_PP;
 8002166:	3bbe      	subs	r3, #190	; 0xbe
 8002168:	9304      	str	r3, [sp, #16]
    HAL_GPIO_Init(GPIOB, &GPIO_InitStruct);
 800216a:	f000 feff 	bl	8002f6c <HAL_GPIO_Init>
  /* USER CODE BEGIN USART1_MspInit 1 */

  /* USER CODE END USART1_MspInit 1 */
  }

}
 800216e:	b008      	add	sp, #32
 8002170:	bd10      	pop	{r4, pc}
 8002172:	46c0      	nop			; (mov r8, r8)
 8002174:	40013800 	.word	0x40013800
 8002178:	40021000 	.word	0x40021000
 800217c:	48000400 	.word	0x48000400

08002180 <DMA1_Channel1_IRQHandler>:
  /* USER CODE BEGIN CURRENT_REGULATION_IRQn 0 */

  /* USER CODE END CURRENT_REGULATION_IRQn 0 */

  /* Clear Flags */
  DMA1->IFCR = (LL_DMA_ISR_GIF1|LL_DMA_ISR_TCIF1|LL_DMA_ISR_HTIF1);
 8002180:	2207      	movs	r2, #7
{
 8002182:	b510      	push	{r4, lr}
  DMA1->IFCR = (LL_DMA_ISR_GIF1|LL_DMA_ISR_TCIF1|LL_DMA_ISR_HTIF1);
 8002184:	4b03      	ldr	r3, [pc, #12]	; (8002194 <DMA1_Channel1_IRQHandler+0x14>)
 8002186:	605a      	str	r2, [r3, #4]
  /* USER CODE BEGIN CURRENT_REGULATION_IRQn 1 */

  /* USER CODE END CURRENT_REGULATION_IRQn 1 */

    UI_DACUpdate(TSK_HighFrequencyTask());  /*GUI, this section is present only if DAC is enabled*/
 8002188:	f7ff f958 	bl	800143c <TSK_HighFrequencyTask>
 800218c:	f000 f970 	bl	8002470 <UI_DACUpdate>
  /* USER CODE BEGIN CURRENT_REGULATION_IRQn 2 */

  /* USER CODE END CURRENT_REGULATION_IRQn 2 */
}
 8002190:	bd10      	pop	{r4, pc}
 8002192:	46c0      	nop			; (mov r8, r8)
 8002194:	40020000 	.word	0x40020000

08002198 <TIM1_BRK_UP_TRG_COM_IRQHandler>:
  * @param  TIMx Timer instance
  * @retval State of bit (1 or 0).
  */
__STATIC_INLINE uint32_t LL_TIM_IsActiveFlag_UPDATE(TIM_TypeDef *TIMx)
{
  return ((READ_BIT(TIMx->SR, TIM_SR_UIF) == (TIM_SR_UIF)) ? 1UL : 0UL);
 8002198:	2201      	movs	r2, #1
  * @brief  This function handles first motor TIMx Update, Break-in interrupt request.
  * @param  None
  * @retval None
  */
void TIMx_UP_BRK_M1_IRQHandler(void)
{
 800219a:	b510      	push	{r4, lr}
  /* USER CODE BEGIN TIMx_UP_BRK_M1_IRQn 0 */

  /* USER CODE END TIMx_UP_BRK_M1_IRQn 0 */

  if(LL_TIM_IsActiveFlag_UPDATE(PWM_Handle_M1.pParams_str->TIMx) && LL_TIM_IsEnabledIT_UPDATE(PWM_Handle_M1.pParams_str->TIMx))
 800219c:	4c0e      	ldr	r4, [pc, #56]	; (80021d8 <TIM1_BRK_UP_TRG_COM_IRQHandler+0x40>)
 800219e:	6fa3      	ldr	r3, [r4, #120]	; 0x78
 80021a0:	681b      	ldr	r3, [r3, #0]
 80021a2:	6919      	ldr	r1, [r3, #16]
 80021a4:	4211      	tst	r1, r2
 80021a6:	d007      	beq.n	80021b8 <TIM1_BRK_UP_TRG_COM_IRQHandler+0x20>
  * @param  TIMx Timer instance
  * @retval State of bit (1 or 0).
  */
__STATIC_INLINE uint32_t LL_TIM_IsEnabledIT_UPDATE(TIM_TypeDef *TIMx)
{
  return ((READ_BIT(TIMx->DIER, TIM_DIER_UIE) == (TIM_DIER_UIE)) ? 1UL : 0UL);
 80021a8:	68d9      	ldr	r1, [r3, #12]
 80021aa:	4211      	tst	r1, r2
 80021ac:	d004      	beq.n	80021b8 <TIM1_BRK_UP_TRG_COM_IRQHandler+0x20>
  WRITE_REG(TIMx->SR, ~(TIM_SR_UIF));
 80021ae:	3a03      	subs	r2, #3
  {
    LL_TIM_ClearFlag_UPDATE(PWM_Handle_M1.pParams_str->TIMx);
    R3_1_TIMx_UP_IRQHandler( &PWM_Handle_M1 );
 80021b0:	0020      	movs	r0, r4
 80021b2:	611a      	str	r2, [r3, #16]
 80021b4:	f003 fa5c 	bl	8005670 <R3_1_TIMx_UP_IRQHandler>
  return ((READ_BIT(TIMx->SR, TIM_SR_BIF) == (TIM_SR_BIF)) ? 1UL : 0UL);
 80021b8:	2280      	movs	r2, #128	; 0x80
    /* USER CODE BEGIN PWM_Update */

    /* USER CODE END PWM_Update */
  }
  if(LL_TIM_IsActiveFlag_BRK(PWM_Handle_M1.pParams_str->TIMx) && LL_TIM_IsEnabledIT_BRK(PWM_Handle_M1.pParams_str->TIMx))
 80021ba:	6fa3      	ldr	r3, [r4, #120]	; 0x78
 80021bc:	681b      	ldr	r3, [r3, #0]
 80021be:	6919      	ldr	r1, [r3, #16]
 80021c0:	4211      	tst	r1, r2
 80021c2:	d008      	beq.n	80021d6 <TIM1_BRK_UP_TRG_COM_IRQHandler+0x3e>
  * @param  TIMx Timer instance
  * @retval State of bit (1 or 0).
  */
__STATIC_INLINE uint32_t LL_TIM_IsEnabledIT_BRK(TIM_TypeDef *TIMx)
{
  return ((READ_BIT(TIMx->DIER, TIM_DIER_BIE) == (TIM_DIER_BIE)) ? 1UL : 0UL);
 80021c4:	68d9      	ldr	r1, [r3, #12]
 80021c6:	4211      	tst	r1, r2
 80021c8:	d005      	beq.n	80021d6 <TIM1_BRK_UP_TRG_COM_IRQHandler+0x3e>
  WRITE_REG(TIMx->SR, ~(TIM_SR_BIF));
 80021ca:	3a02      	subs	r2, #2
 80021cc:	3aff      	subs	r2, #255	; 0xff
  {
    LL_TIM_ClearFlag_BRK(PWM_Handle_M1.pParams_str->TIMx);
    F0XX_BRK_IRQHandler(&PWM_Handle_M1);
 80021ce:	0020      	movs	r0, r4
 80021d0:	611a      	str	r2, [r3, #16]
 80021d2:	f003 fa8d 	bl	80056f0 <F0XX_BRK_IRQHandler>
   /* No other interrupts are routed to this handler */
  }
  /* USER CODE BEGIN TIMx_UP_BRK_M1_IRQn 1 */

  /* USER CODE END TIMx_UP_BRK_M1_IRQn 1 */
}
 80021d6:	bd10      	pop	{r4, pc}
 80021d8:	20000358 	.word	0x20000358

080021dc <DMA1_Channel4_5_IRQHandler>:
  * @param  DMAx DMAx Instance
  * @retval State of bit (1 or 0).
  */
__STATIC_INLINE uint32_t LL_DMA_IsActiveFlag_TC4(DMA_TypeDef *DMAx)
{
  return (READ_BIT(DMAx->ISR, DMA_ISR_TCIF4) == (DMA_ISR_TCIF4));
 80021dc:	2280      	movs	r2, #128	; 0x80
 80021de:	4b03      	ldr	r3, [pc, #12]	; (80021ec <DMA1_Channel4_5_IRQHandler+0x10>)
 80021e0:	0192      	lsls	r2, r2, #6
 80021e2:	6819      	ldr	r1, [r3, #0]
{
  /* USER CODE BEGIN DMAx_R1_M1_IRQn 0 */

  /* USER CODE END DMAx_R1_M1_IRQn 0 */

  if (LL_DMA_IsActiveFlag_TC4(DMA1))
 80021e4:	4211      	tst	r1, r2
 80021e6:	d000      	beq.n	80021ea <DMA1_Channel4_5_IRQHandler+0xe>
  * @param  DMAx DMAx Instance
  * @retval None
  */
__STATIC_INLINE void LL_DMA_ClearFlag_TC4(DMA_TypeDef *DMAx)
{
  WRITE_REG(DMAx->IFCR, DMA_IFCR_CTCIF4);
 80021e8:	605a      	str	r2, [r3, #4]
    /* USER CODE END DMAx_R1_M1_TC4 */
  }
  /* USER CODE BEGIN DMAx_R1_M1_IRQn 1 */

  /* USER CODE END DMAx_R1_M1_IRQn 1 */
}
 80021ea:	4770      	bx	lr
 80021ec:	40020000 	.word	0x40020000

080021f0 <TIM2_IRQHandler>:
  * @brief  This function handles TIMx global interrupt request for M1 Speed Sensor.
  * @param  None
  * @retval None
  */
void SPD_TIM_M1_IRQHandler(void)
{
 80021f0:	b510      	push	{r4, lr}
  /* USER CODE BEGIN SPD_TIM_M1_IRQn 0 */

  /* USER CODE END SPD_TIM_M1_IRQn 0 */

  /* HALL Timer Update IT always enabled, no need to check enable UPDATE state */
  if (LL_TIM_IsActiveFlag_UPDATE(HALL_M1.TIMx) != 0)
 80021f2:	4c0b      	ldr	r4, [pc, #44]	; (8002220 <TIM2_IRQHandler+0x30>)
 80021f4:	6ae3      	ldr	r3, [r4, #44]	; 0x2c
  return ((READ_BIT(TIMx->SR, TIM_SR_UIF) == (TIM_SR_UIF)) ? 1UL : 0UL);
 80021f6:	691a      	ldr	r2, [r3, #16]
 80021f8:	07d2      	lsls	r2, r2, #31
 80021fa:	d505      	bpl.n	8002208 <TIM2_IRQHandler+0x18>
  WRITE_REG(TIMx->SR, ~(TIM_SR_UIF));
 80021fc:	2202      	movs	r2, #2
 80021fe:	4252      	negs	r2, r2
  {
    LL_TIM_ClearFlag_UPDATE(HALL_M1.TIMx);
    HALL_TIMx_UP_IRQHandler(&HALL_M1);
 8002200:	0020      	movs	r0, r4
 8002202:	611a      	str	r2, [r3, #16]
 8002204:	f002 fc82 	bl	8004b0c <HALL_TIMx_UP_IRQHandler>
  else
  {
    /* Nothing to do */
  }
  /* HALL Timer CC1 IT always enabled, no need to check enable CC1 state */
  if (LL_TIM_IsActiveFlag_CC1 (HALL_M1.TIMx))
 8002208:	6ae3      	ldr	r3, [r4, #44]	; 0x2c
  return ((READ_BIT(TIMx->SR, TIM_SR_CC1IF) == (TIM_SR_CC1IF)) ? 1UL : 0UL);
 800220a:	691a      	ldr	r2, [r3, #16]
 800220c:	0792      	lsls	r2, r2, #30
 800220e:	d505      	bpl.n	800221c <TIM2_IRQHandler+0x2c>
  WRITE_REG(TIMx->SR, ~(TIM_SR_CC1IF));
 8002210:	2203      	movs	r2, #3
 8002212:	4252      	negs	r2, r2
  {
    LL_TIM_ClearFlag_CC1(HALL_M1.TIMx);
    HALL_TIMx_CC_IRQHandler(&HALL_M1);
 8002214:	0020      	movs	r0, r4
 8002216:	611a      	str	r2, [r3, #16]
 8002218:	f002 fad2 	bl	80047c0 <HALL_TIMx_CC_IRQHandler>
  /* Nothing to do */
  }
  /* USER CODE BEGIN SPD_TIM_M1_IRQn 1 */

  /* USER CODE END SPD_TIM_M1_IRQn 1 */
}
 800221c:	bd10      	pop	{r4, pc}
 800221e:	46c0      	nop			; (mov r8, r8)
 8002220:	200000f8 	.word	0x200000f8

08002224 <USART1_IRQHandler>:
  * @brief  This function handles USART interrupt request.
  * @param  None
  * @retval None
  */
void USART_IRQHandler(void)
{
 8002224:	b570      	push	{r4, r5, r6, lr}
  /* USER CODE BEGIN USART_IRQn 0 */

  /* USER CODE END USART_IRQn 0 */
  if (LL_USART_IsActiveFlag_RXNE(pUSART.USARTx)) /* Valid data have been received */
 8002226:	4c17      	ldr	r4, [pc, #92]	; (8002284 <USART1_IRQHandler+0x60>)
 8002228:	0023      	movs	r3, r4
 800222a:	33fc      	adds	r3, #252	; 0xfc
 800222c:	6a5b      	ldr	r3, [r3, #36]	; 0x24
  * @param  USARTx USART Instance
  * @retval State of bit (1 or 0).
  */
__STATIC_INLINE uint32_t LL_USART_IsActiveFlag_RXNE(USART_TypeDef *USARTx)
{
  return ((READ_BIT(USARTx->ISR, USART_ISR_RXNE) == (USART_ISR_RXNE)) ? 1UL : 0UL);
 800222e:	69da      	ldr	r2, [r3, #28]
 8002230:	0692      	lsls	r2, r2, #26
 8002232:	d509      	bpl.n	8002248 <USART1_IRQHandler+0x24>
  * @param  USARTx USART Instance
  * @retval Value between Min_Data=0x00 and Max_Data=0xFF
  */
__STATIC_INLINE uint8_t LL_USART_ReceiveData8(USART_TypeDef *USARTx)
{
  return (uint8_t)(READ_BIT(USARTx->RDR, USART_RDR_RDR) & 0xFFU);
 8002234:	8c99      	ldrh	r1, [r3, #36]	; 0x24
  {
    uint16_t retVal;
    retVal = *(uint16_t*)(UFCP_RX_IRQ_Handler(&pUSART,LL_USART_ReceiveData8(pUSART.USARTx)));
 8002236:	0020      	movs	r0, r4
 8002238:	b2c9      	uxtb	r1, r1
 800223a:	f003 fd01 	bl	8005c40 <UFCP_RX_IRQ_Handler>
 800223e:	8803      	ldrh	r3, [r0, #0]
    if (retVal == 1)
 8002240:	2b01      	cmp	r3, #1
 8002242:	d119      	bne.n	8002278 <USART1_IRQHandler+0x54>
    {
      UI_SerialCommunicationTimeOutStart();
 8002244:	f000 f928 	bl	8002498 <UI_SerialCommunicationTimeOutStart>
  /* USER CODE BEGIN USART_RXNE */

  /* USER CODE END USART_RXNE  */
  }

  if (LL_USART_IsActiveFlag_TXE(pUSART.USARTx))
 8002248:	0023      	movs	r3, r4
 800224a:	33fc      	adds	r3, #252	; 0xfc
 800224c:	6a5b      	ldr	r3, [r3, #36]	; 0x24
  return ((READ_BIT(USARTx->ISR, USART_ISR_TXE) == (USART_ISR_TXE)) ? 1UL : 0UL);
 800224e:	69db      	ldr	r3, [r3, #28]
 8002250:	061b      	lsls	r3, r3, #24
 8002252:	d502      	bpl.n	800225a <USART1_IRQHandler+0x36>
  {
    UFCP_TX_IRQ_Handler(&pUSART);
 8002254:	0020      	movs	r0, r4
 8002256:	f003 fc7c 	bl	8005b52 <UFCP_TX_IRQ_Handler>
    /* USER CODE BEGIN USART_TXE */

    /* USER CODE END USART_TXE   */
  }

  if (LL_USART_IsActiveFlag_ORE(pUSART.USARTx)) /* Overrun error occurs */
 800225a:	0026      	movs	r6, r4
  return ((READ_BIT(USARTx->ISR, USART_ISR_ORE) == (USART_ISR_ORE)) ? 1UL : 0UL);
 800225c:	2508      	movs	r5, #8
 800225e:	36fc      	adds	r6, #252	; 0xfc
 8002260:	6a73      	ldr	r3, [r6, #36]	; 0x24
 8002262:	69db      	ldr	r3, [r3, #28]
 8002264:	422b      	tst	r3, r5
 8002266:	d006      	beq.n	8002276 <USART1_IRQHandler+0x52>
  {
    /* Send Overrun message */
    UFCP_OVR_IRQ_Handler(&pUSART);
 8002268:	0020      	movs	r0, r4
 800226a:	f003 fd4f 	bl	8005d0c <UFCP_OVR_IRQ_Handler>
    LL_USART_ClearFlag_ORE(pUSART.USARTx); /* Clear overrun flag */
 800226e:	6a73      	ldr	r3, [r6, #36]	; 0x24
  WRITE_REG(USARTx->ICR, USART_ICR_ORECF);
 8002270:	621d      	str	r5, [r3, #32]
    UI_SerialCommunicationTimeOutStop();
 8002272:	f000 f90b 	bl	800248c <UI_SerialCommunicationTimeOutStop>
    /* USER CODE END USART_ORE   */
  }
  /* USER CODE BEGIN USART_IRQn 1 */

  /* USER CODE END USART_IRQn 1 */
}
 8002276:	bd70      	pop	{r4, r5, r6, pc}
    if (retVal == 2)
 8002278:	2b02      	cmp	r3, #2
 800227a:	d1e5      	bne.n	8002248 <USART1_IRQHandler+0x24>
      UI_SerialCommunicationTimeOutStop();
 800227c:	f000 f906 	bl	800248c <UI_SerialCommunicationTimeOutStop>
 8002280:	e7e2      	b.n	8002248 <USART1_IRQHandler+0x24>
 8002282:	46c0      	nop			; (mov r8, r8)
 8002284:	200004e0 	.word	0x200004e0

08002288 <HardFault_Handler>:
  * @brief  This function handles Hard Fault exception.
  * @param  None
  * @retval None
  */
void HardFault_Handler(void)
{
 8002288:	b5f8      	push	{r3, r4, r5, r6, r7, lr}
 /* USER CODE BEGIN HardFault_IRQn 0 */

 /* USER CODE END HardFault_IRQn 0 */
  TSK_HardwareFaultTask();
 800228a:	f7ff f9bd 	bl	8001608 <TSK_HardwareFaultTask>
  return ((READ_BIT(USARTx->ISR, USART_ISR_ORE) == (USART_ISR_ORE)) ? 1UL : 0UL);
 800228e:	2508      	movs	r5, #8
  return ((READ_BIT(USARTx->ISR, USART_ISR_TXE) == (USART_ISR_TXE)) ? 1UL : 0UL);
 8002290:	2680      	movs	r6, #128	; 0x80

  /* Go to infinite loop when Hard Fault exception occurs */
  while (1)
  {
    {
      if (LL_USART_IsActiveFlag_ORE(pUSART.USARTx)) /* Overrun error occurs */
 8002292:	4c16      	ldr	r4, [pc, #88]	; (80022ec <HardFault_Handler+0x64>)
 8002294:	0027      	movs	r7, r4
 8002296:	37fc      	adds	r7, #252	; 0xfc
 8002298:	6a7b      	ldr	r3, [r7, #36]	; 0x24
  return ((READ_BIT(USARTx->ISR, USART_ISR_ORE) == (USART_ISR_ORE)) ? 1UL : 0UL);
 800229a:	69db      	ldr	r3, [r3, #28]
 800229c:	422b      	tst	r3, r5
 800229e:	d006      	beq.n	80022ae <HardFault_Handler+0x26>
      {
        /* Send Overrun message */
        UFCP_OVR_IRQ_Handler(&pUSART);
 80022a0:	0020      	movs	r0, r4
 80022a2:	f003 fd33 	bl	8005d0c <UFCP_OVR_IRQ_Handler>
        LL_USART_ClearFlag_ORE(pUSART.USARTx); /* Clear overrun flag */
 80022a6:	6a7b      	ldr	r3, [r7, #36]	; 0x24
  WRITE_REG(USARTx->ICR, USART_ICR_ORECF);
 80022a8:	621d      	str	r5, [r3, #32]
        UI_SerialCommunicationTimeOutStop();
 80022aa:	f000 f8ef 	bl	800248c <UI_SerialCommunicationTimeOutStop>
      }

      if (LL_USART_IsActiveFlag_TXE(pUSART.USARTx))
 80022ae:	0023      	movs	r3, r4
 80022b0:	33fc      	adds	r3, #252	; 0xfc
 80022b2:	6a5b      	ldr	r3, [r3, #36]	; 0x24
  return ((READ_BIT(USARTx->ISR, USART_ISR_TXE) == (USART_ISR_TXE)) ? 1UL : 0UL);
 80022b4:	69db      	ldr	r3, [r3, #28]
 80022b6:	4233      	tst	r3, r6
 80022b8:	d002      	beq.n	80022c0 <HardFault_Handler+0x38>
      {
        UFCP_TX_IRQ_Handler(&pUSART);
 80022ba:	0020      	movs	r0, r4
 80022bc:	f003 fc49 	bl	8005b52 <UFCP_TX_IRQ_Handler>
      }

      if (LL_USART_IsActiveFlag_RXNE(pUSART.USARTx)) /* Valid data have been received */
 80022c0:	0023      	movs	r3, r4
 80022c2:	33fc      	adds	r3, #252	; 0xfc
 80022c4:	6a5b      	ldr	r3, [r3, #36]	; 0x24
  return ((READ_BIT(USARTx->ISR, USART_ISR_RXNE) == (USART_ISR_RXNE)) ? 1UL : 0UL);
 80022c6:	69da      	ldr	r2, [r3, #28]
 80022c8:	0692      	lsls	r2, r2, #26
 80022ca:	d5e2      	bpl.n	8002292 <HardFault_Handler+0xa>
  return (uint8_t)(READ_BIT(USARTx->RDR, USART_RDR_RDR) & 0xFFU);
 80022cc:	8c99      	ldrh	r1, [r3, #36]	; 0x24
      {
        uint16_t retVal;
        retVal = *(uint16_t*)(UFCP_RX_IRQ_Handler(&pUSART,LL_USART_ReceiveData8(pUSART.USARTx)));
 80022ce:	0020      	movs	r0, r4
 80022d0:	b2c9      	uxtb	r1, r1
 80022d2:	f003 fcb5 	bl	8005c40 <UFCP_RX_IRQ_Handler>
 80022d6:	8803      	ldrh	r3, [r0, #0]
        if (retVal == 1)
 80022d8:	2b01      	cmp	r3, #1
 80022da:	d102      	bne.n	80022e2 <HardFault_Handler+0x5a>
        {
          UI_SerialCommunicationTimeOutStart();
 80022dc:	f000 f8dc 	bl	8002498 <UI_SerialCommunicationTimeOutStart>
        }
        if (retVal == 2)
 80022e0:	e7d7      	b.n	8002292 <HardFault_Handler+0xa>
 80022e2:	2b02      	cmp	r3, #2
 80022e4:	d1d5      	bne.n	8002292 <HardFault_Handler+0xa>
        {
          UI_SerialCommunicationTimeOutStop();
 80022e6:	f000 f8d1 	bl	800248c <UI_SerialCommunicationTimeOutStop>
 80022ea:	e7d2      	b.n	8002292 <HardFault_Handler+0xa>
 80022ec:	200004e0 	.word	0x200004e0

080022f0 <SysTick_Handler>:
 /* USER CODE END HardFault_IRQn 1 */

}

void SysTick_Handler(void)
{
 80022f0:	b510      	push	{r4, lr}
#ifdef MC_HAL_IS_USED
static uint8_t SystickDividerCounter = SYSTICK_DIVIDER;
  /* USER CODE BEGIN SysTick_IRQn 0 */

  /* USER CODE END SysTick_IRQn 0 */
  if (SystickDividerCounter == SYSTICK_DIVIDER)
 80022f2:	4c08      	ldr	r4, [pc, #32]	; (8002314 <SysTick_Handler+0x24>)
 80022f4:	7823      	ldrb	r3, [r4, #0]
 80022f6:	2b02      	cmp	r3, #2
 80022f8:	d105      	bne.n	8002306 <SysTick_Handler+0x16>
  {
    HAL_IncTick();
 80022fa:	f000 fc5d 	bl	8002bb8 <HAL_IncTick>
    HAL_SYSTICK_IRQHandler();
 80022fe:	f000 fdfe 	bl	8002efe <HAL_SYSTICK_IRQHandler>
    SystickDividerCounter = 0;
 8002302:	2300      	movs	r3, #0
 8002304:	7023      	strb	r3, [r4, #0]
  }
  SystickDividerCounter ++;
 8002306:	7823      	ldrb	r3, [r4, #0]
 8002308:	3301      	adds	r3, #1
 800230a:	7023      	strb	r3, [r4, #0]
#endif /* MC_HAL_IS_USED */

  /* USER CODE BEGIN SysTick_IRQn 1 */
  /* USER CODE END SysTick_IRQn 1 */
    MC_RunMotorControlTasks();
 800230c:	f7ff f96e 	bl	80015ec <MC_RunMotorControlTasks>

  /* USER CODE BEGIN SysTick_IRQn 2 */
  /* USER CODE END SysTick_IRQn 2 */
}
 8002310:	bd10      	pop	{r4, pc}
 8002312:	46c0      	nop			; (mov r8, r8)
 8002314:	20000620 	.word	0x20000620

08002318 <EXTI0_1_IRQHandler>:
  * @note   Please check each device line mapping for EXTI Line availability
  * @retval @note This bit is set when the selected edge event arrives on the interrupt
  */
__STATIC_INLINE uint32_t LL_EXTI_ReadFlag_0_31(uint32_t ExtiLine)
{
  return (uint32_t)(READ_BIT(EXTI->PR, ExtiLine));
 8002318:	2201      	movs	r2, #1
 800231a:	4b04      	ldr	r3, [pc, #16]	; (800232c <EXTI0_1_IRQHandler+0x14>)

/**
  * @brief  This function handles Button IRQ on PIN PF0.
  */
void EXTI0_1_IRQHandler (void)
{
 800231c:	b510      	push	{r4, lr}
 800231e:	6959      	ldr	r1, [r3, #20]
	/* USER CODE BEGIN START_STOP_BTN */
  if ( LL_EXTI_ReadFlag_0_31(LL_EXTI_LINE_0) )
 8002320:	4211      	tst	r1, r2
 8002322:	d002      	beq.n	800232a <EXTI0_1_IRQHandler+0x12>
  * @note   Please check each device line mapping for EXTI Line availability
  * @retval None
  */
__STATIC_INLINE void LL_EXTI_ClearFlag_0_31(uint32_t ExtiLine)
{
  WRITE_REG(EXTI->PR, ExtiLine);
 8002324:	615a      	str	r2, [r3, #20]
  {
    LL_EXTI_ClearFlag_0_31 (LL_EXTI_LINE_0);
    UI_HandleStartStopButton_cb ();
 8002326:	f000 f8bd 	bl	80024a4 <UI_HandleStartStopButton_cb>
  }

}
 800232a:	bd10      	pop	{r4, pc}
 800232c:	40010400 	.word	0x40010400

08002330 <_sbrk>:
void *_sbrk(ptrdiff_t incr)
{
  extern uint8_t _end; /* Symbol defined in the linker script */
  extern uint8_t _estack; /* Symbol defined in the linker script */
  extern uint32_t _Min_Stack_Size; /* Symbol defined in the linker script */
  const uint32_t stack_limit = (uint32_t)&_estack - (uint32_t)&_Min_Stack_Size;
 8002330:	4a0b      	ldr	r2, [pc, #44]	; (8002360 <_sbrk+0x30>)
 8002332:	490c      	ldr	r1, [pc, #48]	; (8002364 <_sbrk+0x34>)
{
 8002334:	0003      	movs	r3, r0
  const uint32_t stack_limit = (uint32_t)&_estack - (uint32_t)&_Min_Stack_Size;
 8002336:	1a89      	subs	r1, r1, r2
  const uint8_t *max_heap = (uint8_t *)stack_limit;
  uint8_t *prev_heap_end;

  /* Initialize heap end at first call */
  if (NULL == __sbrk_heap_end)
 8002338:	4a0b      	ldr	r2, [pc, #44]	; (8002368 <_sbrk+0x38>)
{
 800233a:	b510      	push	{r4, lr}
  if (NULL == __sbrk_heap_end)
 800233c:	6810      	ldr	r0, [r2, #0]
 800233e:	2800      	cmp	r0, #0
 8002340:	d101      	bne.n	8002346 <_sbrk+0x16>
  {
    __sbrk_heap_end = &_end;
 8002342:	480a      	ldr	r0, [pc, #40]	; (800236c <_sbrk+0x3c>)
 8002344:	6010      	str	r0, [r2, #0]
  }

  /* Protect heap from growing into the reserved MSP stack */
  if (__sbrk_heap_end + incr > max_heap)
 8002346:	6810      	ldr	r0, [r2, #0]
 8002348:	18c3      	adds	r3, r0, r3
 800234a:	428b      	cmp	r3, r1
 800234c:	d906      	bls.n	800235c <_sbrk+0x2c>
  {
    errno = ENOMEM;
 800234e:	f003 fd29 	bl	8005da4 <__errno>
 8002352:	230c      	movs	r3, #12
 8002354:	6003      	str	r3, [r0, #0]
    return (void *)-1;
 8002356:	2001      	movs	r0, #1
 8002358:	4240      	negs	r0, r0

  prev_heap_end = __sbrk_heap_end;
  __sbrk_heap_end += incr;

  return (void *)prev_heap_end;
}
 800235a:	bd10      	pop	{r4, pc}
  __sbrk_heap_end += incr;
 800235c:	6013      	str	r3, [r2, #0]
  return (void *)prev_heap_end;
 800235e:	e7fc      	b.n	800235a <_sbrk+0x2a>
 8002360:	00000400 	.word	0x00000400
 8002364:	20001000 	.word	0x20001000
 8002368:	200009f8 	.word	0x200009f8
 800236c:	20000ae8 	.word	0x20000ae8

08002370 <UI_TaskInit>:
static volatile uint16_t  bCOMTimeoutCounter;
static volatile uint16_t  bCOMATRTimeCounter = SERIALCOM_ATR_TIME_TICKS;

void UI_TaskInit( uint32_t* pUICfg, uint8_t bMCNum, MCI_Handle_t* pMCIList[],
                  MCT_Handle_t* pMCTList[],const char* s_fwVer )
{
 8002370:	b5f0      	push	{r4, r5, r6, r7, lr}
 8002372:	b089      	sub	sp, #36	; 0x24
 8002374:	9005      	str	r0, [sp, #20]
      pDAC = &DAC_UI_Params;
 8002376:	4825      	ldr	r0, [pc, #148]	; (800240c <UI_TaskInit+0x9c>)
{
 8002378:	001d      	movs	r5, r3
      pDAC->_Super = UI_Params;
 800237a:	0003      	movs	r3, r0
      pDAC = &DAC_UI_Params;
 800237c:	4c24      	ldr	r4, [pc, #144]	; (8002410 <UI_TaskInit+0xa0>)
{
 800237e:	9207      	str	r2, [sp, #28]
      pDAC->_Super = UI_Params;
 8002380:	4a24      	ldr	r2, [pc, #144]	; (8002414 <UI_TaskInit+0xa4>)
      pDAC = &DAC_UI_Params;
 8002382:	6020      	str	r0, [r4, #0]
{
 8002384:	9106      	str	r1, [sp, #24]
      pDAC->_Super = UI_Params;
 8002386:	cac2      	ldmia	r2!, {r1, r6, r7}
 8002388:	c3c2      	stmia	r3!, {r1, r6, r7}
 800238a:	cac2      	ldmia	r2!, {r1, r6, r7}
 800238c:	c3c2      	stmia	r3!, {r1, r6, r7}
 800238e:	cac2      	ldmia	r2!, {r1, r6, r7}
 8002390:	c3c2      	stmia	r3!, {r1, r6, r7}
 8002392:	cac2      	ldmia	r2!, {r1, r6, r7}
 8002394:	c3c2      	stmia	r3!, {r1, r6, r7}

      UI_Init( &pDAC->_Super, bMCNum, pMCIList, pMCTList, pUICfg ); /* Init UI and link MC obj */
 8002396:	9b05      	ldr	r3, [sp, #20]
 8002398:	9a07      	ldr	r2, [sp, #28]
 800239a:	9906      	ldr	r1, [sp, #24]
 800239c:	9300      	str	r3, [sp, #0]
 800239e:	002b      	movs	r3, r5
 80023a0:	f000 f88b 	bl	80024ba <UI_Init>
      UI_DACInit( &pDAC->_Super ); /* Init DAC */
 80023a4:	6820      	ldr	r0, [r4, #0]
 80023a6:	f000 f9c7 	bl	8002738 <UI_DACInit>
      UI_SetDAC( &pDAC->_Super, DAC_CH0, MC_PROTOCOL_REG_I_A );
 80023aa:	6820      	ldr	r0, [r4, #0]
 80023ac:	2223      	movs	r2, #35	; 0x23
 80023ae:	2100      	movs	r1, #0
 80023b0:	f000 f9ce 	bl	8002750 <UI_SetDAC>
      UI_SetDAC( &pDAC->_Super, DAC_CH1, MC_PROTOCOL_REG_I_B );
 80023b4:	2101      	movs	r1, #1
 80023b6:	6820      	ldr	r0, [r4, #0]
 80023b8:	2224      	movs	r2, #36	; 0x24
 80023ba:	f000 f9c9 	bl	8002750 <UI_SetDAC>

    pMCP = &MCP_UI_Params;
 80023be:	4a16      	ldr	r2, [pc, #88]	; (8002418 <UI_TaskInit+0xa8>)
 80023c0:	4e16      	ldr	r6, [pc, #88]	; (800241c <UI_TaskInit+0xac>)
    pMCP->_Super = UI_Params;
 80023c2:	0013      	movs	r3, r2
 80023c4:	4f13      	ldr	r7, [pc, #76]	; (8002414 <UI_TaskInit+0xa4>)
    pMCP = &MCP_UI_Params;
 80023c6:	6032      	str	r2, [r6, #0]
    pMCP->_Super = UI_Params;
 80023c8:	cf07      	ldmia	r7!, {r0, r1, r2}
 80023ca:	c307      	stmia	r3!, {r0, r1, r2}
 80023cc:	cf07      	ldmia	r7!, {r0, r1, r2}
 80023ce:	c307      	stmia	r3!, {r0, r1, r2}
 80023d0:	cf07      	ldmia	r7!, {r0, r1, r2}
 80023d2:	c307      	stmia	r3!, {r0, r1, r2}
 80023d4:	cf07      	ldmia	r7!, {r0, r1, r2}
 80023d6:	c307      	stmia	r3!, {r0, r1, r2}

    UFCP_Init( & pUSART );
 80023d8:	4f11      	ldr	r7, [pc, #68]	; (8002420 <UI_TaskInit+0xb0>)
 80023da:	0038      	movs	r0, r7
 80023dc:	f003 fbb5 	bl	8005b4a <UFCP_Init>
    MCP_Init(pMCP, (FCP_Handle_t *) & pUSART, & UFCP_Send, & UFCP_Receive, & UFCP_AbortReceive, pDAC, s_fwVer);
 80023e0:	9b0e      	ldr	r3, [sp, #56]	; 0x38
 80023e2:	0039      	movs	r1, r7
 80023e4:	9302      	str	r3, [sp, #8]
 80023e6:	6823      	ldr	r3, [r4, #0]
 80023e8:	4a0e      	ldr	r2, [pc, #56]	; (8002424 <UI_TaskInit+0xb4>)
 80023ea:	9301      	str	r3, [sp, #4]
 80023ec:	4b0e      	ldr	r3, [pc, #56]	; (8002428 <UI_TaskInit+0xb8>)
 80023ee:	9300      	str	r3, [sp, #0]
 80023f0:	6830      	ldr	r0, [r6, #0]
 80023f2:	4b0e      	ldr	r3, [pc, #56]	; (800242c <UI_TaskInit+0xbc>)
 80023f4:	f7ff fba0 	bl	8001b38 <MCP_Init>
    UI_Init( &pMCP->_Super, bMCNum, pMCIList, pMCTList, pUICfg ); /* Initialize UI and link MC components */
 80023f8:	9b05      	ldr	r3, [sp, #20]
 80023fa:	9a07      	ldr	r2, [sp, #28]
 80023fc:	9300      	str	r3, [sp, #0]
 80023fe:	9906      	ldr	r1, [sp, #24]
 8002400:	002b      	movs	r3, r5
 8002402:	6830      	ldr	r0, [r6, #0]
 8002404:	f000 f859 	bl	80024ba <UI_Init>

}
 8002408:	b009      	add	sp, #36	; 0x24
 800240a:	bdf0      	pop	{r4, r5, r6, r7, pc}
 800240c:	200000bc 	.word	0x200000bc
 8002410:	20000acc 	.word	0x20000acc
 8002414:	200004b0 	.word	0x200004b0
 8002418:	200009fc 	.word	0x200009fc
 800241c:	20000ad0 	.word	0x20000ad0
 8002420:	200004e0 	.word	0x200004e0
 8002424:	08005be9 	.word	0x08005be9
 8002428:	08005d21 	.word	0x08005d21
 800242c:	08005bb9 	.word	0x08005bb9

08002430 <UI_Scheduler>:

__weak void UI_Scheduler(void)
{
  if(bUITaskCounter > 0u)
 8002430:	4a0c      	ldr	r2, [pc, #48]	; (8002464 <UI_Scheduler+0x34>)
 8002432:	8813      	ldrh	r3, [r2, #0]
 8002434:	2b00      	cmp	r3, #0
 8002436:	d003      	beq.n	8002440 <UI_Scheduler+0x10>
  {
    bUITaskCounter--;
 8002438:	8813      	ldrh	r3, [r2, #0]
 800243a:	3b01      	subs	r3, #1
 800243c:	b29b      	uxth	r3, r3
 800243e:	8013      	strh	r3, [r2, #0]
  }

  if(bCOMTimeoutCounter > 1u)
 8002440:	4a09      	ldr	r2, [pc, #36]	; (8002468 <UI_Scheduler+0x38>)
 8002442:	8813      	ldrh	r3, [r2, #0]
 8002444:	2b01      	cmp	r3, #1
 8002446:	d903      	bls.n	8002450 <UI_Scheduler+0x20>
  {
    bCOMTimeoutCounter--;
 8002448:	8813      	ldrh	r3, [r2, #0]
 800244a:	3b01      	subs	r3, #1
 800244c:	b29b      	uxth	r3, r3
 800244e:	8013      	strh	r3, [r2, #0]
  }

  if(bCOMATRTimeCounter > 1u)
 8002450:	4a06      	ldr	r2, [pc, #24]	; (800246c <UI_Scheduler+0x3c>)
 8002452:	8813      	ldrh	r3, [r2, #0]
 8002454:	2b01      	cmp	r3, #1
 8002456:	d903      	bls.n	8002460 <UI_Scheduler+0x30>
  {
    bCOMATRTimeCounter--;
 8002458:	8813      	ldrh	r3, [r2, #0]
 800245a:	3b01      	subs	r3, #1
 800245c:	b29b      	uxth	r3, r3
 800245e:	8013      	strh	r3, [r2, #0]
  }
}
 8002460:	4770      	bx	lr
 8002462:	46c0      	nop			; (mov r8, r8)
 8002464:	20000aca 	.word	0x20000aca
 8002468:	20000ac8 	.word	0x20000ac8
 800246c:	20000622 	.word	0x20000622

08002470 <UI_DACUpdate>:

__weak void UI_DACUpdate(uint8_t bMotorNbr)
{
 8002470:	b570      	push	{r4, r5, r6, lr}
  if (UI_GetSelectedMC(&pDAC->_Super) == bMotorNbr)
 8002472:	4d05      	ldr	r5, [pc, #20]	; (8002488 <UI_DACUpdate+0x18>)
{
 8002474:	0004      	movs	r4, r0
  if (UI_GetSelectedMC(&pDAC->_Super) == bMotorNbr)
 8002476:	6828      	ldr	r0, [r5, #0]
 8002478:	f000 f830 	bl	80024dc <UI_GetSelectedMC>
 800247c:	42a0      	cmp	r0, r4
 800247e:	d102      	bne.n	8002486 <UI_DACUpdate+0x16>
  {
    UI_DACExec(&pDAC->_Super); /* Exec DAC update */
 8002480:	6828      	ldr	r0, [r5, #0]
 8002482:	f000 f95f 	bl	8002744 <UI_DACExec>
  }
}
 8002486:	bd70      	pop	{r4, r5, r6, pc}
 8002488:	20000acc 	.word	0x20000acc

0800248c <UI_SerialCommunicationTimeOutStop>:
  return (retVal);
}

__weak void UI_SerialCommunicationTimeOutStop(void)
{
  bCOMTimeoutCounter = 0u;
 800248c:	2200      	movs	r2, #0
 800248e:	4b01      	ldr	r3, [pc, #4]	; (8002494 <UI_SerialCommunicationTimeOutStop+0x8>)
 8002490:	801a      	strh	r2, [r3, #0]
}
 8002492:	4770      	bx	lr
 8002494:	20000ac8 	.word	0x20000ac8

08002498 <UI_SerialCommunicationTimeOutStart>:

__weak void UI_SerialCommunicationTimeOutStart(void)
{
  bCOMTimeoutCounter = SERIALCOM_TIMEOUT_OCCURENCE_TICKS;
 8002498:	224f      	movs	r2, #79	; 0x4f
 800249a:	4b01      	ldr	r3, [pc, #4]	; (80024a0 <UI_SerialCommunicationTimeOutStart+0x8>)
 800249c:	801a      	strh	r2, [r3, #0]
}
 800249e:	4770      	bx	lr
 80024a0:	20000ac8 	.word	0x20000ac8

080024a4 <UI_HandleStartStopButton_cb>:

__weak void UI_HandleStartStopButton_cb (void)
{
 80024a4:	b510      	push	{r4, lr}
/* USER CODE BEGIN START_STOP_BTN */
  if (MC_GetSTMStateMotor1() == IDLE)
 80024a6:	f7fe fbe7 	bl	8000c78 <MC_GetSTMStateMotor1>
 80024aa:	2800      	cmp	r0, #0
 80024ac:	d102      	bne.n	80024b4 <UI_HandleStartStopButton_cb+0x10>
  {
    /* Ramp parameters should be tuned for the actual motor */
    MC_StartMotor1();
 80024ae:	f7fe fbd3 	bl	8000c58 <MC_StartMotor1>
  else
  {
    MC_StopMotor1();
  }
/* USER CODE END START_STOP_BTN */
}
 80024b2:	bd10      	pop	{r4, pc}
    MC_StopMotor1();
 80024b4:	f7fe fbd8 	bl	8000c68 <MC_StopMotor1>
}
 80024b8:	e7fb      	b.n	80024b2 <UI_HandleStartStopButton_cb+0xe>

080024ba <UI_Init>:
  */
__weak void UI_Init(UI_Handle_t *pHandle, uint8_t bMCNum, MCI_Handle_t ** pMCI, MCT_Handle_t** pMCT, uint32_t* pUICfg)
{
  pHandle->bDriveNum = bMCNum;
  pHandle->pMCI = pMCI;
  pHandle->pMCT = pMCT;
 80024ba:	6243      	str	r3, [r0, #36]	; 0x24
  pHandle->bSelectedDrive = 0u;
  pHandle->pUICfg = pUICfg;
 80024bc:	9b00      	ldr	r3, [sp, #0]
  pHandle->bDriveNum = bMCNum;
 80024be:	7701      	strb	r1, [r0, #28]
  pHandle->pUICfg = pUICfg;
 80024c0:	6283      	str	r3, [r0, #40]	; 0x28
  pHandle->bSelectedDrive = 0u;
 80024c2:	2300      	movs	r3, #0
  pHandle->pMCI = pMCI;
 80024c4:	6202      	str	r2, [r0, #32]
  pHandle->bSelectedDrive = 0u;
 80024c6:	8583      	strh	r3, [r0, #44]	; 0x2c
  pHandle->test1=0;
}
 80024c8:	4770      	bx	lr

080024ca <UI_SelectMC>:
  * @retval Boolean set to true if the bSelectMC is valid oterwise return false.
  */
__weak bool UI_SelectMC(UI_Handle_t *pHandle,uint8_t bSelectMC)
{
  bool retVal = true;
  if (bSelectMC  >= pHandle->bDriveNum)
 80024ca:	7f02      	ldrb	r2, [r0, #28]
{
 80024cc:	0003      	movs	r3, r0
  {
    retVal = false;
 80024ce:	2000      	movs	r0, #0
  if (bSelectMC  >= pHandle->bDriveNum)
 80024d0:	428a      	cmp	r2, r1
 80024d2:	d902      	bls.n	80024da <UI_SelectMC+0x10>
  }
  else
  {
    pHandle->bSelectedDrive = bSelectMC;
 80024d4:	332c      	adds	r3, #44	; 0x2c
 80024d6:	7019      	strb	r1, [r3, #0]
  bool retVal = true;
 80024d8:	3001      	adds	r0, #1
  }
  return retVal;
}
 80024da:	4770      	bx	lr

080024dc <UI_GetSelectedMC>:
  * @param  pHandle: Pointer on Handle structure of UI component.
  * @retval Return the currently selected MC, zero based, on which UI operates.
  */
__weak uint8_t UI_GetSelectedMC(UI_Handle_t *pHandle)
{
  return (pHandle->bSelectedDrive);
 80024dc:	302c      	adds	r0, #44	; 0x2c
 80024de:	7800      	ldrb	r0, [r0, #0]
}
 80024e0:	4770      	bx	lr

080024e2 <UI_SetReg>:
  *         See MC_PROTOCOL_REG_xxx for code definition.
  * @param  wValue: New value to set.
  * @retval Return the currently selected MC, zero based, on which UI operates.
  */
__weak bool UI_SetReg(UI_Handle_t *pHandle, MC_Protocol_REG_t bRegID, int32_t wValue)
{
 80024e2:	b573      	push	{r0, r1, r4, r5, r6, lr}
 80024e4:	0005      	movs	r5, r0
  MCI_Handle_t * pMCI = pHandle->pMCI[pHandle->bSelectedDrive];
 80024e6:	002b      	movs	r3, r5
 80024e8:	332c      	adds	r3, #44	; 0x2c
 80024ea:	781b      	ldrb	r3, [r3, #0]
{
 80024ec:	0014      	movs	r4, r2
  MCI_Handle_t * pMCI = pHandle->pMCI[pHandle->bSelectedDrive];
 80024ee:	6a2a      	ldr	r2, [r5, #32]
 80024f0:	009b      	lsls	r3, r3, #2
 80024f2:	58d6      	ldr	r6, [r2, r3]
  MCT_Handle_t * pMCT = pHandle->pMCT[pHandle->bSelectedDrive];
 80024f4:	6a6a      	ldr	r2, [r5, #36]	; 0x24
{
 80024f6:	0008      	movs	r0, r1
  MCT_Handle_t * pMCT = pHandle->pMCT[pHandle->bSelectedDrive];
 80024f8:	58d3      	ldr	r3, [r2, r3]

  bool retVal = true;
  switch (bRegID)
 80024fa:	290f      	cmp	r1, #15
 80024fc:	d809      	bhi.n	8002512 <UI_SetReg+0x30>
 80024fe:	f7fd fe0d 	bl	800011c <__gnu_thumb1_case_uqi>
 8002502:	0c0e      	.short	0x0c0e
 8002504:	200c2f0c 	.word	0x200c2f0c
 8002508:	52472a25 	.word	0x52472a25
 800250c:	625b5855 	.word	0x625b5855
 8002510:	6865      	.short	0x6865
 8002512:	2941      	cmp	r1, #65	; 0x41
 8002514:	d060      	beq.n	80025d8 <UI_SetReg+0xf6>
 8002516:	295b      	cmp	r1, #91	; 0x5b
 8002518:	d008      	beq.n	800252c <UI_SetReg+0x4a>
 800251a:	2500      	movs	r5, #0
 800251c:	e004      	b.n	8002528 <UI_SetReg+0x46>
  {
  case MC_PROTOCOL_REG_TARGET_MOTOR:
    {
      retVal = UI_SelectMC(pHandle,(uint8_t)wValue);
 800251e:	0028      	movs	r0, r5
 8002520:	b2e1      	uxtb	r1, r4
 8002522:	f7ff ffd2 	bl	80024ca <UI_SelectMC>
 8002526:	0005      	movs	r5, r0
    retVal = false;
    break;
  }

  return retVal;
}
 8002528:	0028      	movs	r0, r5
 800252a:	bd76      	pop	{r1, r2, r4, r5, r6, pc}
      MCI_ExecSpeedRamp(pMCI,(int16_t)((wValue*SPEED_UNIT)/_RPM),0);
 800252c:	2106      	movs	r1, #6
 800252e:	0020      	movs	r0, r4
 8002530:	f7fd fe9c 	bl	800026c <__divsi3>
 8002534:	2200      	movs	r2, #0
 8002536:	b201      	sxth	r1, r0
 8002538:	0030      	movs	r0, r6
 800253a:	f7fe fbaf 	bl	8000c9c <MCI_ExecSpeedRamp>
  bool retVal = true;
 800253e:	2501      	movs	r5, #1
    break;
 8002540:	e7f2      	b.n	8002528 <UI_SetReg+0x46>
      PID_SetKP(pMCT->pPIDSpeed,(int16_t)wValue);
 8002542:	6818      	ldr	r0, [r3, #0]
 8002544:	b221      	sxth	r1, r4
      PID_SetKP(pMCT->pPIDId,(int16_t)wValue);
 8002546:	f002 fbb2 	bl	8004cae <PID_SetKP>
    break;
 800254a:	e7f8      	b.n	800253e <UI_SetReg+0x5c>
      PID_SetKI(pMCT->pPIDSpeed,(int16_t)wValue);
 800254c:	6818      	ldr	r0, [r3, #0]
 800254e:	b221      	sxth	r1, r4
      PID_SetKI(pMCT->pPIDId,(int16_t)wValue);
 8002550:	f002 fbaf 	bl	8004cb2 <PID_SetKI>
    break;
 8002554:	e7f3      	b.n	800253e <UI_SetReg+0x5c>
      PID_SetKD(pMCT->pPIDSpeed,(int16_t)wValue);
 8002556:	6818      	ldr	r0, [r3, #0]
 8002558:	b221      	sxth	r1, r4
      PID_SetKD(pMCT->pPIDId,(int16_t)wValue);
 800255a:	f002 fbb8 	bl	8004cce <PID_SetKD>
    break;
 800255e:	e7ee      	b.n	800253e <UI_SetReg+0x5c>
      if ((STC_Modality_t)wValue == STC_TORQUE_MODE)
 8002560:	b2e4      	uxtb	r4, r4
 8002562:	2c00      	cmp	r4, #0
 8002564:	d108      	bne.n	8002578 <UI_SetReg+0x96>
        MCI_ExecTorqueRamp(pMCI, MCI_GetTeref(pMCI),0);
 8002566:	0030      	movs	r0, r6
 8002568:	f7fe fc76 	bl	8000e58 <MCI_GetTeref>
 800256c:	0022      	movs	r2, r4
 800256e:	0001      	movs	r1, r0
 8002570:	0030      	movs	r0, r6
 8002572:	f7fe fb9b 	bl	8000cac <MCI_ExecTorqueRamp>
      if ((STC_Modality_t)wValue == STC_SPEED_MODE)
 8002576:	e7e2      	b.n	800253e <UI_SetReg+0x5c>
  bool retVal = true;
 8002578:	2501      	movs	r5, #1
      if ((STC_Modality_t)wValue == STC_SPEED_MODE)
 800257a:	42ac      	cmp	r4, r5
 800257c:	d1d4      	bne.n	8002528 <UI_SetReg+0x46>
        MCI_ExecSpeedRamp(pMCI, MCI_GetMecSpeedRefUnit(pMCI),0);
 800257e:	0030      	movs	r0, r6
 8002580:	f7fe fc12 	bl	8000da8 <MCI_GetMecSpeedRefUnit>
 8002584:	2200      	movs	r2, #0
 8002586:	0001      	movs	r1, r0
 8002588:	0030      	movs	r0, r6
 800258a:	f7fe fb87 	bl	8000c9c <MCI_ExecSpeedRamp>
 800258e:	e7cb      	b.n	8002528 <UI_SetReg+0x46>
      currComp = MCI_GetIqdref(pMCI);
 8002590:	0030      	movs	r0, r6
 8002592:	f7fe fc37 	bl	8000e04 <MCI_GetIqdref>
      currComp.q = (int16_t)wValue;
 8002596:	ab01      	add	r3, sp, #4
      currComp = MCI_GetIqdref(pMCI);
 8002598:	9001      	str	r0, [sp, #4]
      currComp.q = (int16_t)wValue;
 800259a:	801c      	strh	r4, [r3, #0]
      MCI_SetCurrentReferences(pMCI,currComp);
 800259c:	0030      	movs	r0, r6
 800259e:	9901      	ldr	r1, [sp, #4]
 80025a0:	f7fe fb8b 	bl	8000cba <MCI_SetCurrentReferences>
    break;
 80025a4:	e7cb      	b.n	800253e <UI_SetReg+0x5c>
      PID_SetKP(pMCT->pPIDIq,(int16_t)wValue);
 80025a6:	6858      	ldr	r0, [r3, #4]
 80025a8:	b221      	sxth	r1, r4
 80025aa:	e7cc      	b.n	8002546 <UI_SetReg+0x64>
      PID_SetKI(pMCT->pPIDIq,(int16_t)wValue);
 80025ac:	6858      	ldr	r0, [r3, #4]
 80025ae:	b221      	sxth	r1, r4
 80025b0:	e7ce      	b.n	8002550 <UI_SetReg+0x6e>
      PID_SetKD(pMCT->pPIDIq,(int16_t)wValue);
 80025b2:	6858      	ldr	r0, [r3, #4]
 80025b4:	b221      	sxth	r1, r4
 80025b6:	e7d0      	b.n	800255a <UI_SetReg+0x78>
      currComp = MCI_GetIqdref(pMCI);
 80025b8:	0030      	movs	r0, r6
 80025ba:	f7fe fc23 	bl	8000e04 <MCI_GetIqdref>
      currComp.d = (int16_t)wValue;
 80025be:	ab01      	add	r3, sp, #4
      currComp = MCI_GetIqdref(pMCI);
 80025c0:	9001      	str	r0, [sp, #4]
      currComp.d = (int16_t)wValue;
 80025c2:	805c      	strh	r4, [r3, #2]
 80025c4:	e7ea      	b.n	800259c <UI_SetReg+0xba>
      PID_SetKP(pMCT->pPIDId,(int16_t)wValue);
 80025c6:	6898      	ldr	r0, [r3, #8]
 80025c8:	b221      	sxth	r1, r4
 80025ca:	e7bc      	b.n	8002546 <UI_SetReg+0x64>
      PID_SetKI(pMCT->pPIDId,(int16_t)wValue);
 80025cc:	6898      	ldr	r0, [r3, #8]
 80025ce:	b221      	sxth	r1, r4
 80025d0:	e7be      	b.n	8002550 <UI_SetReg+0x6e>
      PID_SetKD(pMCT->pPIDId,(int16_t)wValue);
 80025d2:	6898      	ldr	r0, [r3, #8]
 80025d4:	b221      	sxth	r1, r4
 80025d6:	e7c0      	b.n	800255a <UI_SetReg+0x78>
      MCI_SetIdref(pMCI,(int16_t)wValue);
 80025d8:	0030      	movs	r0, r6
 80025da:	b221      	sxth	r1, r4
 80025dc:	f7fe fc40 	bl	8000e60 <MCI_SetIdref>
 80025e0:	e7ad      	b.n	800253e <UI_SetReg+0x5c>

080025e2 <UI_ExecCmd>:
*/
__weak bool UI_ExecCmd(UI_Handle_t *pHandle, uint8_t bCmdID)
{
  bool retVal = true;

  MCI_Handle_t * pMCI = pHandle->pMCI[pHandle->bSelectedDrive];
 80025e2:	0003      	movs	r3, r0
{
 80025e4:	b570      	push	{r4, r5, r6, lr}
  MCI_Handle_t * pMCI = pHandle->pMCI[pHandle->bSelectedDrive];
 80025e6:	332c      	adds	r3, #44	; 0x2c
 80025e8:	781b      	ldrb	r3, [r3, #0]
 80025ea:	6a02      	ldr	r2, [r0, #32]
 80025ec:	009b      	lsls	r3, r3, #2

  switch (bCmdID)
 80025ee:	1e48      	subs	r0, r1, #1
  MCI_Handle_t * pMCI = pHandle->pMCI[pHandle->bSelectedDrive];
 80025f0:	589d      	ldr	r5, [r3, r2]
  switch (bCmdID)
 80025f2:	280f      	cmp	r0, #15
 80025f4:	d809      	bhi.n	800260a <UI_ExecCmd+0x28>
 80025f6:	f7fd fd91 	bl	800011c <__gnu_thumb1_case_uqi>
 80025fa:	1f1a      	.short	0x1f1a
 80025fc:	151d1d0b 	.word	0x151d1d0b
 8002600:	082b2723 	.word	0x082b2723
 8002604:	1f080808 	.word	0x1f080808
 8002608:	322f      	.short	0x322f
 800260a:	2400      	movs	r4, #0
    retVal = false;
	}
    break;
  }
  return retVal;
}
 800260c:	0020      	movs	r0, r4
 800260e:	bd70      	pop	{r4, r5, r6, pc}
      if (MCI_GetSTMState(pMCI) == RUN)
 8002610:	0028      	movs	r0, r5
 8002612:	f7fe fbae 	bl	8000d72 <MCI_GetSTMState>
  bool retVal = true;
 8002616:	2401      	movs	r4, #1
      if (MCI_GetSTMState(pMCI) == RUN)
 8002618:	2806      	cmp	r0, #6
 800261a:	d1f7      	bne.n	800260c <UI_ExecCmd+0x2a>
        MCI_StopRamp(pMCI);
 800261c:	0028      	movs	r0, r5
 800261e:	f7fe fbb7 	bl	8000d90 <MCI_StopRamp>
 8002622:	e7f3      	b.n	800260c <UI_ExecCmd+0x2a>
      if (MCI_GetSTMState(pMCI) == IDLE)
 8002624:	0028      	movs	r0, r5
 8002626:	f7fe fba4 	bl	8000d72 <MCI_GetSTMState>
 800262a:	2800      	cmp	r0, #0
 800262c:	d104      	bne.n	8002638 <UI_ExecCmd+0x56>
        MCI_StartMotor(pMCI);
 800262e:	0028      	movs	r0, r5
 8002630:	f7fe fb4d 	bl	8000cce <MCI_StartMotor>
  bool retVal = true;
 8002634:	2401      	movs	r4, #1
 8002636:	e7e9      	b.n	800260c <UI_ExecCmd+0x2a>
        MCI_StopMotor(pMCI);
 8002638:	0028      	movs	r0, r5
 800263a:	f7fe fb53 	bl	8000ce4 <MCI_StopMotor>
 800263e:	e7f9      	b.n	8002634 <UI_ExecCmd+0x52>
      MCI_FaultAcknowledged(pMCI);
 8002640:	0028      	movs	r0, r5
 8002642:	f7fe fb55 	bl	8000cf0 <MCI_FaultAcknowledged>
    break;
 8002646:	e7f5      	b.n	8002634 <UI_ExecCmd+0x52>
      MCI_EncoderAlign(pMCI);
 8002648:	0028      	movs	r0, r5
 800264a:	f7fe fb56 	bl	8000cfa <MCI_EncoderAlign>
    break;
 800264e:	e7f1      	b.n	8002634 <UI_ExecCmd+0x52>
      MCI_Clear_Iqdref(pMCI);
 8002650:	0028      	movs	r0, r5
 8002652:	f7fe fc09 	bl	8000e68 <MCI_Clear_Iqdref>
    break;
 8002656:	e7ed      	b.n	8002634 <UI_ExecCmd+0x52>
   	MCI_Home_Osc();
 8002658:	f7fe fc0f 	bl	8000e7a <MCI_Home_Osc>
    break;
 800265c:	e7ea      	b.n	8002634 <UI_ExecCmd+0x52>
    	MCI_Home_Offset();
 800265e:	f7fe fc10 	bl	8000e82 <MCI_Home_Offset>
   break;
 8002662:	e7e7      	b.n	8002634 <UI_ExecCmd+0x52>

08002664 <UI_ExecSpeedRamp>:
  * @param  hDurationms: Duration of the ramp expressed in milliseconds.
  *         It is possible to set 0 to perform an instantaneous change in the value.
  *  @retval Return true if the command executed succesfully, otherwise false.
  */
__weak bool UI_ExecSpeedRamp(UI_Handle_t *pHandle, int32_t wFinalMecSpeedUnit, uint16_t hDurationms)
{
 8002664:	b570      	push	{r4, r5, r6, lr}
 8002666:	0004      	movs	r4, r0
 8002668:	0008      	movs	r0, r1
  MCI_Handle_t * pMCI = pHandle->pMCI[pHandle->bSelectedDrive];

  /* Call MCI Exec Ramp */
  MCI_ExecSpeedRamp(pMCI,(int16_t)((wFinalMecSpeedUnit*SPEED_UNIT)/_RPM),hDurationms);
 800266a:	2106      	movs	r1, #6
{
 800266c:	0015      	movs	r5, r2
  MCI_ExecSpeedRamp(pMCI,(int16_t)((wFinalMecSpeedUnit*SPEED_UNIT)/_RPM),hDurationms);
 800266e:	f7fd fdfd 	bl	800026c <__divsi3>
  MCI_Handle_t * pMCI = pHandle->pMCI[pHandle->bSelectedDrive];
 8002672:	0023      	movs	r3, r4
 8002674:	332c      	adds	r3, #44	; 0x2c
 8002676:	781b      	ldrb	r3, [r3, #0]
  MCI_ExecSpeedRamp(pMCI,(int16_t)((wFinalMecSpeedUnit*SPEED_UNIT)/_RPM),hDurationms);
 8002678:	b201      	sxth	r1, r0
  MCI_Handle_t * pMCI = pHandle->pMCI[pHandle->bSelectedDrive];
 800267a:	6a20      	ldr	r0, [r4, #32]
 800267c:	009b      	lsls	r3, r3, #2
  MCI_ExecSpeedRamp(pMCI,(int16_t)((wFinalMecSpeedUnit*SPEED_UNIT)/_RPM),hDurationms);
 800267e:	002a      	movs	r2, r5
 8002680:	5818      	ldr	r0, [r3, r0]
 8002682:	f7fe fb0b 	bl	8000c9c <MCI_ExecSpeedRamp>
  return true;
}
 8002686:	2001      	movs	r0, #1
 8002688:	bd70      	pop	{r4, r5, r6, pc}

0800268a <UI_ExecTorqueRamp>:
  *  @retval Return true if the command executed succesfully, otherwise false.
  */
__weak bool UI_ExecTorqueRamp(UI_Handle_t *pHandle, int16_t hTargetFinal, uint16_t hDurationms)
{

  MCI_Handle_t * pMCI = pHandle->pMCI[pHandle->bSelectedDrive];
 800268a:	0003      	movs	r3, r0
{
 800268c:	b510      	push	{r4, lr}
  MCI_Handle_t * pMCI = pHandle->pMCI[pHandle->bSelectedDrive];
 800268e:	332c      	adds	r3, #44	; 0x2c
 8002690:	781b      	ldrb	r3, [r3, #0]
 8002692:	6a00      	ldr	r0, [r0, #32]
 8002694:	009b      	lsls	r3, r3, #2

  /* Call MCI Exec Ramp */
  MCI_ExecTorqueRamp(pMCI,hTargetFinal,hDurationms);
 8002696:	5818      	ldr	r0, [r3, r0]
 8002698:	f7fe fb08 	bl	8000cac <MCI_ExecTorqueRamp>
  return true;
}
 800269c:	2001      	movs	r0, #1
 800269e:	bd10      	pop	{r4, pc}

080026a0 <UI_GetRevupData>:
  *
  *  @retval Returns true if the command executed successfully, false otherwise.
  */
__weak bool UI_GetRevupData(UI_Handle_t *pHandle, uint8_t bStage, uint16_t* pDurationms,
                     int16_t* pFinalMecSpeedUnit, int16_t* pFinalTorque )
{
 80026a0:	b5f8      	push	{r3, r4, r5, r6, r7, lr}
 80026a2:	001e      	movs	r6, r3
  bool hRetVal = true;

  RevUpCtrl_Handle_t *pRevupCtrl = pHandle->pMCT[pHandle->bSelectedDrive]->pRevupCtrl;
 80026a4:	0003      	movs	r3, r0
{
 80026a6:	0017      	movs	r7, r2
  RevUpCtrl_Handle_t *pRevupCtrl = pHandle->pMCT[pHandle->bSelectedDrive]->pRevupCtrl;
 80026a8:	6a42      	ldr	r2, [r0, #36]	; 0x24
    *pFinalMecSpeedUnit = RUC_GetPhaseFinalMecSpeedUnit(pRevupCtrl, bStage);
    *pFinalTorque = RUC_GetPhaseFinalTorque(pRevupCtrl, bStage);
  }
  else
  {
    hRetVal = false;
 80026aa:	2000      	movs	r0, #0
  RevUpCtrl_Handle_t *pRevupCtrl = pHandle->pMCT[pHandle->bSelectedDrive]->pRevupCtrl;
 80026ac:	332c      	adds	r3, #44	; 0x2c
 80026ae:	781b      	ldrb	r3, [r3, #0]
{
 80026b0:	000c      	movs	r4, r1
  RevUpCtrl_Handle_t *pRevupCtrl = pHandle->pMCT[pHandle->bSelectedDrive]->pRevupCtrl;
 80026b2:	009b      	lsls	r3, r3, #2
 80026b4:	589b      	ldr	r3, [r3, r2]
 80026b6:	695d      	ldr	r5, [r3, #20]
  if (pRevupCtrl)
 80026b8:	4285      	cmp	r5, r0
 80026ba:	d00f      	beq.n	80026dc <UI_GetRevupData+0x3c>
    *pDurationms = RUC_GetPhaseDurationms(pRevupCtrl, bStage);
 80026bc:	0028      	movs	r0, r5
 80026be:	f003 fb45 	bl	8005d4c <RUC_GetPhaseDurationms>
    *pFinalMecSpeedUnit = RUC_GetPhaseFinalMecSpeedUnit(pRevupCtrl, bStage);
 80026c2:	0021      	movs	r1, r4
    *pDurationms = RUC_GetPhaseDurationms(pRevupCtrl, bStage);
 80026c4:	8038      	strh	r0, [r7, #0]
    *pFinalMecSpeedUnit = RUC_GetPhaseFinalMecSpeedUnit(pRevupCtrl, bStage);
 80026c6:	0028      	movs	r0, r5
 80026c8:	f003 fb46 	bl	8005d58 <RUC_GetPhaseFinalMecSpeedUnit>
    *pFinalTorque = RUC_GetPhaseFinalTorque(pRevupCtrl, bStage);
 80026cc:	0021      	movs	r1, r4
    *pFinalMecSpeedUnit = RUC_GetPhaseFinalMecSpeedUnit(pRevupCtrl, bStage);
 80026ce:	8030      	strh	r0, [r6, #0]
    *pFinalTorque = RUC_GetPhaseFinalTorque(pRevupCtrl, bStage);
 80026d0:	0028      	movs	r0, r5
 80026d2:	f003 fb49 	bl	8005d68 <RUC_GetPhaseFinalTorque>
 80026d6:	9b06      	ldr	r3, [sp, #24]
 80026d8:	8018      	strh	r0, [r3, #0]
  bool hRetVal = true;
 80026da:	2001      	movs	r0, #1
  }
  return hRetVal;
}
 80026dc:	bdf8      	pop	{r3, r4, r5, r6, r7, pc}

080026de <UI_SetRevupData>:
  *         digit.
  *  @retval Return true if the command executed successfully, otherwise false.
  */
__weak bool UI_SetRevupData(UI_Handle_t *pHandle, uint8_t bStage, uint16_t hDurationms,
                     int16_t hFinalMecSpeedUnit, int16_t hFinalTorque )
{
 80026de:	b5f8      	push	{r3, r4, r5, r6, r7, lr}
 80026e0:	001d      	movs	r5, r3
 80026e2:	ab06      	add	r3, sp, #24
 80026e4:	2600      	movs	r6, #0
 80026e6:	5f9e      	ldrsh	r6, [r3, r6]
  RevUpCtrl_Handle_t *pRevupCtrl = pHandle->pMCT[pHandle->bSelectedDrive]->pRevupCtrl;
 80026e8:	0003      	movs	r3, r0
{
 80026ea:	000c      	movs	r4, r1
  RevUpCtrl_Handle_t *pRevupCtrl = pHandle->pMCT[pHandle->bSelectedDrive]->pRevupCtrl;
 80026ec:	332c      	adds	r3, #44	; 0x2c
 80026ee:	781b      	ldrb	r3, [r3, #0]
 80026f0:	6a41      	ldr	r1, [r0, #36]	; 0x24
 80026f2:	009b      	lsls	r3, r3, #2
 80026f4:	585b      	ldr	r3, [r3, r1]
  RUC_SetPhaseDurationms(pRevupCtrl, bStage, hDurationms);
 80026f6:	0021      	movs	r1, r4
  RevUpCtrl_Handle_t *pRevupCtrl = pHandle->pMCT[pHandle->bSelectedDrive]->pRevupCtrl;
 80026f8:	695f      	ldr	r7, [r3, #20]
  RUC_SetPhaseDurationms(pRevupCtrl, bStage, hDurationms);
 80026fa:	0038      	movs	r0, r7
 80026fc:	f003 fb14 	bl	8005d28 <RUC_SetPhaseDurationms>
  RUC_SetPhaseFinalMecSpeedUnit(pRevupCtrl, bStage, hFinalMecSpeedUnit);
 8002700:	002a      	movs	r2, r5
 8002702:	0038      	movs	r0, r7
 8002704:	0021      	movs	r1, r4
 8002706:	f003 fb15 	bl	8005d34 <RUC_SetPhaseFinalMecSpeedUnit>
  RUC_SetPhaseFinalTorque(pRevupCtrl, bStage, hFinalTorque);
 800270a:	0038      	movs	r0, r7
 800270c:	0032      	movs	r2, r6
 800270e:	0021      	movs	r1, r4
 8002710:	f003 fb16 	bl	8005d40 <RUC_SetPhaseFinalTorque>
  return true;
}
 8002714:	2001      	movs	r0, #1
 8002716:	bdf8      	pop	{r3, r4, r5, r6, r7, pc}

08002718 <UI_SetCurrentReferences>:
  * @retval none.
  */
__weak void UI_SetCurrentReferences(UI_Handle_t *pHandle, int16_t hIqRef, int16_t hIdRef)
{

  MCI_Handle_t * pMCI = pHandle->pMCI[pHandle->bSelectedDrive];
 8002718:	0003      	movs	r3, r0
{
 800271a:	b507      	push	{r0, r1, r2, lr}
  MCI_Handle_t * pMCI = pHandle->pMCI[pHandle->bSelectedDrive];
 800271c:	332c      	adds	r3, #44	; 0x2c
 800271e:	781b      	ldrb	r3, [r3, #0]
 8002720:	6a00      	ldr	r0, [r0, #32]
 8002722:	009b      	lsls	r3, r3, #2
 8002724:	5818      	ldr	r0, [r3, r0]
  qd_t currComp;
  currComp.q = hIqRef;
 8002726:	ab01      	add	r3, sp, #4
 8002728:	8019      	strh	r1, [r3, #0]
  currComp.d = hIdRef;
 800272a:	805a      	strh	r2, [r3, #2]
  MCI_SetCurrentReferences(pMCI,currComp);
 800272c:	9901      	ldr	r1, [sp, #4]
 800272e:	f7fe fac4 	bl	8000cba <MCI_SetCurrentReferences>
}
 8002732:	bd07      	pop	{r0, r1, r2, pc}

08002734 <UI_GetMPInfo>:
  * @retval true if MP is enabled, false otherwise.
  */
__weak bool UI_GetMPInfo(pMPInfo_t stepList, pMPInfo_t pMPInfo)
{
    return false;
}
 8002734:	2000      	movs	r0, #0
 8002736:	4770      	bx	lr

08002738 <UI_DACInit>:
  * @param  pHandle: Pointer on Handle structure of DACx UI component.
  * @retval none.
  */
__weak void UI_DACInit(UI_Handle_t *pHandle)
{
  if (pHandle->pFct_DACInit)
 8002738:	6943      	ldr	r3, [r0, #20]
{
 800273a:	b510      	push	{r4, lr}
  if (pHandle->pFct_DACInit)
 800273c:	2b00      	cmp	r3, #0
 800273e:	d000      	beq.n	8002742 <UI_DACInit+0xa>
  {
	  pHandle->pFct_DACInit(pHandle);
 8002740:	4798      	blx	r3
  }
}
 8002742:	bd10      	pop	{r4, pc}

08002744 <UI_DACExec>:
  * @param  pHandle: Pointer on Handle structure of DACx UI component.
  * @retval none.
  */
void UI_DACExec(UI_Handle_t *pHandle)
{
  if (pHandle->pFct_DACExec)
 8002744:	6983      	ldr	r3, [r0, #24]
{
 8002746:	b510      	push	{r4, lr}
  if (pHandle->pFct_DACExec)
 8002748:	2b00      	cmp	r3, #0
 800274a:	d000      	beq.n	800274e <UI_DACExec+0xa>
  {
    pHandle->pFct_DACExec(pHandle);
 800274c:	4798      	blx	r3
  }
}
 800274e:	bd10      	pop	{r4, pc}

08002750 <UI_SetDAC>:
  * @retval none.
  */
void UI_SetDAC(UI_Handle_t *pHandle, DAC_Channel_t bChannel,
                         MC_Protocol_REG_t bVariable)
{
  if (pHandle->pFctDACSetChannelConfig)
 8002750:	6843      	ldr	r3, [r0, #4]
{
 8002752:	b510      	push	{r4, lr}
  if (pHandle->pFctDACSetChannelConfig)
 8002754:	2b00      	cmp	r3, #0
 8002756:	d000      	beq.n	800275a <UI_SetDAC+0xa>
  {
	  pHandle->pFctDACSetChannelConfig(pHandle, bChannel, bVariable);
 8002758:	4798      	blx	r3
  }
}
 800275a:	bd10      	pop	{r4, pc}

0800275c <UI_GetDAC>:
  *         It must be one of the exported UI register (Example: MC_PROTOCOL_REG_I_A).
  */
__weak MC_Protocol_REG_t UI_GetDAC(UI_Handle_t *pHandle, DAC_Channel_t bChannel)
{
  MC_Protocol_REG_t retVal = MC_PROTOCOL_REG_UNDEFINED;
  if (pHandle->pFctDACGetChannelConfig)
 800275c:	6882      	ldr	r2, [r0, #8]
{
 800275e:	0003      	movs	r3, r0
 8002760:	b510      	push	{r4, lr}
  MC_Protocol_REG_t retVal = MC_PROTOCOL_REG_UNDEFINED;
 8002762:	2089      	movs	r0, #137	; 0x89
  if (pHandle->pFctDACGetChannelConfig)
 8002764:	2a00      	cmp	r2, #0
 8002766:	d001      	beq.n	800276c <UI_GetDAC+0x10>
  {
    retVal = pHandle->pFctDACGetChannelConfig(pHandle, bChannel);
 8002768:	0018      	movs	r0, r3
 800276a:	4790      	blx	r2
  }
  return retVal;
}
 800276c:	bd10      	pop	{r4, pc}
	...

08002770 <UI_GetReg>:
{
 8002770:	b570      	push	{r4, r5, r6, lr}
 8002772:	0004      	movs	r4, r0
  MCT_Handle_t* pMCT = pHandle->pMCT[pHandle->bSelectedDrive];
 8002774:	0023      	movs	r3, r4
 8002776:	332c      	adds	r3, #44	; 0x2c
 8002778:	781e      	ldrb	r6, [r3, #0]
{
 800277a:	0008      	movs	r0, r1
  MCT_Handle_t* pMCT = pHandle->pMCT[pHandle->bSelectedDrive];
 800277c:	6a63      	ldr	r3, [r4, #36]	; 0x24
  MCI_Handle_t * pMCI = pHandle->pMCI[pHandle->bSelectedDrive];
 800277e:	6a21      	ldr	r1, [r4, #32]
  MCT_Handle_t* pMCT = pHandle->pMCT[pHandle->bSelectedDrive];
 8002780:	00b6      	lsls	r6, r6, #2
 8002782:	599b      	ldr	r3, [r3, r6]
  MCI_Handle_t * pMCI = pHandle->pMCI[pHandle->bSelectedDrive];
 8002784:	598d      	ldr	r5, [r1, r6]
{
 8002786:	b08c      	sub	sp, #48	; 0x30
  if ( success != (bool *) 0 )
 8002788:	2a00      	cmp	r2, #0
 800278a:	d100      	bne.n	800278e <UI_GetReg+0x1e>
 800278c:	e08f      	b.n	80028ae <UI_GetReg+0x13e>
    *success = true;
 800278e:	2101      	movs	r1, #1
 8002790:	7011      	strb	r1, [r2, #0]
  switch (bRegID)
 8002792:	2881      	cmp	r0, #129	; 0x81
 8002794:	d900      	bls.n	8002798 <UI_GetReg+0x28>
 8002796:	e1d5      	b.n	8002b44 <UI_GetReg+0x3d4>
 8002798:	f7fd fcd4 	bl	8000144 <__gnu_thumb1_case_uhi>
 800279c:	01020085 	.word	0x01020085
 80027a0:	012b0106 	.word	0x012b0106
 80027a4:	0111010a 	.word	0x0111010a
 80027a8:	01190115 	.word	0x01190115
 80027ac:	014601bc 	.word	0x014601bc
 80027b0:	014a0148 	.word	0x014a0148
 80027b4:	014c01c0 	.word	0x014c01c0
 80027b8:	0150014e 	.word	0x0150014e
 80027bc:	01d401d4 	.word	0x01d401d4
 80027c0:	01d401d4 	.word	0x01d401d4
 80027c4:	01d401d4 	.word	0x01d401d4
 80027c8:	01d401d4 	.word	0x01d401d4
 80027cc:	011d01d4 	.word	0x011d01d4
 80027d0:	01520121 	.word	0x01520121
 80027d4:	015b0156 	.word	0x015b0156
 80027d8:	01980125 	.word	0x01980125
 80027dc:	01d4019d 	.word	0x01d4019d
 80027e0:	01a801a2 	.word	0x01a801a2
 80027e4:	01b001ac 	.word	0x01b001ac
 80027e8:	019801b4 	.word	0x019801b4
 80027ec:	01bc019d 	.word	0x01bc019d
 80027f0:	01c401c0 	.word	0x01c401c0
 80027f4:	01cc01c8 	.word	0x01cc01c8
 80027f8:	016a01d0 	.word	0x016a01d0
 80027fc:	01d4017d 	.word	0x01d4017d
 8002800:	01d401d4 	.word	0x01d401d4
 8002804:	01d401d4 	.word	0x01d401d4
 8002808:	01d401d4 	.word	0x01d401d4
 800280c:	01d401d4 	.word	0x01d401d4
 8002810:	01d401d4 	.word	0x01d401d4
 8002814:	015d01d4 	.word	0x015d01d4
 8002818:	01900163 	.word	0x01900163
 800281c:	01c00194 	.word	0x01c00194
 8002820:	01d401d4 	.word	0x01d401d4
 8002824:	01d401d4 	.word	0x01d401d4
 8002828:	01d401d4 	.word	0x01d401d4
 800282c:	01d401d4 	.word	0x01d401d4
 8002830:	01d401d4 	.word	0x01d401d4
 8002834:	01d401d4 	.word	0x01d401d4
 8002838:	01d401d4 	.word	0x01d401d4
 800283c:	01d401d4 	.word	0x01d401d4
 8002840:	01d401d4 	.word	0x01d401d4
 8002844:	01d401d4 	.word	0x01d401d4
 8002848:	01d401d4 	.word	0x01d401d4
 800284c:	01d401d4 	.word	0x01d401d4
 8002850:	012f01d4 	.word	0x012f01d4
 8002854:	01d401d4 	.word	0x01d401d4
 8002858:	01d401d4 	.word	0x01d401d4
 800285c:	01d401d4 	.word	0x01d401d4
 8002860:	01d401d4 	.word	0x01d401d4
 8002864:	01d401d4 	.word	0x01d401d4
 8002868:	01d401d4 	.word	0x01d401d4
 800286c:	01d401d4 	.word	0x01d401d4
 8002870:	01d401d4 	.word	0x01d401d4
 8002874:	01d401d4 	.word	0x01d401d4
 8002878:	0142013e 	.word	0x0142013e
 800287c:	01d40082 	.word	0x01d40082
 8002880:	01290129 	.word	0x01290129
 8002884:	01d401d4 	.word	0x01d401d4
 8002888:	01d401d4 	.word	0x01d401d4
 800288c:	01d401d4 	.word	0x01d401d4
 8002890:	01d401d4 	.word	0x01d401d4
 8002894:	01d401d4 	.word	0x01d401d4
 8002898:	01d401d4 	.word	0x01d401d4
 800289c:	016101d4 	.word	0x016101d4
      bRetVal = (int32_t)(MC_UID);
 80028a0:	489a      	ldr	r0, [pc, #616]	; (8002b0c <UI_GetReg+0x39c>)
}
 80028a2:	b00c      	add	sp, #48	; 0x30
 80028a4:	bd70      	pop	{r4, r5, r6, pc}
      bRetVal = (int32_t)UI_GetSelectedMC(pHandle);
 80028a6:	0020      	movs	r0, r4
 80028a8:	f7ff fe18 	bl	80024dc <UI_GetSelectedMC>
    break;
 80028ac:	e7f9      	b.n	80028a2 <UI_GetReg+0x132>
  switch (bRegID)
 80028ae:	2873      	cmp	r0, #115	; 0x73
 80028b0:	d900      	bls.n	80028b4 <UI_GetReg+0x144>
 80028b2:	e0d4      	b.n	8002a5e <UI_GetReg+0x2ee>
 80028b4:	f7fd fc3c 	bl	8000130 <__gnu_thumb1_case_shi>
 80028b8:	0074fff7 	.word	0x0074fff7
 80028bc:	009d0078 	.word	0x009d0078
 80028c0:	0083007c 	.word	0x0083007c
 80028c4:	008b0087 	.word	0x008b0087
 80028c8:	00b8012e 	.word	0x00b8012e
 80028cc:	00bc00ba 	.word	0x00bc00ba
 80028d0:	00be0132 	.word	0x00be0132
 80028d4:	00c200c0 	.word	0x00c200c0
 80028d8:	00d300d3 	.word	0x00d300d3
 80028dc:	00d300d3 	.word	0x00d300d3
 80028e0:	00d300d3 	.word	0x00d300d3
 80028e4:	00d300d3 	.word	0x00d300d3
 80028e8:	008f00d3 	.word	0x008f00d3
 80028ec:	00c40093 	.word	0x00c40093
 80028f0:	00cd00c8 	.word	0x00cd00c8
 80028f4:	010a0097 	.word	0x010a0097
 80028f8:	00d3010f 	.word	0x00d3010f
 80028fc:	011a0114 	.word	0x011a0114
 8002900:	0122011e 	.word	0x0122011e
 8002904:	010a0126 	.word	0x010a0126
 8002908:	012e010f 	.word	0x012e010f
 800290c:	01360132 	.word	0x01360132
 8002910:	013e013a 	.word	0x013e013a
 8002914:	00dc0142 	.word	0x00dc0142
 8002918:	00d300ef 	.word	0x00d300ef
 800291c:	00d300d3 	.word	0x00d300d3
 8002920:	00d300d3 	.word	0x00d300d3
 8002924:	00d300d3 	.word	0x00d300d3
 8002928:	00d300d3 	.word	0x00d300d3
 800292c:	00d300d3 	.word	0x00d300d3
 8002930:	00cf00d3 	.word	0x00cf00d3
 8002934:	010200d5 	.word	0x010200d5
 8002938:	01320106 	.word	0x01320106
 800293c:	00d300d3 	.word	0x00d300d3
 8002940:	00d300d3 	.word	0x00d300d3
 8002944:	00d300d3 	.word	0x00d300d3
 8002948:	00d300d3 	.word	0x00d300d3
 800294c:	00d300d3 	.word	0x00d300d3
 8002950:	00d300d3 	.word	0x00d300d3
 8002954:	00d300d3 	.word	0x00d300d3
 8002958:	00d300d3 	.word	0x00d300d3
 800295c:	00d300d3 	.word	0x00d300d3
 8002960:	00d300d3 	.word	0x00d300d3
 8002964:	00d300d3 	.word	0x00d300d3
 8002968:	00d300d3 	.word	0x00d300d3
 800296c:	00a100d3 	.word	0x00a100d3
 8002970:	00d300d3 	.word	0x00d300d3
 8002974:	00d300d3 	.word	0x00d300d3
 8002978:	00d300d3 	.word	0x00d300d3
 800297c:	00d300d3 	.word	0x00d300d3
 8002980:	00d300d3 	.word	0x00d300d3
 8002984:	00d300d3 	.word	0x00d300d3
 8002988:	00d300d3 	.word	0x00d300d3
 800298c:	00d300d3 	.word	0x00d300d3
 8002990:	00d300d3 	.word	0x00d300d3
 8002994:	00b400b0 	.word	0x00b400b0
 8002998:	00d3fff4 	.word	0x00d3fff4
 800299c:	009b009b 	.word	0x009b009b
      bRetVal = (int32_t)STM_GetFaultState(pMCT->pStateMachine);
 80029a0:	6a98      	ldr	r0, [r3, #40]	; 0x28
 80029a2:	f003 f8cd 	bl	8005b40 <STM_GetFaultState>
	break;
 80029a6:	e77c      	b.n	80028a2 <UI_GetReg+0x132>
      bRetVal = (int32_t)STM_GetState(pMCT->pStateMachine);
 80029a8:	6a98      	ldr	r0, [r3, #40]	; 0x28
 80029aa:	f003 f8bd 	bl	8005b28 <STM_GetState>
	break;
 80029ae:	e778      	b.n	80028a2 <UI_GetReg+0x132>
      bRetVal = (int32_t)((MCI_GetMecSpeedRefUnit(pMCI)*_RPM)/SPEED_UNIT);
 80029b0:	0028      	movs	r0, r5
 80029b2:	f7fe f9f9 	bl	8000da8 <MCI_GetMecSpeedRefUnit>
      bRetVal = (int32_t)((MCI_GetAvrgMecSpeedUnit(pMCI) * _RPM)/SPEED_UNIT);
 80029b6:	0003      	movs	r3, r0
 80029b8:	2006      	movs	r0, #6
 80029ba:	4358      	muls	r0, r3
    break;
 80029bc:	e771      	b.n	80028a2 <UI_GetReg+0x132>
      bRetVal = (int32_t)PID_GetKP(pMCT->pPIDSpeed);
 80029be:	6818      	ldr	r0, [r3, #0]
      bRetVal = (int32_t)PID_GetKP(pMCT->pPIDIq);
 80029c0:	f002 f979 	bl	8004cb6 <PID_GetKP>
    break;
 80029c4:	e76d      	b.n	80028a2 <UI_GetReg+0x132>
      bRetVal = (int32_t)PID_GetKI(pMCT->pPIDSpeed);
 80029c6:	6818      	ldr	r0, [r3, #0]
      bRetVal = (int32_t)PID_GetKI(pMCT->pPIDIq);
 80029c8:	f002 f978 	bl	8004cbc <PID_GetKI>
    break;
 80029cc:	e769      	b.n	80028a2 <UI_GetReg+0x132>
      bRetVal = (int32_t)PID_GetKD(pMCT->pPIDSpeed);
 80029ce:	6818      	ldr	r0, [r3, #0]
      bRetVal = (int32_t)PID_GetKD(pMCT->pPIDIq);
 80029d0:	f002 f97f 	bl	8004cd2 <PID_GetKD>
    break;
 80029d4:	e765      	b.n	80028a2 <UI_GetReg+0x132>
      bRetVal = (int32_t)VBS_GetAvBusVoltage_V(pMCT->pBusVoltageSensor);
 80029d6:	6b18      	ldr	r0, [r3, #48]	; 0x30
 80029d8:	f001 fcf2 	bl	80043c0 <VBS_GetAvBusVoltage_V>
    break;
 80029dc:	e761      	b.n	80028a2 <UI_GetReg+0x132>
      bRetVal = (int32_t)NTC_GetAvTemp_C(pMCT->pTemperatureSensor);
 80029de:	6ad8      	ldr	r0, [r3, #44]	; 0x2c
 80029e0:	f002 f94a 	bl	8004c78 <NTC_GetAvTemp_C>
    break;
 80029e4:	e75d      	b.n	80028a2 <UI_GetReg+0x132>
      bRetVal = (int32_t)((MCI_GetAvrgMecSpeedUnit(pMCI) * _RPM)/SPEED_UNIT);
 80029e6:	0028      	movs	r0, r5
 80029e8:	f7fe f9d7 	bl	8000d9a <MCI_GetAvrgMecSpeedUnit>
 80029ec:	e7e3      	b.n	80029b6 <UI_GetReg+0x246>
      bRetVal = CTRBDID;
 80029ee:	4848      	ldr	r0, [pc, #288]	; (8002b10 <UI_GetReg+0x3a0>)
 80029f0:	e757      	b.n	80028a2 <UI_GetReg+0x132>
      bRetVal = (int32_t)MCI_GetControlMode(pMCI);
 80029f2:	0028      	movs	r0, r5
 80029f4:	f7fe f9c2 	bl	8000d7c <MCI_GetControlMode>
    break;
 80029f8:	e753      	b.n	80028a2 <UI_GetReg+0x132>
      if (MCI_GetControlMode(pMCI) == STC_SPEED_MODE)
 80029fa:	0028      	movs	r0, r5
 80029fc:	f7fe f9be 	bl	8000d7c <MCI_GetControlMode>
 8002a00:	2406      	movs	r4, #6
 8002a02:	2801      	cmp	r0, #1
 8002a04:	d104      	bne.n	8002a10 <UI_GetReg+0x2a0>
      bRetVal = (int32_t)((MCI_GetLastRampFinalSpeed(pMCI) * _RPM)/SPEED_UNIT) ;
 8002a06:	0028      	movs	r0, r5
 8002a08:	f7fe f9ba 	bl	8000d80 <MCI_GetLastRampFinalSpeed>
      bRetVal = (int32_t)((MCI_GetMecSpeedRefUnit(pMCI) * _RPM)/SPEED_UNIT) ;
 8002a0c:	4360      	muls	r0, r4
 8002a0e:	e748      	b.n	80028a2 <UI_GetReg+0x132>
 8002a10:	0028      	movs	r0, r5
 8002a12:	f7fe f9c9 	bl	8000da8 <MCI_GetMecSpeedRefUnit>
 8002a16:	e7f9      	b.n	8002a0c <UI_GetReg+0x29c>
      bRetVal = (int32_t)PID_GetKPDivisor(pMCT->pPIDSpeed);
 8002a18:	6818      	ldr	r0, [r3, #0]
 8002a1a:	f002 f954 	bl	8004cc6 <PID_GetKPDivisor>
    break;
 8002a1e:	e740      	b.n	80028a2 <UI_GetReg+0x132>
      bRetVal = (int32_t)PID_GetKIDivisor(pMCT->pPIDSpeed);
 8002a20:	6818      	ldr	r0, [r3, #0]
 8002a22:	f002 f952 	bl	8004cca <PID_GetKIDivisor>
    break;
 8002a26:	e73c      	b.n	80028a2 <UI_GetReg+0x132>
      bRetVal = (int32_t)PID_GetKP(pMCT->pPIDIq);
 8002a28:	6858      	ldr	r0, [r3, #4]
 8002a2a:	e7c9      	b.n	80029c0 <UI_GetReg+0x250>
      bRetVal = (int32_t)PID_GetKI(pMCT->pPIDIq);
 8002a2c:	6858      	ldr	r0, [r3, #4]
 8002a2e:	e7cb      	b.n	80029c8 <UI_GetReg+0x258>
      bRetVal = (int32_t)PID_GetKD(pMCT->pPIDIq);
 8002a30:	6858      	ldr	r0, [r3, #4]
 8002a32:	e7cd      	b.n	80029d0 <UI_GetReg+0x260>
      bRetVal = (int32_t)PID_GetKP(pMCT->pPIDId);
 8002a34:	6898      	ldr	r0, [r3, #8]
 8002a36:	e7c3      	b.n	80029c0 <UI_GetReg+0x250>
      bRetVal = (int32_t)PID_GetKI(pMCT->pPIDId);
 8002a38:	6898      	ldr	r0, [r3, #8]
 8002a3a:	e7c5      	b.n	80029c8 <UI_GetReg+0x258>
      bRetVal = (int32_t)PID_GetKD(pMCT->pPIDId);
 8002a3c:	6898      	ldr	r0, [r3, #8]
 8002a3e:	e7c7      	b.n	80029d0 <UI_GetReg+0x260>
      bRetVal = MPM_GetAvrgElMotorPowerW(pMCT->pMPM);
 8002a40:	6bd8      	ldr	r0, [r3, #60]	; 0x3c
 8002a42:	f002 f8d2 	bl	8004bea <MPM_GetAvrgElMotorPowerW>
    break;
 8002a46:	e72c      	b.n	80028a2 <UI_GetReg+0x132>
      MC_Protocol_REG_t value = UI_GetDAC(pHandle, DAC_CH0);
 8002a48:	2100      	movs	r1, #0
      MC_Protocol_REG_t value = UI_GetDAC(pHandle, DAC_CH1);
 8002a4a:	0020      	movs	r0, r4
 8002a4c:	f7ff fe86 	bl	800275c <UI_GetDAC>
    break;
 8002a50:	e727      	b.n	80028a2 <UI_GetReg+0x132>
      MC_Protocol_REG_t value = UI_GetDAC(pHandle, DAC_CH1);
 8002a52:	2101      	movs	r1, #1
 8002a54:	e7f9      	b.n	8002a4a <UI_GetReg+0x2da>
      if (pHandle->pFctDACGetUserChannelValue)
 8002a56:	6923      	ldr	r3, [r4, #16]
        bRetVal = (int32_t) pHandle->pFctDACGetUserChannelValue(pHandle, 0);
 8002a58:	2100      	movs	r1, #0
      if (pHandle->pFctDACGetUserChannelValue)
 8002a5a:	2b00      	cmp	r3, #0
 8002a5c:	d105      	bne.n	8002a6a <UI_GetReg+0x2fa>
        bRetVal = (uint32_t) 0;
 8002a5e:	2000      	movs	r0, #0
 8002a60:	e71f      	b.n	80028a2 <UI_GetReg+0x132>
      if (pHandle->pFctDACGetUserChannelValue)
 8002a62:	6923      	ldr	r3, [r4, #16]
 8002a64:	2b00      	cmp	r3, #0
 8002a66:	d0fa      	beq.n	8002a5e <UI_GetReg+0x2ee>
        bRetVal = (int32_t) pHandle->pFctDACGetUserChannelValue(pHandle, 1);
 8002a68:	2101      	movs	r1, #1
 8002a6a:	0020      	movs	r0, r4
 8002a6c:	4798      	blx	r3
 8002a6e:	e718      	b.n	80028a2 <UI_GetReg+0x132>
      uint32_t hUICfg = pHandle->pUICfg[pHandle->bSelectedDrive];
 8002a70:	6aa2      	ldr	r2, [r4, #40]	; 0x28
      SpeednPosFdbk_Handle_t* pSPD = MC_NULL;
 8002a72:	2000      	movs	r0, #0
      uint32_t hUICfg = pHandle->pUICfg[pHandle->bSelectedDrive];
 8002a74:	5992      	ldr	r2, [r2, r6]
      if ((MAIN_SCFG_VALUE(hUICfg) == UI_SCODE_ENC) ||
 8002a76:	0f11      	lsrs	r1, r2, #28
 8002a78:	3901      	subs	r1, #1
 8002a7a:	2901      	cmp	r1, #1
 8002a7c:	d800      	bhi.n	8002a80 <UI_GetReg+0x310>
        pSPD = pMCT->pSpeedSensorMain;
 8002a7e:	6998      	ldr	r0, [r3, #24]
      if ((AUX_SCFG_VALUE(hUICfg) == UI_SCODE_ENC) ||
 8002a80:	0112      	lsls	r2, r2, #4
 8002a82:	0f12      	lsrs	r2, r2, #28
 8002a84:	3a01      	subs	r2, #1
 8002a86:	2a01      	cmp	r2, #1
 8002a88:	d800      	bhi.n	8002a8c <UI_GetReg+0x31c>
        pSPD = pMCT->pSpeedSensorAux;
 8002a8a:	69d8      	ldr	r0, [r3, #28]
      if (pSPD != MC_NULL)
 8002a8c:	2800      	cmp	r0, #0
 8002a8e:	d0e6      	beq.n	8002a5e <UI_GetReg+0x2ee>
        bRetVal = SPD_GetElAngle(pSPD);
 8002a90:	f002 febe 	bl	8005810 <SPD_GetElAngle>
 8002a94:	e705      	b.n	80028a2 <UI_GetReg+0x132>
      uint32_t hUICfg = pHandle->pUICfg[pHandle->bSelectedDrive];
 8002a96:	6aa2      	ldr	r2, [r4, #40]	; 0x28
      SpeednPosFdbk_Handle_t* pSPD = MC_NULL;
 8002a98:	2000      	movs	r0, #0
      uint32_t hUICfg = pHandle->pUICfg[pHandle->bSelectedDrive];
 8002a9a:	5992      	ldr	r2, [r2, r6]
      if ((MAIN_SCFG_VALUE(hUICfg) == UI_SCODE_ENC) ||
 8002a9c:	0f11      	lsrs	r1, r2, #28
 8002a9e:	3901      	subs	r1, #1
 8002aa0:	2901      	cmp	r1, #1
 8002aa2:	d800      	bhi.n	8002aa6 <UI_GetReg+0x336>
        pSPD = pMCT->pSpeedSensorMain;
 8002aa4:	6998      	ldr	r0, [r3, #24]
      if ((AUX_SCFG_VALUE(hUICfg) == UI_SCODE_ENC) ||
 8002aa6:	0112      	lsls	r2, r2, #4
 8002aa8:	0f12      	lsrs	r2, r2, #28
 8002aaa:	3a01      	subs	r2, #1
 8002aac:	2a01      	cmp	r2, #1
 8002aae:	d800      	bhi.n	8002ab2 <UI_GetReg+0x342>
        pSPD = pMCT->pSpeedSensorAux;
 8002ab0:	69d8      	ldr	r0, [r3, #28]
      if (pSPD != MC_NULL)
 8002ab2:	2800      	cmp	r0, #0
 8002ab4:	d0d3      	beq.n	8002a5e <UI_GetReg+0x2ee>
        bRetVal = SPD_GetS16Speed(pSPD);
 8002ab6:	f002 fee0 	bl	800587a <SPD_GetS16Speed>
 8002aba:	e6f2      	b.n	80028a2 <UI_GetReg+0x132>
      bRetVal = (STC_GetMaxAppPositiveMecSpeedUnit(pMCT->pSpeednTorqueCtrl) * _RPM)/SPEED_UNIT ;
 8002abc:	6a58      	ldr	r0, [r3, #36]	; 0x24
 8002abe:	f002 ff8a 	bl	80059d6 <STC_GetMaxAppPositiveMecSpeedUnit>
 8002ac2:	e778      	b.n	80029b6 <UI_GetReg+0x246>
      bRetVal = (STC_GetMinAppNegativeMecSpeedUnit(pMCT->pSpeednTorqueCtrl)  * _RPM)/SPEED_UNIT ;
 8002ac4:	6a58      	ldr	r0, [r3, #36]	; 0x24
 8002ac6:	f002 ff88 	bl	80059da <STC_GetMinAppNegativeMecSpeedUnit>
 8002aca:	e774      	b.n	80029b6 <UI_GetReg+0x246>
      bRetVal = MCI_GetIqd(pMCI).q;
 8002acc:	0028      	movs	r0, r5
 8002ace:	f7fe f98b 	bl	8000de8 <MCI_GetIqd>
      bRetVal = MCI_GetValphabeta(pMCI).alpha;
 8002ad2:	b200      	sxth	r0, r0
    break;
 8002ad4:	e6e5      	b.n	80028a2 <UI_GetReg+0x132>
      bRetVal = MCI_GetIqd(pMCI).d;
 8002ad6:	0028      	movs	r0, r5
 8002ad8:	f7fe f986 	bl	8000de8 <MCI_GetIqd>
      bRetVal = MCI_GetValphabeta(pMCI).beta;
 8002adc:	1400      	asrs	r0, r0, #16
    break;
 8002ade:	e6e0      	b.n	80028a2 <UI_GetReg+0x132>
      if (pMCT->pRevupCtrl)
 8002ae0:	6958      	ldr	r0, [r3, #20]
 8002ae2:	2800      	cmp	r0, #0
 8002ae4:	d0bb      	beq.n	8002a5e <UI_GetReg+0x2ee>
        bRetVal = (int32_t)RUC_GetNumberOfPhases(pMCT->pRevupCtrl);
 8002ae6:	f003 f947 	bl	8005d78 <RUC_GetNumberOfPhases>
 8002aea:	e6da      	b.n	80028a2 <UI_GetReg+0x132>
      bRetVal = MCI_GetIab(pMCI).a;
 8002aec:	0028      	movs	r0, r5
 8002aee:	f7fe f960 	bl	8000db2 <MCI_GetIab>
 8002af2:	e7ee      	b.n	8002ad2 <UI_GetReg+0x362>
      bRetVal = MCI_GetIab(pMCI).b;
 8002af4:	0028      	movs	r0, r5
 8002af6:	f7fe f95c 	bl	8000db2 <MCI_GetIab>
 8002afa:	e7ef      	b.n	8002adc <UI_GetReg+0x36c>
      bRetVal = MCI_GetIalphabeta(pMCI).alpha;
 8002afc:	0028      	movs	r0, r5
 8002afe:	f7fe f965 	bl	8000dcc <MCI_GetIalphabeta>
 8002b02:	e7e6      	b.n	8002ad2 <UI_GetReg+0x362>
      bRetVal = MCI_GetIalphabeta(pMCI).beta;
 8002b04:	0028      	movs	r0, r5
 8002b06:	f7fe f961 	bl	8000dcc <MCI_GetIalphabeta>
 8002b0a:	e7e7      	b.n	8002adc <UI_GetReg+0x36c>
 8002b0c:	34a6847a 	.word	0x34a6847a
 8002b10:	0000271a 	.word	0x0000271a
      bRetVal = MCI_GetIqdref(pMCI).q;
 8002b14:	0028      	movs	r0, r5
 8002b16:	f7fe f975 	bl	8000e04 <MCI_GetIqdref>
 8002b1a:	e7da      	b.n	8002ad2 <UI_GetReg+0x362>
      bRetVal = MCI_GetIqdref(pMCI).d;
 8002b1c:	0028      	movs	r0, r5
 8002b1e:	f7fe f971 	bl	8000e04 <MCI_GetIqdref>
 8002b22:	e7db      	b.n	8002adc <UI_GetReg+0x36c>
      bRetVal = MCI_GetVqd(pMCI).q;
 8002b24:	0028      	movs	r0, r5
 8002b26:	f7fe f97b 	bl	8000e20 <MCI_GetVqd>
 8002b2a:	e7d2      	b.n	8002ad2 <UI_GetReg+0x362>
      bRetVal = MCI_GetVqd(pMCI).d;
 8002b2c:	0028      	movs	r0, r5
 8002b2e:	f7fe f977 	bl	8000e20 <MCI_GetVqd>
 8002b32:	e7d3      	b.n	8002adc <UI_GetReg+0x36c>
      bRetVal = MCI_GetValphabeta(pMCI).alpha;
 8002b34:	0028      	movs	r0, r5
 8002b36:	f7fe f981 	bl	8000e3c <MCI_GetValphabeta>
 8002b3a:	e7ca      	b.n	8002ad2 <UI_GetReg+0x362>
      bRetVal = MCI_GetValphabeta(pMCI).beta;
 8002b3c:	0028      	movs	r0, r5
 8002b3e:	f7fe f97d 	bl	8000e3c <MCI_GetValphabeta>
 8002b42:	e7cb      	b.n	8002adc <UI_GetReg+0x36c>
        *success = false;
 8002b44:	2000      	movs	r0, #0
 8002b46:	7010      	strb	r0, [r2, #0]
  return bRetVal;
 8002b48:	e6ab      	b.n	80028a2 <UI_GetReg+0x132>
 8002b4a:	46c0      	nop			; (mov r8, r8)

08002b4c <SystemInit>:
                         before branch to main program. This call is made inside
                         the "startup_stm32f0xx.s" file.
                         User can setups the default system clock (System clock source, PLL Multiplier
                         and Divider factors, AHB/APBx prescalers and Flash settings).
   */
}
 8002b4c:	4770      	bx	lr
	...

08002b50 <HAL_InitTick>:
  *       implementation  in user file.
  * @param TickPriority Tick interrupt priority.
  * @retval HAL status
  */
__weak HAL_StatusTypeDef HAL_InitTick(uint32_t TickPriority)
{
 8002b50:	b570      	push	{r4, r5, r6, lr}
 8002b52:	0005      	movs	r5, r0
  /*Configure the SysTick to have interrupt in 1ms time basis*/
  if (HAL_SYSTICK_Config(SystemCoreClock / (1000U / uwTickFreq)) > 0U)
 8002b54:	20fa      	movs	r0, #250	; 0xfa
 8002b56:	4b0d      	ldr	r3, [pc, #52]	; (8002b8c <HAL_InitTick+0x3c>)
 8002b58:	0080      	lsls	r0, r0, #2
 8002b5a:	7819      	ldrb	r1, [r3, #0]
 8002b5c:	f7fd fafc 	bl	8000158 <__udivsi3>
 8002b60:	4b0b      	ldr	r3, [pc, #44]	; (8002b90 <HAL_InitTick+0x40>)
 8002b62:	0001      	movs	r1, r0
 8002b64:	6818      	ldr	r0, [r3, #0]
 8002b66:	f7fd faf7 	bl	8000158 <__udivsi3>
 8002b6a:	f000 f9ad 	bl	8002ec8 <HAL_SYSTICK_Config>
 8002b6e:	0004      	movs	r4, r0
  {
    return HAL_ERROR;
 8002b70:	2001      	movs	r0, #1
  if (HAL_SYSTICK_Config(SystemCoreClock / (1000U / uwTickFreq)) > 0U)
 8002b72:	2c00      	cmp	r4, #0
 8002b74:	d109      	bne.n	8002b8a <HAL_InitTick+0x3a>
  }

  /* Configure the SysTick IRQ priority */
  if (TickPriority < (1UL << __NVIC_PRIO_BITS))
 8002b76:	2d03      	cmp	r5, #3
 8002b78:	d807      	bhi.n	8002b8a <HAL_InitTick+0x3a>
  {
    HAL_NVIC_SetPriority(SysTick_IRQn, TickPriority, 0U);
 8002b7a:	3802      	subs	r0, #2
 8002b7c:	0022      	movs	r2, r4
 8002b7e:	0029      	movs	r1, r5
 8002b80:	f000 f96c 	bl	8002e5c <HAL_NVIC_SetPriority>
    uwTickPrio = TickPriority;
 8002b84:	0020      	movs	r0, r4
 8002b86:	4b03      	ldr	r3, [pc, #12]	; (8002b94 <HAL_InitTick+0x44>)
 8002b88:	601d      	str	r5, [r3, #0]
    return HAL_ERROR;
  }

   /* Return function status */
  return HAL_OK;
}
 8002b8a:	bd70      	pop	{r4, r5, r6, pc}
 8002b8c:	20000628 	.word	0x20000628
 8002b90:	20000624 	.word	0x20000624
 8002b94:	2000062c 	.word	0x2000062c

08002b98 <HAL_Init>:
  __HAL_FLASH_PREFETCH_BUFFER_ENABLE();
 8002b98:	2310      	movs	r3, #16
 8002b9a:	4a06      	ldr	r2, [pc, #24]	; (8002bb4 <HAL_Init+0x1c>)
{
 8002b9c:	b510      	push	{r4, lr}
  __HAL_FLASH_PREFETCH_BUFFER_ENABLE();
 8002b9e:	6811      	ldr	r1, [r2, #0]
  HAL_InitTick(TICK_INT_PRIORITY);
 8002ba0:	2002      	movs	r0, #2
  __HAL_FLASH_PREFETCH_BUFFER_ENABLE();
 8002ba2:	430b      	orrs	r3, r1
 8002ba4:	6013      	str	r3, [r2, #0]
  HAL_InitTick(TICK_INT_PRIORITY);
 8002ba6:	f7ff ffd3 	bl	8002b50 <HAL_InitTick>
  HAL_MspInit();
 8002baa:	f7ff f979 	bl	8001ea0 <HAL_MspInit>
}
 8002bae:	2000      	movs	r0, #0
 8002bb0:	bd10      	pop	{r4, pc}
 8002bb2:	46c0      	nop			; (mov r8, r8)
 8002bb4:	40022000 	.word	0x40022000

08002bb8 <HAL_IncTick>:
  *       implementations in user file.
  * @retval None
  */
__weak void HAL_IncTick(void)
{
  uwTick += uwTickFreq;
 8002bb8:	4a03      	ldr	r2, [pc, #12]	; (8002bc8 <HAL_IncTick+0x10>)
 8002bba:	4b04      	ldr	r3, [pc, #16]	; (8002bcc <HAL_IncTick+0x14>)
 8002bbc:	6811      	ldr	r1, [r2, #0]
 8002bbe:	781b      	ldrb	r3, [r3, #0]
 8002bc0:	185b      	adds	r3, r3, r1
 8002bc2:	6013      	str	r3, [r2, #0]
}
 8002bc4:	4770      	bx	lr
 8002bc6:	46c0      	nop			; (mov r8, r8)
 8002bc8:	20000ad4 	.word	0x20000ad4
 8002bcc:	20000628 	.word	0x20000628

08002bd0 <HAL_GetTick>:
  *       implementations in user file.
  * @retval tick value
  */
__weak uint32_t HAL_GetTick(void)
{
  return uwTick;
 8002bd0:	4b01      	ldr	r3, [pc, #4]	; (8002bd8 <HAL_GetTick+0x8>)
 8002bd2:	6818      	ldr	r0, [r3, #0]
}
 8002bd4:	4770      	bx	lr
 8002bd6:	46c0      	nop			; (mov r8, r8)
 8002bd8:	20000ad4 	.word	0x20000ad4

08002bdc <HAL_Delay>:
  *       implementations in user file.
  * @param Delay specifies the delay time length, in milliseconds.
  * @retval None
  */
__weak void HAL_Delay(uint32_t Delay)
{
 8002bdc:	b570      	push	{r4, r5, r6, lr}
 8002bde:	0004      	movs	r4, r0
  uint32_t tickstart = HAL_GetTick();
 8002be0:	f7ff fff6 	bl	8002bd0 <HAL_GetTick>
 8002be4:	0005      	movs	r5, r0
  uint32_t wait = Delay;
  
  /* Add a freq to guarantee minimum wait */
  if (wait < HAL_MAX_DELAY)
 8002be6:	1c63      	adds	r3, r4, #1
 8002be8:	d002      	beq.n	8002bf0 <HAL_Delay+0x14>
  {
    wait += (uint32_t)(uwTickFreq);
 8002bea:	4b04      	ldr	r3, [pc, #16]	; (8002bfc <HAL_Delay+0x20>)
 8002bec:	781b      	ldrb	r3, [r3, #0]
 8002bee:	18e4      	adds	r4, r4, r3
  }
  
  while((HAL_GetTick() - tickstart) < wait)
 8002bf0:	f7ff ffee 	bl	8002bd0 <HAL_GetTick>
 8002bf4:	1b40      	subs	r0, r0, r5
 8002bf6:	42a0      	cmp	r0, r4
 8002bf8:	d3fa      	bcc.n	8002bf0 <HAL_Delay+0x14>
  {
  }
}
 8002bfa:	bd70      	pop	{r4, r5, r6, pc}
 8002bfc:	20000628 	.word	0x20000628

08002c00 <HAL_ADC_Init>:
  *         of structure "ADC_InitTypeDef".
  * @param  hadc ADC handle
  * @retval HAL status
  */
HAL_StatusTypeDef HAL_ADC_Init(ADC_HandleTypeDef* hadc)
{
 8002c00:	b5f8      	push	{r3, r4, r5, r6, r7, lr}
 8002c02:	0004      	movs	r4, r0
  uint32_t tmpCFGR1 = 0U;

  /* Check ADC handle */
  if(hadc == NULL)
  {
    return HAL_ERROR;
 8002c04:	2001      	movs	r0, #1
  if(hadc == NULL)
 8002c06:	2c00      	cmp	r4, #0
 8002c08:	d100      	bne.n	8002c0c <HAL_ADC_Init+0xc>
 8002c0a:	e080      	b.n	8002d0e <HAL_ADC_Init+0x10e>
  /* Refer to header of this file for more details on clock enabling procedure*/
  
  /* Actions performed only if ADC is coming from state reset:                */
  /* - Initialization of ADC MSP                                              */
  /* - ADC voltage regulator enable                                           */
  if (hadc->State == HAL_ADC_STATE_RESET)
 8002c0c:	6ba3      	ldr	r3, [r4, #56]	; 0x38
 8002c0e:	2b00      	cmp	r3, #0
 8002c10:	d106      	bne.n	8002c20 <HAL_ADC_Init+0x20>
  {
    /* Initialize ADC error code */
    ADC_CLEAR_ERRORCODE(hadc);
    
    /* Allocate lock resource and initialize it */
    hadc->Lock = HAL_UNLOCKED;
 8002c12:	0022      	movs	r2, r4
 8002c14:	3234      	adds	r2, #52	; 0x34
    ADC_CLEAR_ERRORCODE(hadc);
 8002c16:	63e3      	str	r3, [r4, #60]	; 0x3c
    
    /* Init the low level hardware */
    hadc->MspInitCallback(hadc);
#else
    /* Init the low level hardware */
    HAL_ADC_MspInit(hadc);
 8002c18:	0020      	movs	r0, r4
    hadc->Lock = HAL_UNLOCKED;
 8002c1a:	7013      	strb	r3, [r2, #0]
    HAL_ADC_MspInit(hadc);
 8002c1c:	f7ff f958 	bl	8001ed0 <HAL_ADC_MspInit>
  /* Configuration of ADC parameters if previous preliminary actions are      */ 
  /* correctly completed.                                                     */
  /* and if there is no conversion on going on regular group (ADC can be      */ 
  /* enabled anyway, in case of call of this function to update a parameter   */
  /* on the fly).                                                             */
  if (HAL_IS_BIT_CLR(hadc->State, HAL_ADC_STATE_ERROR_INTERNAL) &&
 8002c20:	6ba3      	ldr	r3, [r4, #56]	; 0x38
 8002c22:	06db      	lsls	r3, r3, #27
 8002c24:	d500      	bpl.n	8002c28 <HAL_ADC_Init+0x28>
 8002c26:	e087      	b.n	8002d38 <HAL_ADC_Init+0x138>
      (tmp_hal_status == HAL_OK)                                &&
      (ADC_IS_CONVERSION_ONGOING_REGULAR(hadc) == RESET)          )
 8002c28:	6823      	ldr	r3, [r4, #0]
 8002c2a:	2204      	movs	r2, #4
 8002c2c:	6899      	ldr	r1, [r3, #8]
 8002c2e:	0008      	movs	r0, r1
 8002c30:	4010      	ands	r0, r2
      (tmp_hal_status == HAL_OK)                                &&
 8002c32:	4211      	tst	r1, r2
 8002c34:	d000      	beq.n	8002c38 <HAL_ADC_Init+0x38>
 8002c36:	e07f      	b.n	8002d38 <HAL_ADC_Init+0x138>
  {
    /* Set ADC state */
    ADC_STATE_CLR_SET(hadc->State,
 8002c38:	6ba2      	ldr	r2, [r4, #56]	; 0x38
 8002c3a:	4942      	ldr	r1, [pc, #264]	; (8002d44 <HAL_ADC_Init+0x144>)
 8002c3c:	4011      	ands	r1, r2
 8002c3e:	2202      	movs	r2, #2
 8002c40:	430a      	orrs	r2, r1
    /* Parameters update conditioned to ADC state:                            */
    /* Parameters that can be updated only when ADC is disabled:              */
    /*  - ADC clock mode                                                      */
    /*  - ADC clock prescaler                                                 */
    /*  - ADC resolution                                                      */
    if (ADC_IS_ENABLE(hadc) == RESET)
 8002c42:	2103      	movs	r1, #3
    ADC_STATE_CLR_SET(hadc->State,
 8002c44:	63a2      	str	r2, [r4, #56]	; 0x38
    if (ADC_IS_ENABLE(hadc) == RESET)
 8002c46:	689a      	ldr	r2, [r3, #8]
 8002c48:	400a      	ands	r2, r1
 8002c4a:	2a01      	cmp	r2, #1
 8002c4c:	d105      	bne.n	8002c5a <HAL_ADC_Init+0x5a>
 8002c4e:	6819      	ldr	r1, [r3, #0]
 8002c50:	4211      	tst	r1, r2
 8002c52:	d10e      	bne.n	8002c72 <HAL_ADC_Init+0x72>
 8002c54:	68da      	ldr	r2, [r3, #12]
 8002c56:	0412      	lsls	r2, r2, #16
 8002c58:	d40b      	bmi.n	8002c72 <HAL_ADC_Init+0x72>
      /* parameters):                                                         */
      /*   - internal measurement paths: Vbat, temperature sensor, Vref       */
      /*     (set into HAL_ADC_ConfigChannel() )                              */
     
      /* Configuration of ADC resolution                                      */
      MODIFY_REG(hadc->Instance->CFGR1,
 8002c5a:	2118      	movs	r1, #24
 8002c5c:	68da      	ldr	r2, [r3, #12]
 8002c5e:	438a      	bics	r2, r1
 8002c60:	68a1      	ldr	r1, [r4, #8]
 8002c62:	430a      	orrs	r2, r1
 8002c64:	60da      	str	r2, [r3, #12]
                 ADC_CFGR1_RES        ,
                 hadc->Init.Resolution );
      
      /* Configuration of ADC clock mode: clock source AHB or HSI with        */
      /* selectable prescaler                                                 */
      MODIFY_REG(hadc->Instance->CFGR2    ,
 8002c66:	6919      	ldr	r1, [r3, #16]
 8002c68:	6862      	ldr	r2, [r4, #4]
 8002c6a:	0089      	lsls	r1, r1, #2
 8002c6c:	0889      	lsrs	r1, r1, #2
 8002c6e:	4311      	orrs	r1, r2
 8002c70:	6119      	str	r1, [r3, #16]
    /*  - external trigger polarity                                           */
    /*  - data alignment                                                      */
    /*  - resolution                                                          */
    /*  - scan direction                                                      */
    /*  - DMA continuous request                                              */
    hadc->Instance->CFGR1 &= ~( ADC_CFGR1_DISCEN  |
 8002c72:	68da      	ldr	r2, [r3, #12]
 8002c74:	4934      	ldr	r1, [pc, #208]	; (8002d48 <HAL_ADC_Init+0x148>)
 8002c76:	400a      	ands	r2, r1
 8002c78:	60da      	str	r2, [r3, #12]
                                ADC_CFGR1_DMACFG   );

    tmpCFGR1 |= (ADC_CFGR1_AUTOWAIT((uint32_t)hadc->Init.LowPowerAutoWait)        |
                 ADC_CFGR1_AUTOOFF((uint32_t)hadc->Init.LowPowerAutoPowerOff)     |
                 ADC_CFGR1_CONTINUOUS((uint32_t)hadc->Init.ContinuousConvMode)    |
                 ADC_CFGR1_OVERRUN(hadc->Init.Overrun)                            |
 8002c7a:	6aa2      	ldr	r2, [r4, #40]	; 0x28
    tmpCFGR1 |= (ADC_CFGR1_AUTOWAIT((uint32_t)hadc->Init.LowPowerAutoWait)        |
 8002c7c:	7e26      	ldrb	r6, [r4, #24]
                 ADC_CFGR1_OVERRUN(hadc->Init.Overrun)                            |
 8002c7e:	1e57      	subs	r7, r2, #1
 8002c80:	1e7a      	subs	r2, r7, #1
 8002c82:	4197      	sbcs	r7, r2
                 ADC_CFGR1_AUTOOFF((uint32_t)hadc->Init.LowPowerAutoPowerOff)     |
 8002c84:	7e61      	ldrb	r1, [r4, #25]
 8002c86:	68e2      	ldr	r2, [r4, #12]
 8002c88:	03c9      	lsls	r1, r1, #15
    tmpCFGR1 |= (ADC_CFGR1_AUTOWAIT((uint32_t)hadc->Init.LowPowerAutoWait)        |
 8002c8a:	03b6      	lsls	r6, r6, #14
 8002c8c:	430e      	orrs	r6, r1
                 ADC_CFGR1_CONTINUOUS((uint32_t)hadc->Init.ContinuousConvMode)    |
 8002c8e:	7ea5      	ldrb	r5, [r4, #26]
 8002c90:	4316      	orrs	r6, r2
                 hadc->Init.DataAlign                                             |
                 ADC_SCANDIR(hadc->Init.ScanConvMode)                             |
 8002c92:	6922      	ldr	r2, [r4, #16]
                 ADC_CFGR1_CONTINUOUS((uint32_t)hadc->Init.ContinuousConvMode)    |
 8002c94:	0369      	lsls	r1, r5, #13
                 ADC_CFGR1_OVERRUN(hadc->Init.Overrun)                            |
 8002c96:	033f      	lsls	r7, r7, #12
 8002c98:	430e      	orrs	r6, r1
                 ADC_SCANDIR(hadc->Init.ScanConvMode)                             |
 8002c9a:	2a02      	cmp	r2, #2
 8002c9c:	d100      	bne.n	8002ca0 <HAL_ADC_Init+0xa0>
 8002c9e:	2004      	movs	r0, #4
                 ADC_CFGR1_DMACONTREQ((uint32_t)hadc->Init.DMAContinuousRequests)  );
 8002ca0:	1d62      	adds	r2, r4, #5
 8002ca2:	7fd2      	ldrb	r2, [r2, #31]
    
    /* Enable discontinuous mode only if continuous mode is disabled */
    if (hadc->Init.DiscontinuousConvMode == ENABLE)
 8002ca4:	7ee1      	ldrb	r1, [r4, #27]
                 ADC_CFGR1_DMACONTREQ((uint32_t)hadc->Init.DMAContinuousRequests)  );
 8002ca6:	0052      	lsls	r2, r2, #1
                 ADC_SCANDIR(hadc->Init.ScanConvMode)                             |
 8002ca8:	4332      	orrs	r2, r6
 8002caa:	433a      	orrs	r2, r7
 8002cac:	4302      	orrs	r2, r0
    if (hadc->Init.DiscontinuousConvMode == ENABLE)
 8002cae:	2901      	cmp	r1, #1
 8002cb0:	d104      	bne.n	8002cbc <HAL_ADC_Init+0xbc>
    {
      if (hadc->Init.ContinuousConvMode == DISABLE)
 8002cb2:	2d00      	cmp	r5, #0
 8002cb4:	d12c      	bne.n	8002d10 <HAL_ADC_Init+0x110>
      {
        /* Enable the selected ADC group regular discontinuous mode */
        tmpCFGR1 |= ADC_CFGR1_DISCEN;
 8002cb6:	2180      	movs	r1, #128	; 0x80
 8002cb8:	0249      	lsls	r1, r1, #9
 8002cba:	430a      	orrs	r2, r1
    /* Enable external trigger if trigger selection is different of software  */
    /* start.                                                                 */
    /* Note: This configuration keeps the hardware feature of parameter       */
    /*       ExternalTrigConvEdge "trigger edge none" equivalent to           */
    /*       software start.                                                  */
    if (hadc->Init.ExternalTrigConv != ADC_SOFTWARE_START)
 8002cbc:	20c2      	movs	r0, #194	; 0xc2
 8002cbe:	69e1      	ldr	r1, [r4, #28]
 8002cc0:	30ff      	adds	r0, #255	; 0xff
 8002cc2:	4281      	cmp	r1, r0
 8002cc4:	d002      	beq.n	8002ccc <HAL_ADC_Init+0xcc>
    {
      tmpCFGR1 |= ( hadc->Init.ExternalTrigConv    |
 8002cc6:	6a20      	ldr	r0, [r4, #32]
 8002cc8:	4301      	orrs	r1, r0
 8002cca:	430a      	orrs	r2, r1
    /* Management of parameters "SamplingTimeCommon" and "SamplingTime"       */
    /* (obsolete): sampling time set in this function if parameter            */
    /*  "SamplingTimeCommon" has been set to a valid sampling time.           */
    /* Otherwise, sampling time is set into ADC channel initialization        */
    /* structure with parameter "SamplingTime" (obsolete).                    */
    if (IS_ADC_SAMPLE_TIME(hadc->Init.SamplingTimeCommon))
 8002ccc:	2080      	movs	r0, #128	; 0x80
    hadc->Instance->CFGR1 |= tmpCFGR1;
 8002cce:	68d9      	ldr	r1, [r3, #12]
    if (IS_ADC_SAMPLE_TIME(hadc->Init.SamplingTimeCommon))
 8002cd0:	0540      	lsls	r0, r0, #21
    hadc->Instance->CFGR1 |= tmpCFGR1;
 8002cd2:	4311      	orrs	r1, r2
 8002cd4:	60d9      	str	r1, [r3, #12]
    if (IS_ADC_SAMPLE_TIME(hadc->Init.SamplingTimeCommon))
 8002cd6:	6ae1      	ldr	r1, [r4, #44]	; 0x2c
 8002cd8:	4281      	cmp	r1, r0
 8002cda:	d002      	beq.n	8002ce2 <HAL_ADC_Init+0xe2>
 8002cdc:	1e48      	subs	r0, r1, #1
 8002cde:	2806      	cmp	r0, #6
 8002ce0:	d807      	bhi.n	8002cf2 <HAL_ADC_Init+0xf2>
    {
      /* Channel sampling time configuration */
      /* Clear the old sample time */
      hadc->Instance->SMPR &= ~(ADC_SMPR_SMP);
 8002ce2:	2507      	movs	r5, #7
 8002ce4:	6958      	ldr	r0, [r3, #20]
      
      /* Set the new sample time */
      hadc->Instance->SMPR |= ADC_SMPR_SET(hadc->Init.SamplingTimeCommon);
 8002ce6:	4029      	ands	r1, r5
      hadc->Instance->SMPR &= ~(ADC_SMPR_SMP);
 8002ce8:	43a8      	bics	r0, r5
 8002cea:	6158      	str	r0, [r3, #20]
      hadc->Instance->SMPR |= ADC_SMPR_SET(hadc->Init.SamplingTimeCommon);
 8002cec:	6958      	ldr	r0, [r3, #20]
 8002cee:	4301      	orrs	r1, r0
 8002cf0:	6159      	str	r1, [r3, #20]
    /* Check back that ADC registers have effectively been configured to      */
    /* ensure of no potential problem of ADC core IP clocking.                */
    /* Check through register CFGR1 (excluding analog watchdog configuration: */
    /* set into separate dedicated function, and bits of ADC resolution set   */
    /* out of temporary variable 'tmpCFGR1').                                 */
    if ((hadc->Instance->CFGR1 & ~(ADC_CFGR1_AWDCH | ADC_CFGR1_AWDEN | ADC_CFGR1_AWDSGL | ADC_CFGR1_RES))
 8002cf2:	68db      	ldr	r3, [r3, #12]
 8002cf4:	4915      	ldr	r1, [pc, #84]	; (8002d4c <HAL_ADC_Init+0x14c>)
 8002cf6:	400b      	ands	r3, r1
 8002cf8:	4293      	cmp	r3, r2
 8002cfa:	d111      	bne.n	8002d20 <HAL_ADC_Init+0x120>
         == tmpCFGR1)
    {
      /* Set ADC error code to none */
      ADC_CLEAR_ERRORCODE(hadc);
 8002cfc:	2000      	movs	r0, #0
      
      /* Set the ADC state */
      ADC_STATE_CLR_SET(hadc->State,
 8002cfe:	2203      	movs	r2, #3
      ADC_CLEAR_ERRORCODE(hadc);
 8002d00:	63e0      	str	r0, [r4, #60]	; 0x3c
      ADC_STATE_CLR_SET(hadc->State,
 8002d02:	6ba3      	ldr	r3, [r4, #56]	; 0x38
 8002d04:	4393      	bics	r3, r2
 8002d06:	001a      	movs	r2, r3
 8002d08:	2301      	movs	r3, #1
 8002d0a:	4313      	orrs	r3, r2
 8002d0c:	63a3      	str	r3, [r4, #56]	; 0x38
    tmp_hal_status = HAL_ERROR;
  }
  
  /* Return function status */
  return tmp_hal_status;
}
 8002d0e:	bdf8      	pop	{r3, r4, r5, r6, r7, pc}
        SET_BIT(hadc->State, HAL_ADC_STATE_ERROR_CONFIG);
 8002d10:	2020      	movs	r0, #32
 8002d12:	6ba5      	ldr	r5, [r4, #56]	; 0x38
 8002d14:	4328      	orrs	r0, r5
 8002d16:	63a0      	str	r0, [r4, #56]	; 0x38
        SET_BIT(hadc->ErrorCode, HAL_ADC_ERROR_INTERNAL);
 8002d18:	6be0      	ldr	r0, [r4, #60]	; 0x3c
 8002d1a:	4301      	orrs	r1, r0
 8002d1c:	63e1      	str	r1, [r4, #60]	; 0x3c
 8002d1e:	e7cd      	b.n	8002cbc <HAL_ADC_Init+0xbc>
      ADC_STATE_CLR_SET(hadc->State,
 8002d20:	2212      	movs	r2, #18
 8002d22:	6ba3      	ldr	r3, [r4, #56]	; 0x38
      SET_BIT(hadc->ErrorCode, HAL_ADC_ERROR_INTERNAL);
 8002d24:	2001      	movs	r0, #1
      ADC_STATE_CLR_SET(hadc->State,
 8002d26:	4393      	bics	r3, r2
 8002d28:	001a      	movs	r2, r3
 8002d2a:	2310      	movs	r3, #16
 8002d2c:	4313      	orrs	r3, r2
 8002d2e:	63a3      	str	r3, [r4, #56]	; 0x38
      SET_BIT(hadc->ErrorCode, HAL_ADC_ERROR_INTERNAL);
 8002d30:	6be3      	ldr	r3, [r4, #60]	; 0x3c
 8002d32:	4303      	orrs	r3, r0
 8002d34:	63e3      	str	r3, [r4, #60]	; 0x3c
      tmp_hal_status = HAL_ERROR;
 8002d36:	e7ea      	b.n	8002d0e <HAL_ADC_Init+0x10e>
    SET_BIT(hadc->State, HAL_ADC_STATE_ERROR_INTERNAL);
 8002d38:	2310      	movs	r3, #16
 8002d3a:	6ba2      	ldr	r2, [r4, #56]	; 0x38
    tmp_hal_status = HAL_ERROR;
 8002d3c:	2001      	movs	r0, #1
    SET_BIT(hadc->State, HAL_ADC_STATE_ERROR_INTERNAL);
 8002d3e:	4313      	orrs	r3, r2
 8002d40:	63a3      	str	r3, [r4, #56]	; 0x38
    tmp_hal_status = HAL_ERROR;
 8002d42:	e7e4      	b.n	8002d0e <HAL_ADC_Init+0x10e>
 8002d44:	fffffefd 	.word	0xfffffefd
 8002d48:	fffe0219 	.word	0xfffe0219
 8002d4c:	833fffe7 	.word	0x833fffe7

08002d50 <HAL_ADC_ConfigChannel>:
  * @param  hadc ADC handle
  * @param  sConfig Structure of ADC channel for regular group.
  * @retval HAL status
  */
HAL_StatusTypeDef HAL_ADC_ConfigChannel(ADC_HandleTypeDef* hadc, ADC_ChannelConfTypeDef* sConfig)
{
 8002d50:	b5f7      	push	{r0, r1, r2, r4, r5, r6, r7, lr}
  HAL_StatusTypeDef tmp_hal_status = HAL_OK;
  __IO uint32_t wait_loop_index = 0U;
 8002d52:	2200      	movs	r2, #0
  {
    assert_param(IS_ADC_SAMPLE_TIME(sConfig->SamplingTime));
  }
  
  /* Process locked */
  __HAL_LOCK(hadc);
 8002d54:	0004      	movs	r4, r0
  __IO uint32_t wait_loop_index = 0U;
 8002d56:	9201      	str	r2, [sp, #4]
  __HAL_LOCK(hadc);
 8002d58:	3434      	adds	r4, #52	; 0x34
 8002d5a:	7822      	ldrb	r2, [r4, #0]
{
 8002d5c:	0003      	movs	r3, r0
  if (! IS_ADC_SAMPLE_TIME(hadc->Init.SamplingTimeCommon))
 8002d5e:	6ac5      	ldr	r5, [r0, #44]	; 0x2c
  __HAL_LOCK(hadc);
 8002d60:	2002      	movs	r0, #2
 8002d62:	2a01      	cmp	r2, #1
 8002d64:	d02b      	beq.n	8002dbe <HAL_ADC_ConfigChannel+0x6e>
 8002d66:	3801      	subs	r0, #1
 8002d68:	7020      	strb	r0, [r4, #0]
  /* Parameters that can be updated when ADC is disabled or enabled without   */
  /* conversion on going on regular group:                                    */
  /*  - Channel number                                                        */
  /*  - Channel sampling time                                                 */
  /*  - Management of internal measurement channels: VrefInt/TempSensor/Vbat  */
  if (ADC_IS_CONVERSION_ONGOING_REGULAR(hadc) == RESET)
 8002d6a:	681a      	ldr	r2, [r3, #0]
 8002d6c:	6896      	ldr	r6, [r2, #8]
 8002d6e:	0776      	lsls	r6, r6, #29
 8002d70:	d461      	bmi.n	8002e36 <HAL_ADC_ConfigChannel+0xe6>
    /* ADC conversion sequencer.                                              */
    if (sConfig->Rank != ADC_RANK_NONE)
    {
      /* Regular sequence configuration */
      /* Set the channel selection register from the selected channel */
      hadc->Instance->CHSELR |= ADC_CHSELR_CHANNEL(sConfig->Channel);
 8002d72:	680b      	ldr	r3, [r1, #0]
    if (sConfig->Rank != ADC_RANK_NONE)
 8002d74:	4f32      	ldr	r7, [pc, #200]	; (8002e40 <HAL_ADC_ConfigChannel+0xf0>)
      hadc->Instance->CHSELR |= ADC_CHSELR_CHANNEL(sConfig->Channel);
 8002d76:	4098      	lsls	r0, r3
      /* internal measurement paths enable: If internal channel selected,     */
      /* enable dedicated internal buffers and path.                          */
      /* Note: these internal measurement paths can be disabled using         */
      /*       HAL_ADC_DeInit() or removing the channel from sequencer with   */
      /*       channel configuration parameter "Rank".                        */
      if(ADC_IS_CHANNEL_INTERNAL(sConfig->Channel))
 8002d78:	001e      	movs	r6, r3
      hadc->Instance->CHSELR |= ADC_CHSELR_CHANNEL(sConfig->Channel);
 8002d7a:	4684      	mov	ip, r0
    if (sConfig->Rank != ADC_RANK_NONE)
 8002d7c:	6848      	ldr	r0, [r1, #4]
      if(ADC_IS_CHANNEL_INTERNAL(sConfig->Channel))
 8002d7e:	3e10      	subs	r6, #16
    if (sConfig->Rank != ADC_RANK_NONE)
 8002d80:	42b8      	cmp	r0, r7
 8002d82:	d040      	beq.n	8002e06 <HAL_ADC_ConfigChannel+0xb6>
      hadc->Instance->CHSELR |= ADC_CHSELR_CHANNEL(sConfig->Channel);
 8002d84:	4660      	mov	r0, ip
 8002d86:	6a97      	ldr	r7, [r2, #40]	; 0x28
 8002d88:	4338      	orrs	r0, r7
 8002d8a:	6290      	str	r0, [r2, #40]	; 0x28
      if (! IS_ADC_SAMPLE_TIME(hadc->Init.SamplingTimeCommon))
 8002d8c:	2080      	movs	r0, #128	; 0x80
 8002d8e:	0540      	lsls	r0, r0, #21
 8002d90:	4285      	cmp	r5, r0
 8002d92:	d00f      	beq.n	8002db4 <HAL_ADC_ConfigChannel+0x64>
 8002d94:	3d01      	subs	r5, #1
 8002d96:	2d06      	cmp	r5, #6
 8002d98:	d90c      	bls.n	8002db4 <HAL_ADC_ConfigChannel+0x64>
        if (sConfig->SamplingTime != ADC_GET_SAMPLINGTIME(hadc))
 8002d9a:	2007      	movs	r0, #7
 8002d9c:	6955      	ldr	r5, [r2, #20]
 8002d9e:	6889      	ldr	r1, [r1, #8]
 8002da0:	4005      	ands	r5, r0
 8002da2:	42a9      	cmp	r1, r5
 8002da4:	d006      	beq.n	8002db4 <HAL_ADC_ConfigChannel+0x64>
          hadc->Instance->SMPR &= ~(ADC_SMPR_SMP);
 8002da6:	6955      	ldr	r5, [r2, #20]
          hadc->Instance->SMPR |= ADC_SMPR_SET(sConfig->SamplingTime);
 8002da8:	4001      	ands	r1, r0
          hadc->Instance->SMPR &= ~(ADC_SMPR_SMP);
 8002daa:	4385      	bics	r5, r0
 8002dac:	6155      	str	r5, [r2, #20]
          hadc->Instance->SMPR |= ADC_SMPR_SET(sConfig->SamplingTime);
 8002dae:	6955      	ldr	r5, [r2, #20]
 8002db0:	4329      	orrs	r1, r5
 8002db2:	6151      	str	r1, [r2, #20]
      if(ADC_IS_CHANNEL_INTERNAL(sConfig->Channel))
 8002db4:	2e02      	cmp	r6, #2
 8002db6:	d903      	bls.n	8002dc0 <HAL_ADC_ConfigChannel+0x70>
  HAL_StatusTypeDef tmp_hal_status = HAL_OK;
 8002db8:	2000      	movs	r0, #0
    
    tmp_hal_status = HAL_ERROR;
  }
  
  /* Process unlocked */
  __HAL_UNLOCK(hadc);
 8002dba:	2300      	movs	r3, #0
 8002dbc:	7023      	strb	r3, [r4, #0]
  
  /* Return function status */
  return tmp_hal_status;
}
 8002dbe:	bdfe      	pop	{r1, r2, r3, r4, r5, r6, r7, pc}
        ADC->CCR |= ADC_CHANNEL_INTERNAL_PATH(sConfig->Channel);
 8002dc0:	4820      	ldr	r0, [pc, #128]	; (8002e44 <HAL_ADC_ConfigChannel+0xf4>)
 8002dc2:	6801      	ldr	r1, [r0, #0]
 8002dc4:	2b10      	cmp	r3, #16
 8002dc6:	d01b      	beq.n	8002e00 <HAL_ADC_ConfigChannel+0xb0>
 8002dc8:	001a      	movs	r2, r3
 8002dca:	3a11      	subs	r2, #17
 8002dcc:	4255      	negs	r5, r2
 8002dce:	416a      	adcs	r2, r5
 8002dd0:	4d1d      	ldr	r5, [pc, #116]	; (8002e48 <HAL_ADC_ConfigChannel+0xf8>)
 8002dd2:	4252      	negs	r2, r2
 8002dd4:	402a      	ands	r2, r5
 8002dd6:	2580      	movs	r5, #128	; 0x80
 8002dd8:	046d      	lsls	r5, r5, #17
 8002dda:	1952      	adds	r2, r2, r5
 8002ddc:	430a      	orrs	r2, r1
 8002dde:	6002      	str	r2, [r0, #0]
        if (sConfig->Channel == ADC_CHANNEL_TEMPSENSOR)
 8002de0:	2b10      	cmp	r3, #16
 8002de2:	d1e9      	bne.n	8002db8 <HAL_ADC_ConfigChannel+0x68>
          wait_loop_index = (ADC_TEMPSENSOR_DELAY_US * (SystemCoreClock / 1000000U));
 8002de4:	4b19      	ldr	r3, [pc, #100]	; (8002e4c <HAL_ADC_ConfigChannel+0xfc>)
 8002de6:	491a      	ldr	r1, [pc, #104]	; (8002e50 <HAL_ADC_ConfigChannel+0x100>)
 8002de8:	6818      	ldr	r0, [r3, #0]
 8002dea:	f7fd f9b5 	bl	8000158 <__udivsi3>
 8002dee:	230a      	movs	r3, #10
 8002df0:	4343      	muls	r3, r0
            wait_loop_index--;
 8002df2:	9301      	str	r3, [sp, #4]
          while(wait_loop_index != 0U)
 8002df4:	9b01      	ldr	r3, [sp, #4]
 8002df6:	2b00      	cmp	r3, #0
 8002df8:	d0de      	beq.n	8002db8 <HAL_ADC_ConfigChannel+0x68>
            wait_loop_index--;
 8002dfa:	9b01      	ldr	r3, [sp, #4]
 8002dfc:	3b01      	subs	r3, #1
 8002dfe:	e7f8      	b.n	8002df2 <HAL_ADC_ConfigChannel+0xa2>
        ADC->CCR |= ADC_CHANNEL_INTERNAL_PATH(sConfig->Channel);
 8002e00:	2280      	movs	r2, #128	; 0x80
 8002e02:	0412      	lsls	r2, r2, #16
 8002e04:	e7ea      	b.n	8002ddc <HAL_ADC_ConfigChannel+0x8c>
      hadc->Instance->CHSELR &= ~ADC_CHSELR_CHANNEL(sConfig->Channel);
 8002e06:	4660      	mov	r0, ip
 8002e08:	6a91      	ldr	r1, [r2, #40]	; 0x28
 8002e0a:	4381      	bics	r1, r0
 8002e0c:	6291      	str	r1, [r2, #40]	; 0x28
      if(ADC_IS_CHANNEL_INTERNAL(sConfig->Channel))
 8002e0e:	2e02      	cmp	r6, #2
 8002e10:	d8d2      	bhi.n	8002db8 <HAL_ADC_ConfigChannel+0x68>
        ADC->CCR &= ~ADC_CHANNEL_INTERNAL_PATH(sConfig->Channel);
 8002e12:	4a0c      	ldr	r2, [pc, #48]	; (8002e44 <HAL_ADC_ConfigChannel+0xf4>)
 8002e14:	6811      	ldr	r1, [r2, #0]
 8002e16:	2b10      	cmp	r3, #16
 8002e18:	d00b      	beq.n	8002e32 <HAL_ADC_ConfigChannel+0xe2>
 8002e1a:	3b11      	subs	r3, #17
 8002e1c:	4258      	negs	r0, r3
 8002e1e:	4143      	adcs	r3, r0
 8002e20:	20c0      	movs	r0, #192	; 0xc0
 8002e22:	425b      	negs	r3, r3
 8002e24:	0400      	lsls	r0, r0, #16
 8002e26:	4003      	ands	r3, r0
 8002e28:	480a      	ldr	r0, [pc, #40]	; (8002e54 <HAL_ADC_ConfigChannel+0x104>)
 8002e2a:	181b      	adds	r3, r3, r0
 8002e2c:	400b      	ands	r3, r1
 8002e2e:	6013      	str	r3, [r2, #0]
 8002e30:	e7c2      	b.n	8002db8 <HAL_ADC_ConfigChannel+0x68>
 8002e32:	4b09      	ldr	r3, [pc, #36]	; (8002e58 <HAL_ADC_ConfigChannel+0x108>)
 8002e34:	e7fa      	b.n	8002e2c <HAL_ADC_ConfigChannel+0xdc>
    SET_BIT(hadc->State, HAL_ADC_STATE_ERROR_CONFIG);
 8002e36:	2220      	movs	r2, #32
 8002e38:	6b99      	ldr	r1, [r3, #56]	; 0x38
 8002e3a:	430a      	orrs	r2, r1
 8002e3c:	639a      	str	r2, [r3, #56]	; 0x38
    tmp_hal_status = HAL_ERROR;
 8002e3e:	e7bc      	b.n	8002dba <HAL_ADC_ConfigChannel+0x6a>
 8002e40:	00001001 	.word	0x00001001
 8002e44:	40012708 	.word	0x40012708
 8002e48:	ff400000 	.word	0xff400000
 8002e4c:	20000624 	.word	0x20000624
 8002e50:	000f4240 	.word	0x000f4240
 8002e54:	feffffff 	.word	0xfeffffff
 8002e58:	ff7fffff 	.word	0xff7fffff

08002e5c <HAL_NVIC_SetPriority>:
  *         with stm32f0xx devices, this parameter is a dummy value and it is ignored, because 
  *         no subpriority supported in Cortex M0 based products.   
  * @retval None
  */
void HAL_NVIC_SetPriority(IRQn_Type IRQn, uint32_t PreemptPriority, uint32_t SubPriority)
{ 
 8002e5c:	b530      	push	{r4, r5, lr}
 */
__STATIC_INLINE void __NVIC_SetPriority(IRQn_Type IRQn, uint32_t priority)
{
  if ((int32_t)(IRQn) >= 0)
  {
    NVIC->IP[_IP_IDX(IRQn)]  = ((uint32_t)(NVIC->IP[_IP_IDX(IRQn)]  & ~(0xFFUL << _BIT_SHIFT(IRQn))) |
 8002e5e:	25ff      	movs	r5, #255	; 0xff
 8002e60:	2403      	movs	r4, #3
 8002e62:	002a      	movs	r2, r5
 8002e64:	4004      	ands	r4, r0
 8002e66:	00e4      	lsls	r4, r4, #3
 8002e68:	40a2      	lsls	r2, r4
       (((priority << (8U - __NVIC_PRIO_BITS)) & (uint32_t)0xFFUL) << _BIT_SHIFT(IRQn)));
 8002e6a:	0189      	lsls	r1, r1, #6
 8002e6c:	4029      	ands	r1, r5
    NVIC->IP[_IP_IDX(IRQn)]  = ((uint32_t)(NVIC->IP[_IP_IDX(IRQn)]  & ~(0xFFUL << _BIT_SHIFT(IRQn))) |
 8002e6e:	43d2      	mvns	r2, r2
       (((priority << (8U - __NVIC_PRIO_BITS)) & (uint32_t)0xFFUL) << _BIT_SHIFT(IRQn)));
 8002e70:	40a1      	lsls	r1, r4
    NVIC->IP[_IP_IDX(IRQn)]  = ((uint32_t)(NVIC->IP[_IP_IDX(IRQn)]  & ~(0xFFUL << _BIT_SHIFT(IRQn))) |
 8002e72:	b2c3      	uxtb	r3, r0
  if ((int32_t)(IRQn) >= 0)
 8002e74:	2800      	cmp	r0, #0
 8002e76:	db0a      	blt.n	8002e8e <HAL_NVIC_SetPriority+0x32>
    NVIC->IP[_IP_IDX(IRQn)]  = ((uint32_t)(NVIC->IP[_IP_IDX(IRQn)]  & ~(0xFFUL << _BIT_SHIFT(IRQn))) |
 8002e78:	24c0      	movs	r4, #192	; 0xc0
 8002e7a:	4b0b      	ldr	r3, [pc, #44]	; (8002ea8 <HAL_NVIC_SetPriority+0x4c>)
 8002e7c:	0880      	lsrs	r0, r0, #2
 8002e7e:	0080      	lsls	r0, r0, #2
 8002e80:	18c0      	adds	r0, r0, r3
 8002e82:	00a4      	lsls	r4, r4, #2
 8002e84:	5903      	ldr	r3, [r0, r4]
 8002e86:	401a      	ands	r2, r3
 8002e88:	4311      	orrs	r1, r2
 8002e8a:	5101      	str	r1, [r0, r4]
  /* Check the parameters */
  assert_param(IS_NVIC_PREEMPTION_PRIORITY(PreemptPriority));
  NVIC_SetPriority(IRQn,PreemptPriority);
}
 8002e8c:	bd30      	pop	{r4, r5, pc}
  }
  else
  {
    SCB->SHP[_SHP_IDX(IRQn)] = ((uint32_t)(SCB->SHP[_SHP_IDX(IRQn)] & ~(0xFFUL << _BIT_SHIFT(IRQn))) |
 8002e8e:	200f      	movs	r0, #15
 8002e90:	4003      	ands	r3, r0
 8002e92:	3b08      	subs	r3, #8
 8002e94:	4805      	ldr	r0, [pc, #20]	; (8002eac <HAL_NVIC_SetPriority+0x50>)
 8002e96:	089b      	lsrs	r3, r3, #2
 8002e98:	009b      	lsls	r3, r3, #2
 8002e9a:	181b      	adds	r3, r3, r0
 8002e9c:	69d8      	ldr	r0, [r3, #28]
 8002e9e:	4002      	ands	r2, r0
 8002ea0:	4311      	orrs	r1, r2
 8002ea2:	61d9      	str	r1, [r3, #28]
 8002ea4:	e7f2      	b.n	8002e8c <HAL_NVIC_SetPriority+0x30>
 8002ea6:	46c0      	nop			; (mov r8, r8)
 8002ea8:	e000e100 	.word	0xe000e100
 8002eac:	e000ed00 	.word	0xe000ed00

08002eb0 <HAL_NVIC_EnableIRQ>:
  if ((int32_t)(IRQn) >= 0)
 8002eb0:	2800      	cmp	r0, #0
 8002eb2:	db05      	blt.n	8002ec0 <HAL_NVIC_EnableIRQ+0x10>
    NVIC->ISER[0U] = (uint32_t)(1UL << (((uint32_t)IRQn) & 0x1FUL));
 8002eb4:	231f      	movs	r3, #31
 8002eb6:	4018      	ands	r0, r3
 8002eb8:	3b1e      	subs	r3, #30
 8002eba:	4083      	lsls	r3, r0
 8002ebc:	4a01      	ldr	r2, [pc, #4]	; (8002ec4 <HAL_NVIC_EnableIRQ+0x14>)
 8002ebe:	6013      	str	r3, [r2, #0]
  /* Check the parameters */
  assert_param(IS_NVIC_DEVICE_IRQ(IRQn));
  
  /* Enable interrupt */
  NVIC_EnableIRQ(IRQn);
}
 8002ec0:	4770      	bx	lr
 8002ec2:	46c0      	nop			; (mov r8, r8)
 8002ec4:	e000e100 	.word	0xe000e100

08002ec8 <HAL_SYSTICK_Config>:
           function <b>SysTick_Config</b> is not included. In this case, the file <b><i>device</i>.h</b>
           must contain a vendor-specific implementation of this function.
 */
__STATIC_INLINE uint32_t SysTick_Config(uint32_t ticks)
{
  if ((ticks - 1UL) > SysTick_LOAD_RELOAD_Msk)
 8002ec8:	2280      	movs	r2, #128	; 0x80
 8002eca:	1e43      	subs	r3, r0, #1
 8002ecc:	0452      	lsls	r2, r2, #17
  {
    return (1UL);                                                   /* Reload value impossible */
 8002ece:	2001      	movs	r0, #1
  if ((ticks - 1UL) > SysTick_LOAD_RELOAD_Msk)
 8002ed0:	4293      	cmp	r3, r2
 8002ed2:	d20d      	bcs.n	8002ef0 <HAL_SYSTICK_Config+0x28>
    SCB->SHP[_SHP_IDX(IRQn)] = ((uint32_t)(SCB->SHP[_SHP_IDX(IRQn)] & ~(0xFFUL << _BIT_SHIFT(IRQn))) |
 8002ed4:	21c0      	movs	r1, #192	; 0xc0
  }

  SysTick->LOAD  = (uint32_t)(ticks - 1UL);                         /* set reload register */
 8002ed6:	4a07      	ldr	r2, [pc, #28]	; (8002ef4 <HAL_SYSTICK_Config+0x2c>)
    SCB->SHP[_SHP_IDX(IRQn)] = ((uint32_t)(SCB->SHP[_SHP_IDX(IRQn)] & ~(0xFFUL << _BIT_SHIFT(IRQn))) |
 8002ed8:	4807      	ldr	r0, [pc, #28]	; (8002ef8 <HAL_SYSTICK_Config+0x30>)
  SysTick->LOAD  = (uint32_t)(ticks - 1UL);                         /* set reload register */
 8002eda:	6053      	str	r3, [r2, #4]
    SCB->SHP[_SHP_IDX(IRQn)] = ((uint32_t)(SCB->SHP[_SHP_IDX(IRQn)] & ~(0xFFUL << _BIT_SHIFT(IRQn))) |
 8002edc:	6a03      	ldr	r3, [r0, #32]
 8002ede:	0609      	lsls	r1, r1, #24
 8002ee0:	021b      	lsls	r3, r3, #8
 8002ee2:	0a1b      	lsrs	r3, r3, #8
 8002ee4:	430b      	orrs	r3, r1
 8002ee6:	6203      	str	r3, [r0, #32]
  NVIC_SetPriority (SysTick_IRQn, (1UL << __NVIC_PRIO_BITS) - 1UL); /* set Priority for Systick Interrupt */
  SysTick->VAL   = 0UL;                                             /* Load the SysTick Counter Value */
 8002ee8:	2000      	movs	r0, #0
  SysTick->CTRL  = SysTick_CTRL_CLKSOURCE_Msk |
 8002eea:	2307      	movs	r3, #7
  SysTick->VAL   = 0UL;                                             /* Load the SysTick Counter Value */
 8002eec:	6090      	str	r0, [r2, #8]
  SysTick->CTRL  = SysTick_CTRL_CLKSOURCE_Msk |
 8002eee:	6013      	str	r3, [r2, #0]
  *                  - 1  Function failed.
  */
uint32_t HAL_SYSTICK_Config(uint32_t TicksNumb)
{
   return SysTick_Config(TicksNumb);
}
 8002ef0:	4770      	bx	lr
 8002ef2:	46c0      	nop			; (mov r8, r8)
 8002ef4:	e000e010 	.word	0xe000e010
 8002ef8:	e000ed00 	.word	0xe000ed00

08002efc <HAL_SYSTICK_Callback>:
__weak void HAL_SYSTICK_Callback(void)
{
  /* NOTE : This function Should not be modified, when the callback is needed,
            the HAL_SYSTICK_Callback could be implemented in the user file
   */
}
 8002efc:	4770      	bx	lr

08002efe <HAL_SYSTICK_IRQHandler>:
{
 8002efe:	b510      	push	{r4, lr}
  HAL_SYSTICK_Callback();
 8002f00:	f7ff fffc 	bl	8002efc <HAL_SYSTICK_Callback>
}
 8002f04:	bd10      	pop	{r4, pc}
	...

08002f08 <HAL_DMA_Init>:
  * @param  hdma Pointer to a DMA_HandleTypeDef structure that contains
  *               the configuration information for the specified DMA Channel.  
  * @retval HAL status
  */
HAL_StatusTypeDef HAL_DMA_Init(DMA_HandleTypeDef *hdma)
{ 
 8002f08:	b570      	push	{r4, r5, r6, lr}
 8002f0a:	0004      	movs	r4, r0
  uint32_t tmp = 0U;
  
  /* Check the DMA handle allocation */
  if(NULL == hdma)
  {
    return HAL_ERROR;
 8002f0c:	2001      	movs	r0, #1
  if(NULL == hdma)
 8002f0e:	2c00      	cmp	r4, #0
 8002f10:	d024      	beq.n	8002f5c <HAL_DMA_Init+0x54>
  assert_param(IS_DMA_MEMORY_DATA_SIZE(hdma->Init.MemDataAlignment));
  assert_param(IS_DMA_MODE(hdma->Init.Mode));
  assert_param(IS_DMA_PRIORITY(hdma->Init.Priority));
  
  /* Change DMA peripheral state */
  hdma->State = HAL_DMA_STATE_BUSY;
 8002f12:	2302      	movs	r3, #2
 8002f14:	1ca5      	adds	r5, r4, #2
 8002f16:	77eb      	strb	r3, [r5, #31]

  /* Get the CR register value */
  tmp = hdma->Instance->CCR;
 8002f18:	6820      	ldr	r0, [r4, #0]
  
  /* Clear PL, MSIZE, PSIZE, MINC, PINC, CIRC, DIR bits */
  tmp &= ((uint32_t)~(DMA_CCR_PL    | DMA_CCR_MSIZE  | DMA_CCR_PSIZE  | \
 8002f1a:	4b11      	ldr	r3, [pc, #68]	; (8002f60 <HAL_DMA_Init+0x58>)
  tmp = hdma->Instance->CCR;
 8002f1c:	6802      	ldr	r2, [r0, #0]
                      DMA_CCR_MINC  | DMA_CCR_PINC   | DMA_CCR_CIRC   | \
                      DMA_CCR_DIR));
  
  /* Prepare the DMA Channel configuration */
  tmp |=  hdma->Init.Direction        |
 8002f1e:	68a1      	ldr	r1, [r4, #8]
  tmp &= ((uint32_t)~(DMA_CCR_PL    | DMA_CCR_MSIZE  | DMA_CCR_PSIZE  | \
 8002f20:	401a      	ands	r2, r3
  tmp |=  hdma->Init.Direction        |
 8002f22:	6863      	ldr	r3, [r4, #4]
 8002f24:	430b      	orrs	r3, r1
          hdma->Init.PeriphInc           | hdma->Init.MemInc           |
 8002f26:	68e1      	ldr	r1, [r4, #12]
 8002f28:	430b      	orrs	r3, r1
 8002f2a:	6921      	ldr	r1, [r4, #16]
 8002f2c:	430b      	orrs	r3, r1
          hdma->Init.PeriphDataAlignment | hdma->Init.MemDataAlignment |
 8002f2e:	6961      	ldr	r1, [r4, #20]
 8002f30:	430b      	orrs	r3, r1
 8002f32:	69a1      	ldr	r1, [r4, #24]
 8002f34:	430b      	orrs	r3, r1
          hdma->Init.Mode                | hdma->Init.Priority;
 8002f36:	69e1      	ldr	r1, [r4, #28]
 8002f38:	430b      	orrs	r3, r1
  tmp |=  hdma->Init.Direction        |
 8002f3a:	4313      	orrs	r3, r2

  /* Write to DMA Channel CR register */
  hdma->Instance->CCR = tmp;  
 8002f3c:	6003      	str	r3, [r0, #0]
    hdma->DmaBaseAddress = DMA2;
  }
#else
  /* calculation of the channel index */
  /* DMA1 */
  hdma->ChannelIndex = (((uint32_t)hdma->Instance - (uint32_t)DMA1_Channel1) / ((uint32_t)DMA1_Channel2 - (uint32_t)DMA1_Channel1)) << 2U;
 8002f3e:	4b09      	ldr	r3, [pc, #36]	; (8002f64 <HAL_DMA_Init+0x5c>)
 8002f40:	2114      	movs	r1, #20
 8002f42:	18c0      	adds	r0, r0, r3
 8002f44:	f7fd f908 	bl	8000158 <__udivsi3>
  hdma->DmaBaseAddress = DMA1;
 8002f48:	4b07      	ldr	r3, [pc, #28]	; (8002f68 <HAL_DMA_Init+0x60>)
  hdma->ChannelIndex = (((uint32_t)hdma->Instance - (uint32_t)DMA1_Channel1) / ((uint32_t)DMA1_Channel2 - (uint32_t)DMA1_Channel1)) << 2U;
 8002f4a:	0080      	lsls	r0, r0, #2
 8002f4c:	6420      	str	r0, [r4, #64]	; 0x40
  hdma->DmaBaseAddress = DMA1;
 8002f4e:	63e3      	str	r3, [r4, #60]	; 0x3c
  hdma->ErrorCode = HAL_DMA_ERROR_NONE;
 8002f50:	2000      	movs	r0, #0
  hdma->State = HAL_DMA_STATE_READY;
 8002f52:	2301      	movs	r3, #1
  hdma->ErrorCode = HAL_DMA_ERROR_NONE;
 8002f54:	63a0      	str	r0, [r4, #56]	; 0x38
  hdma->Lock = HAL_UNLOCKED;
 8002f56:	18e4      	adds	r4, r4, r3
  hdma->State = HAL_DMA_STATE_READY;
 8002f58:	77eb      	strb	r3, [r5, #31]
  hdma->Lock = HAL_UNLOCKED;
 8002f5a:	77e0      	strb	r0, [r4, #31]
}  
 8002f5c:	bd70      	pop	{r4, r5, r6, pc}
 8002f5e:	46c0      	nop			; (mov r8, r8)
 8002f60:	ffffc00f 	.word	0xffffc00f
 8002f64:	bffdfff8 	.word	0xbffdfff8
 8002f68:	40020000 	.word	0x40020000

08002f6c <HAL_GPIO_Init>:
  *         the configuration information for the specified GPIO peripheral.
  * @retval None
  */
void HAL_GPIO_Init(GPIO_TypeDef  *GPIOx, GPIO_InitTypeDef *GPIO_Init)
{
  uint32_t position = 0x00u;
 8002f6c:	2300      	movs	r3, #0
{
 8002f6e:	b5f0      	push	{r4, r5, r6, r7, lr}
 8002f70:	b087      	sub	sp, #28
  assert_param(IS_GPIO_ALL_INSTANCE(GPIOx));
  assert_param(IS_GPIO_PIN(GPIO_Init->Pin));
  assert_param(IS_GPIO_MODE(GPIO_Init->Mode));

  /* Configure the port pins */
  while (((GPIO_Init->Pin) >> position) != 0x00u)
 8002f72:	680a      	ldr	r2, [r1, #0]
 8002f74:	0014      	movs	r4, r2
 8002f76:	40dc      	lsrs	r4, r3
 8002f78:	d101      	bne.n	8002f7e <HAL_GPIO_Init+0x12>
      }
    }

    position++;
  } 
}
 8002f7a:	b007      	add	sp, #28
 8002f7c:	bdf0      	pop	{r4, r5, r6, r7, pc}
    iocurrent = (GPIO_Init->Pin) & (1uL << position);
 8002f7e:	2501      	movs	r5, #1
 8002f80:	0014      	movs	r4, r2
 8002f82:	409d      	lsls	r5, r3
 8002f84:	402c      	ands	r4, r5
 8002f86:	9401      	str	r4, [sp, #4]
    if (iocurrent != 0x00u)
 8002f88:	422a      	tst	r2, r5
 8002f8a:	d100      	bne.n	8002f8e <HAL_GPIO_Init+0x22>
 8002f8c:	e091      	b.n	80030b2 <HAL_GPIO_Init+0x146>
      if(((GPIO_Init->Mode & GPIO_MODE) == MODE_OUTPUT) ||
 8002f8e:	684a      	ldr	r2, [r1, #4]
 8002f90:	005e      	lsls	r6, r3, #1
 8002f92:	4694      	mov	ip, r2
 8002f94:	2203      	movs	r2, #3
 8002f96:	4664      	mov	r4, ip
 8002f98:	4022      	ands	r2, r4
        temp &= ~(GPIO_OSPEEDER_OSPEEDR0 << (position * 2u));
 8002f9a:	2403      	movs	r4, #3
 8002f9c:	40b4      	lsls	r4, r6
 8002f9e:	43e4      	mvns	r4, r4
 8002fa0:	9402      	str	r4, [sp, #8]
      if(((GPIO_Init->Mode & GPIO_MODE) == MODE_OUTPUT) ||
 8002fa2:	1e54      	subs	r4, r2, #1
 8002fa4:	2c01      	cmp	r4, #1
 8002fa6:	d82a      	bhi.n	8002ffe <HAL_GPIO_Init+0x92>
        temp = GPIOx->OSPEEDR;
 8002fa8:	6887      	ldr	r7, [r0, #8]
        temp &= ~(GPIO_OSPEEDER_OSPEEDR0 << (position * 2u));
 8002faa:	9c02      	ldr	r4, [sp, #8]
 8002fac:	4027      	ands	r7, r4
        temp |= (GPIO_Init->Speed << (position * 2u));
 8002fae:	68cc      	ldr	r4, [r1, #12]
 8002fb0:	40b4      	lsls	r4, r6
 8002fb2:	433c      	orrs	r4, r7
        GPIOx->OSPEEDR = temp;
 8002fb4:	6084      	str	r4, [r0, #8]
        temp = GPIOx->OTYPER;
 8002fb6:	6844      	ldr	r4, [r0, #4]
        temp |= (((GPIO_Init->Mode & OUTPUT_TYPE) >> OUTPUT_TYPE_Pos) << position);
 8002fb8:	2701      	movs	r7, #1
        temp &= ~(GPIO_OTYPER_OT_0 << position) ;
 8002fba:	43ac      	bics	r4, r5
 8002fbc:	0025      	movs	r5, r4
        temp |= (((GPIO_Init->Mode & OUTPUT_TYPE) >> OUTPUT_TYPE_Pos) << position);
 8002fbe:	4664      	mov	r4, ip
 8002fc0:	0924      	lsrs	r4, r4, #4
 8002fc2:	403c      	ands	r4, r7
 8002fc4:	409c      	lsls	r4, r3
 8002fc6:	432c      	orrs	r4, r5
        GPIOx->OTYPER = temp;
 8002fc8:	6044      	str	r4, [r0, #4]
        temp = GPIOx->PUPDR;
 8002fca:	68c5      	ldr	r5, [r0, #12]
        temp &= ~(GPIO_PUPDR_PUPDR0 << (position * 2u));
 8002fcc:	9c02      	ldr	r4, [sp, #8]
 8002fce:	4025      	ands	r5, r4
        temp |= ((GPIO_Init->Pull) << (position * 2u));
 8002fd0:	688c      	ldr	r4, [r1, #8]
 8002fd2:	40b4      	lsls	r4, r6
 8002fd4:	432c      	orrs	r4, r5
        GPIOx->PUPDR = temp;
 8002fd6:	60c4      	str	r4, [r0, #12]
      if((GPIO_Init->Mode & GPIO_MODE) == MODE_AF)
 8002fd8:	2a02      	cmp	r2, #2
 8002fda:	d112      	bne.n	8003002 <HAL_GPIO_Init+0x96>
        temp = GPIOx->AFR[position >> 3u];
 8002fdc:	08dc      	lsrs	r4, r3, #3
        temp &= ~(0xFu << ((position & 0x07u) * 4u));
 8002fde:	2507      	movs	r5, #7
 8002fe0:	00a4      	lsls	r4, r4, #2
 8002fe2:	1904      	adds	r4, r0, r4
        temp = GPIOx->AFR[position >> 3u];
 8002fe4:	6a27      	ldr	r7, [r4, #32]
        temp &= ~(0xFu << ((position & 0x07u) * 4u));
 8002fe6:	9403      	str	r4, [sp, #12]
 8002fe8:	240f      	movs	r4, #15
 8002fea:	401d      	ands	r5, r3
 8002fec:	00ad      	lsls	r5, r5, #2
 8002fee:	40ac      	lsls	r4, r5
 8002ff0:	43a7      	bics	r7, r4
        temp |= ((GPIO_Init->Alternate) << ((position & 0x07u) * 4u));
 8002ff2:	690c      	ldr	r4, [r1, #16]
 8002ff4:	40ac      	lsls	r4, r5
 8002ff6:	4327      	orrs	r7, r4
        GPIOx->AFR[position >> 3u] = temp;
 8002ff8:	9c03      	ldr	r4, [sp, #12]
 8002ffa:	6227      	str	r7, [r4, #32]
 8002ffc:	e001      	b.n	8003002 <HAL_GPIO_Init+0x96>
      if((GPIO_Init->Mode & GPIO_MODE) != MODE_ANALOG)
 8002ffe:	2a03      	cmp	r2, #3
 8003000:	d1e3      	bne.n	8002fca <HAL_GPIO_Init+0x5e>
      temp = GPIOx->MODER;
 8003002:	6804      	ldr	r4, [r0, #0]
      temp &= ~(GPIO_MODER_MODER0 << (position * 2u));
 8003004:	9d02      	ldr	r5, [sp, #8]
      temp |= ((GPIO_Init->Mode & GPIO_MODE) << (position * 2u));
 8003006:	40b2      	lsls	r2, r6
      temp &= ~(GPIO_MODER_MODER0 << (position * 2u));
 8003008:	4025      	ands	r5, r4
 800300a:	002c      	movs	r4, r5
      temp |= ((GPIO_Init->Mode & GPIO_MODE) << (position * 2u));
 800300c:	4314      	orrs	r4, r2
      GPIOx->MODER = temp;
 800300e:	6004      	str	r4, [r0, #0]
      if((GPIO_Init->Mode & EXTI_MODE) != 0x00u)
 8003010:	24c0      	movs	r4, #192	; 0xc0
 8003012:	4662      	mov	r2, ip
 8003014:	02a4      	lsls	r4, r4, #10
 8003016:	4222      	tst	r2, r4
 8003018:	d04b      	beq.n	80030b2 <HAL_GPIO_Init+0x146>
        __HAL_RCC_SYSCFG_CLK_ENABLE();
 800301a:	2501      	movs	r5, #1
 800301c:	4a26      	ldr	r2, [pc, #152]	; (80030b8 <HAL_GPIO_Init+0x14c>)
        temp |= (GPIO_GET_INDEX(GPIOx) << (4u * (position & 0x03u)));
 800301e:	2790      	movs	r7, #144	; 0x90
        __HAL_RCC_SYSCFG_CLK_ENABLE();
 8003020:	6994      	ldr	r4, [r2, #24]
        temp |= (GPIO_GET_INDEX(GPIOx) << (4u * (position & 0x03u)));
 8003022:	05ff      	lsls	r7, r7, #23
        __HAL_RCC_SYSCFG_CLK_ENABLE();
 8003024:	432c      	orrs	r4, r5
 8003026:	6194      	str	r4, [r2, #24]
 8003028:	6992      	ldr	r2, [r2, #24]
        temp = SYSCFG->EXTICR[position >> 2u];
 800302a:	089c      	lsrs	r4, r3, #2
        __HAL_RCC_SYSCFG_CLK_ENABLE();
 800302c:	402a      	ands	r2, r5
 800302e:	9205      	str	r2, [sp, #20]
 8003030:	9a05      	ldr	r2, [sp, #20]
        temp = SYSCFG->EXTICR[position >> 2u];
 8003032:	4a22      	ldr	r2, [pc, #136]	; (80030bc <HAL_GPIO_Init+0x150>)
 8003034:	00a4      	lsls	r4, r4, #2
 8003036:	18a4      	adds	r4, r4, r2
        temp &= ~(0x0FuL << (4u * (position & 0x03u)));
 8003038:	220f      	movs	r2, #15
 800303a:	3502      	adds	r5, #2
 800303c:	401d      	ands	r5, r3
 800303e:	00ad      	lsls	r5, r5, #2
 8003040:	40aa      	lsls	r2, r5
        temp = SYSCFG->EXTICR[position >> 2u];
 8003042:	68a6      	ldr	r6, [r4, #8]
        temp &= ~(0x0FuL << (4u * (position & 0x03u)));
 8003044:	4396      	bics	r6, r2
        temp |= (GPIO_GET_INDEX(GPIOx) << (4u * (position & 0x03u)));
 8003046:	2200      	movs	r2, #0
 8003048:	42b8      	cmp	r0, r7
 800304a:	d008      	beq.n	800305e <HAL_GPIO_Init+0xf2>
 800304c:	4f1c      	ldr	r7, [pc, #112]	; (80030c0 <HAL_GPIO_Init+0x154>)
 800304e:	3201      	adds	r2, #1
 8003050:	42b8      	cmp	r0, r7
 8003052:	d004      	beq.n	800305e <HAL_GPIO_Init+0xf2>
 8003054:	4f1b      	ldr	r7, [pc, #108]	; (80030c4 <HAL_GPIO_Init+0x158>)
 8003056:	3201      	adds	r2, #1
 8003058:	42b8      	cmp	r0, r7
 800305a:	d000      	beq.n	800305e <HAL_GPIO_Init+0xf2>
 800305c:	3203      	adds	r2, #3
 800305e:	40aa      	lsls	r2, r5
        if((GPIO_Init->Mode & EXTI_IT) != 0x00u)
 8003060:	4667      	mov	r7, ip
        temp |= (GPIO_GET_INDEX(GPIOx) << (4u * (position & 0x03u)));
 8003062:	4332      	orrs	r2, r6
        SYSCFG->EXTICR[position >> 2u] = temp;
 8003064:	60a2      	str	r2, [r4, #8]
        temp = EXTI->IMR;
 8003066:	4a18      	ldr	r2, [pc, #96]	; (80030c8 <HAL_GPIO_Init+0x15c>)
        temp &= ~(iocurrent);
 8003068:	9c01      	ldr	r4, [sp, #4]
        temp = EXTI->IMR;
 800306a:	6816      	ldr	r6, [r2, #0]
          temp |= iocurrent;
 800306c:	9d01      	ldr	r5, [sp, #4]
        temp &= ~(iocurrent);
 800306e:	43e4      	mvns	r4, r4
          temp |= iocurrent;
 8003070:	4335      	orrs	r5, r6
        if((GPIO_Init->Mode & EXTI_IT) != 0x00u)
 8003072:	03ff      	lsls	r7, r7, #15
 8003074:	d401      	bmi.n	800307a <HAL_GPIO_Init+0x10e>
        temp &= ~(iocurrent);
 8003076:	0035      	movs	r5, r6
 8003078:	4025      	ands	r5, r4
        if((GPIO_Init->Mode & EXTI_EVT) != 0x00u)
 800307a:	4667      	mov	r7, ip
        EXTI->IMR = temp;
 800307c:	6015      	str	r5, [r2, #0]
        temp = EXTI->EMR;
 800307e:	6856      	ldr	r6, [r2, #4]
          temp |= iocurrent;
 8003080:	9d01      	ldr	r5, [sp, #4]
 8003082:	4335      	orrs	r5, r6
        if((GPIO_Init->Mode & EXTI_EVT) != 0x00u)
 8003084:	03bf      	lsls	r7, r7, #14
 8003086:	d401      	bmi.n	800308c <HAL_GPIO_Init+0x120>
        temp &= ~(iocurrent);
 8003088:	0035      	movs	r5, r6
 800308a:	4025      	ands	r5, r4
        if((GPIO_Init->Mode & TRIGGER_RISING) != 0x00u)
 800308c:	4667      	mov	r7, ip
        EXTI->EMR = temp;
 800308e:	6055      	str	r5, [r2, #4]
        temp = EXTI->RTSR;
 8003090:	6896      	ldr	r6, [r2, #8]
          temp |= iocurrent;
 8003092:	9d01      	ldr	r5, [sp, #4]
 8003094:	4335      	orrs	r5, r6
        if((GPIO_Init->Mode & TRIGGER_RISING) != 0x00u)
 8003096:	02ff      	lsls	r7, r7, #11
 8003098:	d401      	bmi.n	800309e <HAL_GPIO_Init+0x132>
        temp &= ~(iocurrent);
 800309a:	0035      	movs	r5, r6
 800309c:	4025      	ands	r5, r4
        if((GPIO_Init->Mode & TRIGGER_FALLING) != 0x00u)
 800309e:	4667      	mov	r7, ip
        EXTI->RTSR = temp;
 80030a0:	6095      	str	r5, [r2, #8]
        temp = EXTI->FTSR;
 80030a2:	68d5      	ldr	r5, [r2, #12]
          temp |= iocurrent;
 80030a4:	9e01      	ldr	r6, [sp, #4]
 80030a6:	432e      	orrs	r6, r5
        if((GPIO_Init->Mode & TRIGGER_FALLING) != 0x00u)
 80030a8:	02bf      	lsls	r7, r7, #10
 80030aa:	d401      	bmi.n	80030b0 <HAL_GPIO_Init+0x144>
        temp &= ~(iocurrent);
 80030ac:	4025      	ands	r5, r4
 80030ae:	002e      	movs	r6, r5
        EXTI->FTSR = temp;
 80030b0:	60d6      	str	r6, [r2, #12]
    position++;
 80030b2:	3301      	adds	r3, #1
 80030b4:	e75d      	b.n	8002f72 <HAL_GPIO_Init+0x6>
 80030b6:	46c0      	nop			; (mov r8, r8)
 80030b8:	40021000 	.word	0x40021000
 80030bc:	40010000 	.word	0x40010000
 80030c0:	48000400 	.word	0x48000400
 80030c4:	48000800 	.word	0x48000800
 80030c8:	40010400 	.word	0x40010400

080030cc <HAL_GPIO_WritePin>:
{
  /* Check the parameters */
  assert_param(IS_GPIO_PIN(GPIO_Pin));
  assert_param(IS_GPIO_PIN_ACTION(PinState));

  if (PinState != GPIO_PIN_RESET)
 80030cc:	2a00      	cmp	r2, #0
 80030ce:	d001      	beq.n	80030d4 <HAL_GPIO_WritePin+0x8>
  {
    GPIOx->BSRR = (uint32_t)GPIO_Pin;
 80030d0:	6181      	str	r1, [r0, #24]
  }
  else
  {
    GPIOx->BRR = (uint32_t)GPIO_Pin;
  }
}
 80030d2:	4770      	bx	lr
    GPIOx->BRR = (uint32_t)GPIO_Pin;
 80030d4:	6281      	str	r1, [r0, #40]	; 0x28
}
 80030d6:	e7fc      	b.n	80030d2 <HAL_GPIO_WritePin+0x6>

080030d8 <HAL_RCC_OscConfig>:
  *         supported by this macro. User should request a transition to HSE Off
  *         first and then HSE On or HSE Bypass.
  * @retval HAL status
  */
HAL_StatusTypeDef HAL_RCC_OscConfig(RCC_OscInitTypeDef  *RCC_OscInitStruct)
{
 80030d8:	b5f0      	push	{r4, r5, r6, r7, lr}
 80030da:	0004      	movs	r4, r0
 80030dc:	b085      	sub	sp, #20
  uint32_t tickstart;
  uint32_t pll_config;
  uint32_t pll_config2;

  /* Check Null pointer */
  if(RCC_OscInitStruct == NULL)
 80030de:	2800      	cmp	r0, #0
 80030e0:	d045      	beq.n	800316e <HAL_RCC_OscConfig+0x96>

  /* Check the parameters */
  assert_param(IS_RCC_OSCILLATORTYPE(RCC_OscInitStruct->OscillatorType));

  /*------------------------------- HSE Configuration ------------------------*/ 
  if(((RCC_OscInitStruct->OscillatorType) & RCC_OSCILLATORTYPE_HSE) == RCC_OSCILLATORTYPE_HSE)
 80030e2:	6803      	ldr	r3, [r0, #0]
 80030e4:	07db      	lsls	r3, r3, #31
 80030e6:	d42f      	bmi.n	8003148 <HAL_RCC_OscConfig+0x70>
        }
      }
    }
  }
  /*----------------------------- HSI Configuration --------------------------*/ 
  if(((RCC_OscInitStruct->OscillatorType) & RCC_OSCILLATORTYPE_HSI) == RCC_OSCILLATORTYPE_HSI)
 80030e8:	6823      	ldr	r3, [r4, #0]
 80030ea:	079b      	lsls	r3, r3, #30
 80030ec:	d500      	bpl.n	80030f0 <HAL_RCC_OscConfig+0x18>
 80030ee:	e081      	b.n	80031f4 <HAL_RCC_OscConfig+0x11c>
        }
      }
    }
  }
  /*------------------------------ LSI Configuration -------------------------*/ 
  if(((RCC_OscInitStruct->OscillatorType) & RCC_OSCILLATORTYPE_LSI) == RCC_OSCILLATORTYPE_LSI)
 80030f0:	6823      	ldr	r3, [r4, #0]
 80030f2:	071b      	lsls	r3, r3, #28
 80030f4:	d500      	bpl.n	80030f8 <HAL_RCC_OscConfig+0x20>
 80030f6:	e0bc      	b.n	8003272 <HAL_RCC_OscConfig+0x19a>
        }
      }
    }
  }
  /*------------------------------ LSE Configuration -------------------------*/ 
  if(((RCC_OscInitStruct->OscillatorType) & RCC_OSCILLATORTYPE_LSE) == RCC_OSCILLATORTYPE_LSE)
 80030f8:	6823      	ldr	r3, [r4, #0]
 80030fa:	075b      	lsls	r3, r3, #29
 80030fc:	d500      	bpl.n	8003100 <HAL_RCC_OscConfig+0x28>
 80030fe:	e0df      	b.n	80032c0 <HAL_RCC_OscConfig+0x1e8>
      __HAL_RCC_PWR_CLK_DISABLE();
    }
  }

  /*----------------------------- HSI14 Configuration --------------------------*/
  if(((RCC_OscInitStruct->OscillatorType) & RCC_OSCILLATORTYPE_HSI14) == RCC_OSCILLATORTYPE_HSI14)
 8003100:	6823      	ldr	r3, [r4, #0]
 8003102:	06db      	lsls	r3, r3, #27
 8003104:	d51a      	bpl.n	800313c <HAL_RCC_OscConfig+0x64>
    /* Check the parameters */
    assert_param(IS_RCC_HSI14(RCC_OscInitStruct->HSI14State));
    assert_param(IS_RCC_CALIBRATION_VALUE(RCC_OscInitStruct->HSI14CalibrationValue));

    /* Check the HSI14 State */
    if(RCC_OscInitStruct->HSI14State == RCC_HSI14_ON)
 8003106:	6962      	ldr	r2, [r4, #20]
 8003108:	2304      	movs	r3, #4
 800310a:	4db5      	ldr	r5, [pc, #724]	; (80033e0 <HAL_RCC_OscConfig+0x308>)
 800310c:	2a01      	cmp	r2, #1
 800310e:	d000      	beq.n	8003112 <HAL_RCC_OscConfig+0x3a>
 8003110:	e14a      	b.n	80033a8 <HAL_RCC_OscConfig+0x2d0>
    {
      /* Disable ADC control of the Internal High Speed oscillator HSI14 */
      __HAL_RCC_HSI14ADC_DISABLE();
 8003112:	6b69      	ldr	r1, [r5, #52]	; 0x34

      /* Get Start Tick */
      tickstart = HAL_GetTick();
      
      /* Wait till HSI is ready */  
      while(__HAL_RCC_GET_FLAG(RCC_FLAG_HSI14RDY) == RESET)
 8003114:	2702      	movs	r7, #2
      __HAL_RCC_HSI14ADC_DISABLE();
 8003116:	430b      	orrs	r3, r1
 8003118:	636b      	str	r3, [r5, #52]	; 0x34
      __HAL_RCC_HSI14_ENABLE();
 800311a:	6b6b      	ldr	r3, [r5, #52]	; 0x34
 800311c:	431a      	orrs	r2, r3
 800311e:	636a      	str	r2, [r5, #52]	; 0x34
      tickstart = HAL_GetTick();
 8003120:	f7ff fd56 	bl	8002bd0 <HAL_GetTick>
 8003124:	0006      	movs	r6, r0
      while(__HAL_RCC_GET_FLAG(RCC_FLAG_HSI14RDY) == RESET)
 8003126:	6b6b      	ldr	r3, [r5, #52]	; 0x34
 8003128:	423b      	tst	r3, r7
 800312a:	d100      	bne.n	800312e <HAL_RCC_OscConfig+0x56>
 800312c:	e135      	b.n	800339a <HAL_RCC_OscConfig+0x2c2>
    {
      /* Enable ADC control of the Internal High Speed oscillator HSI14 */
      __HAL_RCC_HSI14ADC_ENABLE();

      /* Adjusts the Internal High Speed oscillator 14Mhz (HSI14) calibration value. */
      __HAL_RCC_HSI14_CALIBRATIONVALUE_ADJUST(RCC_OscInitStruct->HSI14CalibrationValue);
 800312e:	21f8      	movs	r1, #248	; 0xf8
 8003130:	6b6a      	ldr	r2, [r5, #52]	; 0x34
 8003132:	69a3      	ldr	r3, [r4, #24]
 8003134:	438a      	bics	r2, r1
 8003136:	00db      	lsls	r3, r3, #3
 8003138:	4313      	orrs	r3, r2
 800313a:	636b      	str	r3, [r5, #52]	; 0x34
#endif /* RCC_HSI48_SUPPORT */
       
  /*-------------------------------- PLL Configuration -----------------------*/
  /* Check the parameters */
  assert_param(IS_RCC_PLL(RCC_OscInitStruct->PLL.PLLState));
  if ((RCC_OscInitStruct->PLL.PLLState) != RCC_PLL_NONE)
 800313c:	6a23      	ldr	r3, [r4, #32]
 800313e:	2b00      	cmp	r3, #0
 8003140:	d000      	beq.n	8003144 <HAL_RCC_OscConfig+0x6c>
 8003142:	e159      	b.n	80033f8 <HAL_RCC_OscConfig+0x320>
        }
      }
    }
  }

  return HAL_OK;
 8003144:	2000      	movs	r0, #0
 8003146:	e02a      	b.n	800319e <HAL_RCC_OscConfig+0xc6>
    if((__HAL_RCC_GET_SYSCLK_SOURCE() == RCC_SYSCLKSOURCE_STATUS_HSE) 
 8003148:	210c      	movs	r1, #12
 800314a:	4da5      	ldr	r5, [pc, #660]	; (80033e0 <HAL_RCC_OscConfig+0x308>)
 800314c:	686a      	ldr	r2, [r5, #4]
 800314e:	400a      	ands	r2, r1
 8003150:	2a04      	cmp	r2, #4
 8003152:	d006      	beq.n	8003162 <HAL_RCC_OscConfig+0x8a>
       || ((__HAL_RCC_GET_SYSCLK_SOURCE() == RCC_SYSCLKSOURCE_STATUS_PLLCLK) && (__HAL_RCC_GET_PLL_OSCSOURCE() == RCC_PLLSOURCE_HSE)))
 8003154:	686b      	ldr	r3, [r5, #4]
 8003156:	400b      	ands	r3, r1
 8003158:	2b08      	cmp	r3, #8
 800315a:	d10a      	bne.n	8003172 <HAL_RCC_OscConfig+0x9a>
 800315c:	686b      	ldr	r3, [r5, #4]
 800315e:	03db      	lsls	r3, r3, #15
 8003160:	d507      	bpl.n	8003172 <HAL_RCC_OscConfig+0x9a>
      if((__HAL_RCC_GET_FLAG(RCC_FLAG_HSERDY) != RESET) && (RCC_OscInitStruct->HSEState == RCC_HSE_OFF))
 8003162:	682b      	ldr	r3, [r5, #0]
 8003164:	039b      	lsls	r3, r3, #14
 8003166:	d5bf      	bpl.n	80030e8 <HAL_RCC_OscConfig+0x10>
 8003168:	6863      	ldr	r3, [r4, #4]
 800316a:	2b00      	cmp	r3, #0
 800316c:	d1bc      	bne.n	80030e8 <HAL_RCC_OscConfig+0x10>
          return HAL_ERROR;
 800316e:	2001      	movs	r0, #1
 8003170:	e015      	b.n	800319e <HAL_RCC_OscConfig+0xc6>
      __HAL_RCC_HSE_CONFIG(RCC_OscInitStruct->HSEState);
 8003172:	6863      	ldr	r3, [r4, #4]
 8003174:	2b01      	cmp	r3, #1
 8003176:	d114      	bne.n	80031a2 <HAL_RCC_OscConfig+0xca>
 8003178:	2380      	movs	r3, #128	; 0x80
 800317a:	682a      	ldr	r2, [r5, #0]
 800317c:	025b      	lsls	r3, r3, #9
 800317e:	4313      	orrs	r3, r2
 8003180:	602b      	str	r3, [r5, #0]
        tickstart = HAL_GetTick();
 8003182:	f7ff fd25 	bl	8002bd0 <HAL_GetTick>
        while(__HAL_RCC_GET_FLAG(RCC_FLAG_HSERDY) == RESET)
 8003186:	2780      	movs	r7, #128	; 0x80
        tickstart = HAL_GetTick();
 8003188:	0006      	movs	r6, r0
        while(__HAL_RCC_GET_FLAG(RCC_FLAG_HSERDY) == RESET)
 800318a:	02bf      	lsls	r7, r7, #10
 800318c:	682b      	ldr	r3, [r5, #0]
 800318e:	423b      	tst	r3, r7
 8003190:	d1aa      	bne.n	80030e8 <HAL_RCC_OscConfig+0x10>
          if((HAL_GetTick() - tickstart ) > HSE_TIMEOUT_VALUE)
 8003192:	f7ff fd1d 	bl	8002bd0 <HAL_GetTick>
 8003196:	1b80      	subs	r0, r0, r6
 8003198:	2864      	cmp	r0, #100	; 0x64
 800319a:	d9f7      	bls.n	800318c <HAL_RCC_OscConfig+0xb4>
            return HAL_TIMEOUT;
 800319c:	2003      	movs	r0, #3
}
 800319e:	b005      	add	sp, #20
 80031a0:	bdf0      	pop	{r4, r5, r6, r7, pc}
      __HAL_RCC_HSE_CONFIG(RCC_OscInitStruct->HSEState);
 80031a2:	2b00      	cmp	r3, #0
 80031a4:	d116      	bne.n	80031d4 <HAL_RCC_OscConfig+0xfc>
 80031a6:	682b      	ldr	r3, [r5, #0]
 80031a8:	4a8e      	ldr	r2, [pc, #568]	; (80033e4 <HAL_RCC_OscConfig+0x30c>)
        while(__HAL_RCC_GET_FLAG(RCC_FLAG_HSERDY) != RESET)
 80031aa:	2780      	movs	r7, #128	; 0x80
      __HAL_RCC_HSE_CONFIG(RCC_OscInitStruct->HSEState);
 80031ac:	4013      	ands	r3, r2
 80031ae:	602b      	str	r3, [r5, #0]
 80031b0:	682b      	ldr	r3, [r5, #0]
 80031b2:	4a8d      	ldr	r2, [pc, #564]	; (80033e8 <HAL_RCC_OscConfig+0x310>)
        while(__HAL_RCC_GET_FLAG(RCC_FLAG_HSERDY) != RESET)
 80031b4:	02bf      	lsls	r7, r7, #10
      __HAL_RCC_HSE_CONFIG(RCC_OscInitStruct->HSEState);
 80031b6:	4013      	ands	r3, r2
 80031b8:	602b      	str	r3, [r5, #0]
        tickstart = HAL_GetTick();
 80031ba:	f7ff fd09 	bl	8002bd0 <HAL_GetTick>
 80031be:	0006      	movs	r6, r0
        while(__HAL_RCC_GET_FLAG(RCC_FLAG_HSERDY) != RESET)
 80031c0:	682b      	ldr	r3, [r5, #0]
 80031c2:	423b      	tst	r3, r7
 80031c4:	d100      	bne.n	80031c8 <HAL_RCC_OscConfig+0xf0>
 80031c6:	e78f      	b.n	80030e8 <HAL_RCC_OscConfig+0x10>
           if((HAL_GetTick() - tickstart ) > HSE_TIMEOUT_VALUE)
 80031c8:	f7ff fd02 	bl	8002bd0 <HAL_GetTick>
 80031cc:	1b80      	subs	r0, r0, r6
 80031ce:	2864      	cmp	r0, #100	; 0x64
 80031d0:	d9f6      	bls.n	80031c0 <HAL_RCC_OscConfig+0xe8>
 80031d2:	e7e3      	b.n	800319c <HAL_RCC_OscConfig+0xc4>
      __HAL_RCC_HSE_CONFIG(RCC_OscInitStruct->HSEState);
 80031d4:	2b05      	cmp	r3, #5
 80031d6:	d105      	bne.n	80031e4 <HAL_RCC_OscConfig+0x10c>
 80031d8:	2380      	movs	r3, #128	; 0x80
 80031da:	682a      	ldr	r2, [r5, #0]
 80031dc:	02db      	lsls	r3, r3, #11
 80031de:	4313      	orrs	r3, r2
 80031e0:	602b      	str	r3, [r5, #0]
 80031e2:	e7c9      	b.n	8003178 <HAL_RCC_OscConfig+0xa0>
 80031e4:	682b      	ldr	r3, [r5, #0]
 80031e6:	4a7f      	ldr	r2, [pc, #508]	; (80033e4 <HAL_RCC_OscConfig+0x30c>)
 80031e8:	4013      	ands	r3, r2
 80031ea:	602b      	str	r3, [r5, #0]
 80031ec:	682b      	ldr	r3, [r5, #0]
 80031ee:	4a7e      	ldr	r2, [pc, #504]	; (80033e8 <HAL_RCC_OscConfig+0x310>)
 80031f0:	4013      	ands	r3, r2
 80031f2:	e7c5      	b.n	8003180 <HAL_RCC_OscConfig+0xa8>
    if((__HAL_RCC_GET_SYSCLK_SOURCE() == RCC_SYSCLKSOURCE_STATUS_HSI) 
 80031f4:	220c      	movs	r2, #12
 80031f6:	4d7a      	ldr	r5, [pc, #488]	; (80033e0 <HAL_RCC_OscConfig+0x308>)
 80031f8:	686b      	ldr	r3, [r5, #4]
 80031fa:	4213      	tst	r3, r2
 80031fc:	d006      	beq.n	800320c <HAL_RCC_OscConfig+0x134>
       || ((__HAL_RCC_GET_SYSCLK_SOURCE() == RCC_SYSCLKSOURCE_STATUS_PLLCLK) && (__HAL_RCC_GET_PLL_OSCSOURCE() == RCC_PLLSOURCE_HSI)))
 80031fe:	686b      	ldr	r3, [r5, #4]
 8003200:	4013      	ands	r3, r2
 8003202:	2b08      	cmp	r3, #8
 8003204:	d110      	bne.n	8003228 <HAL_RCC_OscConfig+0x150>
 8003206:	686b      	ldr	r3, [r5, #4]
 8003208:	03db      	lsls	r3, r3, #15
 800320a:	d40d      	bmi.n	8003228 <HAL_RCC_OscConfig+0x150>
      if((__HAL_RCC_GET_FLAG(RCC_FLAG_HSIRDY) != RESET) && (RCC_OscInitStruct->HSIState != RCC_HSI_ON))
 800320c:	682b      	ldr	r3, [r5, #0]
 800320e:	079b      	lsls	r3, r3, #30
 8003210:	d502      	bpl.n	8003218 <HAL_RCC_OscConfig+0x140>
 8003212:	68e3      	ldr	r3, [r4, #12]
 8003214:	2b01      	cmp	r3, #1
 8003216:	d1aa      	bne.n	800316e <HAL_RCC_OscConfig+0x96>
        __HAL_RCC_HSI_CALIBRATIONVALUE_ADJUST(RCC_OscInitStruct->HSICalibrationValue);
 8003218:	21f8      	movs	r1, #248	; 0xf8
 800321a:	682a      	ldr	r2, [r5, #0]
 800321c:	6923      	ldr	r3, [r4, #16]
 800321e:	438a      	bics	r2, r1
 8003220:	00db      	lsls	r3, r3, #3
 8003222:	4313      	orrs	r3, r2
 8003224:	602b      	str	r3, [r5, #0]
 8003226:	e763      	b.n	80030f0 <HAL_RCC_OscConfig+0x18>
      if(RCC_OscInitStruct->HSIState != RCC_HSI_OFF)
 8003228:	68e2      	ldr	r2, [r4, #12]
 800322a:	2301      	movs	r3, #1
 800322c:	2a00      	cmp	r2, #0
 800322e:	d00f      	beq.n	8003250 <HAL_RCC_OscConfig+0x178>
        __HAL_RCC_HSI_ENABLE();
 8003230:	682a      	ldr	r2, [r5, #0]
        while(__HAL_RCC_GET_FLAG(RCC_FLAG_HSIRDY) == RESET)
 8003232:	2702      	movs	r7, #2
        __HAL_RCC_HSI_ENABLE();
 8003234:	4313      	orrs	r3, r2
 8003236:	602b      	str	r3, [r5, #0]
        tickstart = HAL_GetTick();
 8003238:	f7ff fcca 	bl	8002bd0 <HAL_GetTick>
 800323c:	0006      	movs	r6, r0
        while(__HAL_RCC_GET_FLAG(RCC_FLAG_HSIRDY) == RESET)
 800323e:	682b      	ldr	r3, [r5, #0]
 8003240:	423b      	tst	r3, r7
 8003242:	d1e9      	bne.n	8003218 <HAL_RCC_OscConfig+0x140>
          if((HAL_GetTick() - tickstart ) > HSI_TIMEOUT_VALUE)
 8003244:	f7ff fcc4 	bl	8002bd0 <HAL_GetTick>
 8003248:	1b80      	subs	r0, r0, r6
 800324a:	2802      	cmp	r0, #2
 800324c:	d9f7      	bls.n	800323e <HAL_RCC_OscConfig+0x166>
 800324e:	e7a5      	b.n	800319c <HAL_RCC_OscConfig+0xc4>
        __HAL_RCC_HSI_DISABLE();
 8003250:	682a      	ldr	r2, [r5, #0]
        while(__HAL_RCC_GET_FLAG(RCC_FLAG_HSIRDY) != RESET)
 8003252:	2702      	movs	r7, #2
        __HAL_RCC_HSI_DISABLE();
 8003254:	439a      	bics	r2, r3
 8003256:	602a      	str	r2, [r5, #0]
        tickstart = HAL_GetTick();
 8003258:	f7ff fcba 	bl	8002bd0 <HAL_GetTick>
 800325c:	0006      	movs	r6, r0
        while(__HAL_RCC_GET_FLAG(RCC_FLAG_HSIRDY) != RESET)
 800325e:	682b      	ldr	r3, [r5, #0]
 8003260:	423b      	tst	r3, r7
 8003262:	d100      	bne.n	8003266 <HAL_RCC_OscConfig+0x18e>
 8003264:	e744      	b.n	80030f0 <HAL_RCC_OscConfig+0x18>
          if((HAL_GetTick() - tickstart ) > HSI_TIMEOUT_VALUE)
 8003266:	f7ff fcb3 	bl	8002bd0 <HAL_GetTick>
 800326a:	1b80      	subs	r0, r0, r6
 800326c:	2802      	cmp	r0, #2
 800326e:	d9f6      	bls.n	800325e <HAL_RCC_OscConfig+0x186>
 8003270:	e794      	b.n	800319c <HAL_RCC_OscConfig+0xc4>
    if(RCC_OscInitStruct->LSIState != RCC_LSI_OFF)
 8003272:	69e2      	ldr	r2, [r4, #28]
 8003274:	2301      	movs	r3, #1
 8003276:	4d5a      	ldr	r5, [pc, #360]	; (80033e0 <HAL_RCC_OscConfig+0x308>)
 8003278:	2a00      	cmp	r2, #0
 800327a:	d010      	beq.n	800329e <HAL_RCC_OscConfig+0x1c6>
      __HAL_RCC_LSI_ENABLE();
 800327c:	6a6a      	ldr	r2, [r5, #36]	; 0x24
      while(__HAL_RCC_GET_FLAG(RCC_FLAG_LSIRDY) == RESET)
 800327e:	2702      	movs	r7, #2
      __HAL_RCC_LSI_ENABLE();
 8003280:	4313      	orrs	r3, r2
 8003282:	626b      	str	r3, [r5, #36]	; 0x24
      tickstart = HAL_GetTick();
 8003284:	f7ff fca4 	bl	8002bd0 <HAL_GetTick>
 8003288:	0006      	movs	r6, r0
      while(__HAL_RCC_GET_FLAG(RCC_FLAG_LSIRDY) == RESET)
 800328a:	6a6b      	ldr	r3, [r5, #36]	; 0x24
 800328c:	423b      	tst	r3, r7
 800328e:	d000      	beq.n	8003292 <HAL_RCC_OscConfig+0x1ba>
 8003290:	e732      	b.n	80030f8 <HAL_RCC_OscConfig+0x20>
        if((HAL_GetTick() - tickstart ) > LSI_TIMEOUT_VALUE)
 8003292:	f7ff fc9d 	bl	8002bd0 <HAL_GetTick>
 8003296:	1b80      	subs	r0, r0, r6
 8003298:	2802      	cmp	r0, #2
 800329a:	d9f6      	bls.n	800328a <HAL_RCC_OscConfig+0x1b2>
 800329c:	e77e      	b.n	800319c <HAL_RCC_OscConfig+0xc4>
      __HAL_RCC_LSI_DISABLE();
 800329e:	6a6a      	ldr	r2, [r5, #36]	; 0x24
      while(__HAL_RCC_GET_FLAG(RCC_FLAG_LSIRDY) != RESET)
 80032a0:	2702      	movs	r7, #2
      __HAL_RCC_LSI_DISABLE();
 80032a2:	439a      	bics	r2, r3
 80032a4:	626a      	str	r2, [r5, #36]	; 0x24
      tickstart = HAL_GetTick();
 80032a6:	f7ff fc93 	bl	8002bd0 <HAL_GetTick>
 80032aa:	0006      	movs	r6, r0
      while(__HAL_RCC_GET_FLAG(RCC_FLAG_LSIRDY) != RESET)
 80032ac:	6a6b      	ldr	r3, [r5, #36]	; 0x24
 80032ae:	423b      	tst	r3, r7
 80032b0:	d100      	bne.n	80032b4 <HAL_RCC_OscConfig+0x1dc>
 80032b2:	e721      	b.n	80030f8 <HAL_RCC_OscConfig+0x20>
        if((HAL_GetTick() - tickstart ) > LSI_TIMEOUT_VALUE)
 80032b4:	f7ff fc8c 	bl	8002bd0 <HAL_GetTick>
 80032b8:	1b80      	subs	r0, r0, r6
 80032ba:	2802      	cmp	r0, #2
 80032bc:	d9f6      	bls.n	80032ac <HAL_RCC_OscConfig+0x1d4>
 80032be:	e76d      	b.n	800319c <HAL_RCC_OscConfig+0xc4>
    if(__HAL_RCC_PWR_IS_CLK_DISABLED())
 80032c0:	2280      	movs	r2, #128	; 0x80
    FlagStatus       pwrclkchanged = RESET;
 80032c2:	2100      	movs	r1, #0
    if(__HAL_RCC_PWR_IS_CLK_DISABLED())
 80032c4:	4d46      	ldr	r5, [pc, #280]	; (80033e0 <HAL_RCC_OscConfig+0x308>)
 80032c6:	0552      	lsls	r2, r2, #21
 80032c8:	69eb      	ldr	r3, [r5, #28]
    FlagStatus       pwrclkchanged = RESET;
 80032ca:	9100      	str	r1, [sp, #0]
    if(__HAL_RCC_PWR_IS_CLK_DISABLED())
 80032cc:	4213      	tst	r3, r2
 80032ce:	d108      	bne.n	80032e2 <HAL_RCC_OscConfig+0x20a>
      __HAL_RCC_PWR_CLK_ENABLE();
 80032d0:	69eb      	ldr	r3, [r5, #28]
 80032d2:	4313      	orrs	r3, r2
 80032d4:	61eb      	str	r3, [r5, #28]
 80032d6:	69eb      	ldr	r3, [r5, #28]
 80032d8:	4013      	ands	r3, r2
 80032da:	9303      	str	r3, [sp, #12]
 80032dc:	9b03      	ldr	r3, [sp, #12]
      pwrclkchanged = SET;
 80032de:	2301      	movs	r3, #1
 80032e0:	9300      	str	r3, [sp, #0]
    if(HAL_IS_BIT_CLR(PWR->CR, PWR_CR_DBP))
 80032e2:	2780      	movs	r7, #128	; 0x80
 80032e4:	4e41      	ldr	r6, [pc, #260]	; (80033ec <HAL_RCC_OscConfig+0x314>)
 80032e6:	007f      	lsls	r7, r7, #1
 80032e8:	6833      	ldr	r3, [r6, #0]
 80032ea:	423b      	tst	r3, r7
 80032ec:	d006      	beq.n	80032fc <HAL_RCC_OscConfig+0x224>
    __HAL_RCC_LSE_CONFIG(RCC_OscInitStruct->LSEState);
 80032ee:	68a3      	ldr	r3, [r4, #8]
 80032f0:	2b01      	cmp	r3, #1
 80032f2:	d113      	bne.n	800331c <HAL_RCC_OscConfig+0x244>
 80032f4:	6a2a      	ldr	r2, [r5, #32]
 80032f6:	4313      	orrs	r3, r2
 80032f8:	622b      	str	r3, [r5, #32]
 80032fa:	e030      	b.n	800335e <HAL_RCC_OscConfig+0x286>
      SET_BIT(PWR->CR, PWR_CR_DBP);
 80032fc:	6833      	ldr	r3, [r6, #0]
 80032fe:	433b      	orrs	r3, r7
 8003300:	6033      	str	r3, [r6, #0]
      tickstart = HAL_GetTick();
 8003302:	f7ff fc65 	bl	8002bd0 <HAL_GetTick>
 8003306:	9001      	str	r0, [sp, #4]
      while(HAL_IS_BIT_CLR(PWR->CR, PWR_CR_DBP))
 8003308:	6833      	ldr	r3, [r6, #0]
 800330a:	423b      	tst	r3, r7
 800330c:	d1ef      	bne.n	80032ee <HAL_RCC_OscConfig+0x216>
        if((HAL_GetTick() - tickstart) > RCC_DBP_TIMEOUT_VALUE)
 800330e:	f7ff fc5f 	bl	8002bd0 <HAL_GetTick>
 8003312:	9b01      	ldr	r3, [sp, #4]
 8003314:	1ac0      	subs	r0, r0, r3
 8003316:	2864      	cmp	r0, #100	; 0x64
 8003318:	d9f6      	bls.n	8003308 <HAL_RCC_OscConfig+0x230>
 800331a:	e73f      	b.n	800319c <HAL_RCC_OscConfig+0xc4>
    __HAL_RCC_LSE_CONFIG(RCC_OscInitStruct->LSEState);
 800331c:	2201      	movs	r2, #1
 800331e:	2b00      	cmp	r3, #0
 8003320:	d114      	bne.n	800334c <HAL_RCC_OscConfig+0x274>
 8003322:	6a2b      	ldr	r3, [r5, #32]
      while(__HAL_RCC_GET_FLAG(RCC_FLAG_LSERDY) != RESET)
 8003324:	2702      	movs	r7, #2
    __HAL_RCC_LSE_CONFIG(RCC_OscInitStruct->LSEState);
 8003326:	4393      	bics	r3, r2
 8003328:	622b      	str	r3, [r5, #32]
 800332a:	6a2b      	ldr	r3, [r5, #32]
 800332c:	3203      	adds	r2, #3
 800332e:	4393      	bics	r3, r2
 8003330:	622b      	str	r3, [r5, #32]
      tickstart = HAL_GetTick();
 8003332:	f7ff fc4d 	bl	8002bd0 <HAL_GetTick>
 8003336:	0006      	movs	r6, r0
      while(__HAL_RCC_GET_FLAG(RCC_FLAG_LSERDY) != RESET)
 8003338:	6a2b      	ldr	r3, [r5, #32]
 800333a:	423b      	tst	r3, r7
 800333c:	d016      	beq.n	800336c <HAL_RCC_OscConfig+0x294>
        if((HAL_GetTick() - tickstart ) > RCC_LSE_TIMEOUT_VALUE)
 800333e:	f7ff fc47 	bl	8002bd0 <HAL_GetTick>
 8003342:	4b2b      	ldr	r3, [pc, #172]	; (80033f0 <HAL_RCC_OscConfig+0x318>)
 8003344:	1b80      	subs	r0, r0, r6
 8003346:	4298      	cmp	r0, r3
 8003348:	d9f6      	bls.n	8003338 <HAL_RCC_OscConfig+0x260>
 800334a:	e727      	b.n	800319c <HAL_RCC_OscConfig+0xc4>
    __HAL_RCC_LSE_CONFIG(RCC_OscInitStruct->LSEState);
 800334c:	2b05      	cmp	r3, #5
 800334e:	d116      	bne.n	800337e <HAL_RCC_OscConfig+0x2a6>
 8003350:	6a29      	ldr	r1, [r5, #32]
 8003352:	3b01      	subs	r3, #1
 8003354:	430b      	orrs	r3, r1
 8003356:	622b      	str	r3, [r5, #32]
 8003358:	6a2b      	ldr	r3, [r5, #32]
 800335a:	431a      	orrs	r2, r3
 800335c:	622a      	str	r2, [r5, #32]
      tickstart = HAL_GetTick();
 800335e:	f7ff fc37 	bl	8002bd0 <HAL_GetTick>
      while(__HAL_RCC_GET_FLAG(RCC_FLAG_LSERDY) == RESET)
 8003362:	2702      	movs	r7, #2
      tickstart = HAL_GetTick();
 8003364:	0006      	movs	r6, r0
      while(__HAL_RCC_GET_FLAG(RCC_FLAG_LSERDY) == RESET)
 8003366:	6a2b      	ldr	r3, [r5, #32]
 8003368:	423b      	tst	r3, r7
 800336a:	d00f      	beq.n	800338c <HAL_RCC_OscConfig+0x2b4>
    if(pwrclkchanged == SET)
 800336c:	9b00      	ldr	r3, [sp, #0]
 800336e:	2b01      	cmp	r3, #1
 8003370:	d000      	beq.n	8003374 <HAL_RCC_OscConfig+0x29c>
 8003372:	e6c5      	b.n	8003100 <HAL_RCC_OscConfig+0x28>
      __HAL_RCC_PWR_CLK_DISABLE();
 8003374:	69eb      	ldr	r3, [r5, #28]
 8003376:	4a1f      	ldr	r2, [pc, #124]	; (80033f4 <HAL_RCC_OscConfig+0x31c>)
 8003378:	4013      	ands	r3, r2
 800337a:	61eb      	str	r3, [r5, #28]
 800337c:	e6c0      	b.n	8003100 <HAL_RCC_OscConfig+0x28>
    __HAL_RCC_LSE_CONFIG(RCC_OscInitStruct->LSEState);
 800337e:	6a2b      	ldr	r3, [r5, #32]
 8003380:	4393      	bics	r3, r2
 8003382:	2204      	movs	r2, #4
 8003384:	622b      	str	r3, [r5, #32]
 8003386:	6a2b      	ldr	r3, [r5, #32]
 8003388:	4393      	bics	r3, r2
 800338a:	e7b5      	b.n	80032f8 <HAL_RCC_OscConfig+0x220>
        if((HAL_GetTick() - tickstart ) > RCC_LSE_TIMEOUT_VALUE)
 800338c:	f7ff fc20 	bl	8002bd0 <HAL_GetTick>
 8003390:	4b17      	ldr	r3, [pc, #92]	; (80033f0 <HAL_RCC_OscConfig+0x318>)
 8003392:	1b80      	subs	r0, r0, r6
 8003394:	4298      	cmp	r0, r3
 8003396:	d9e6      	bls.n	8003366 <HAL_RCC_OscConfig+0x28e>
 8003398:	e700      	b.n	800319c <HAL_RCC_OscConfig+0xc4>
        if((HAL_GetTick() - tickstart) > HSI14_TIMEOUT_VALUE)
 800339a:	f7ff fc19 	bl	8002bd0 <HAL_GetTick>
 800339e:	1b80      	subs	r0, r0, r6
 80033a0:	2802      	cmp	r0, #2
 80033a2:	d800      	bhi.n	80033a6 <HAL_RCC_OscConfig+0x2ce>
 80033a4:	e6bf      	b.n	8003126 <HAL_RCC_OscConfig+0x4e>
 80033a6:	e6f9      	b.n	800319c <HAL_RCC_OscConfig+0xc4>
    else if(RCC_OscInitStruct->HSI14State == RCC_HSI14_ADC_CONTROL)
 80033a8:	3205      	adds	r2, #5
 80033aa:	d103      	bne.n	80033b4 <HAL_RCC_OscConfig+0x2dc>
      __HAL_RCC_HSI14ADC_ENABLE();
 80033ac:	6b6a      	ldr	r2, [r5, #52]	; 0x34
 80033ae:	439a      	bics	r2, r3
 80033b0:	636a      	str	r2, [r5, #52]	; 0x34
 80033b2:	e6bc      	b.n	800312e <HAL_RCC_OscConfig+0x56>
      __HAL_RCC_HSI14ADC_DISABLE();
 80033b4:	6b6a      	ldr	r2, [r5, #52]	; 0x34
      while(__HAL_RCC_GET_FLAG(RCC_FLAG_HSI14RDY) != RESET)
 80033b6:	2702      	movs	r7, #2
      __HAL_RCC_HSI14ADC_DISABLE();
 80033b8:	4313      	orrs	r3, r2
      __HAL_RCC_HSI14_DISABLE();
 80033ba:	2201      	movs	r2, #1
      __HAL_RCC_HSI14ADC_DISABLE();
 80033bc:	636b      	str	r3, [r5, #52]	; 0x34
      __HAL_RCC_HSI14_DISABLE();
 80033be:	6b6b      	ldr	r3, [r5, #52]	; 0x34
 80033c0:	4393      	bics	r3, r2
 80033c2:	636b      	str	r3, [r5, #52]	; 0x34
      tickstart = HAL_GetTick();
 80033c4:	f7ff fc04 	bl	8002bd0 <HAL_GetTick>
 80033c8:	0006      	movs	r6, r0
      while(__HAL_RCC_GET_FLAG(RCC_FLAG_HSI14RDY) != RESET)
 80033ca:	6b6b      	ldr	r3, [r5, #52]	; 0x34
 80033cc:	423b      	tst	r3, r7
 80033ce:	d100      	bne.n	80033d2 <HAL_RCC_OscConfig+0x2fa>
 80033d0:	e6b4      	b.n	800313c <HAL_RCC_OscConfig+0x64>
        if((HAL_GetTick() - tickstart) > HSI14_TIMEOUT_VALUE)
 80033d2:	f7ff fbfd 	bl	8002bd0 <HAL_GetTick>
 80033d6:	1b80      	subs	r0, r0, r6
 80033d8:	2802      	cmp	r0, #2
 80033da:	d9f6      	bls.n	80033ca <HAL_RCC_OscConfig+0x2f2>
 80033dc:	e6de      	b.n	800319c <HAL_RCC_OscConfig+0xc4>
 80033de:	46c0      	nop			; (mov r8, r8)
 80033e0:	40021000 	.word	0x40021000
 80033e4:	fffeffff 	.word	0xfffeffff
 80033e8:	fffbffff 	.word	0xfffbffff
 80033ec:	40007000 	.word	0x40007000
 80033f0:	00001388 	.word	0x00001388
 80033f4:	efffffff 	.word	0xefffffff
    if(__HAL_RCC_GET_SYSCLK_SOURCE() != RCC_SYSCLKSOURCE_STATUS_PLLCLK)
 80033f8:	210c      	movs	r1, #12
 80033fa:	4d34      	ldr	r5, [pc, #208]	; (80034cc <HAL_RCC_OscConfig+0x3f4>)
 80033fc:	686a      	ldr	r2, [r5, #4]
 80033fe:	400a      	ands	r2, r1
 8003400:	2a08      	cmp	r2, #8
 8003402:	d047      	beq.n	8003494 <HAL_RCC_OscConfig+0x3bc>
      if((RCC_OscInitStruct->PLL.PLLState) == RCC_PLL_ON)
 8003404:	4a32      	ldr	r2, [pc, #200]	; (80034d0 <HAL_RCC_OscConfig+0x3f8>)
 8003406:	2b02      	cmp	r3, #2
 8003408:	d132      	bne.n	8003470 <HAL_RCC_OscConfig+0x398>
        __HAL_RCC_PLL_DISABLE();
 800340a:	682b      	ldr	r3, [r5, #0]
        while(__HAL_RCC_GET_FLAG(RCC_FLAG_PLLRDY)  != RESET)
 800340c:	2780      	movs	r7, #128	; 0x80
        __HAL_RCC_PLL_DISABLE();
 800340e:	4013      	ands	r3, r2
 8003410:	602b      	str	r3, [r5, #0]
        tickstart = HAL_GetTick();
 8003412:	f7ff fbdd 	bl	8002bd0 <HAL_GetTick>
 8003416:	0006      	movs	r6, r0
        while(__HAL_RCC_GET_FLAG(RCC_FLAG_PLLRDY)  != RESET)
 8003418:	04bf      	lsls	r7, r7, #18
 800341a:	682b      	ldr	r3, [r5, #0]
 800341c:	423b      	tst	r3, r7
 800341e:	d121      	bne.n	8003464 <HAL_RCC_OscConfig+0x38c>
        __HAL_RCC_PLL_CONFIG(RCC_OscInitStruct->PLL.PLLSource,
 8003420:	220f      	movs	r2, #15
 8003422:	6aeb      	ldr	r3, [r5, #44]	; 0x2c
        while(__HAL_RCC_GET_FLAG(RCC_FLAG_PLLRDY)  == RESET)
 8003424:	2680      	movs	r6, #128	; 0x80
        __HAL_RCC_PLL_CONFIG(RCC_OscInitStruct->PLL.PLLSource,
 8003426:	4393      	bics	r3, r2
 8003428:	6ae2      	ldr	r2, [r4, #44]	; 0x2c
        while(__HAL_RCC_GET_FLAG(RCC_FLAG_PLLRDY)  == RESET)
 800342a:	04b6      	lsls	r6, r6, #18
        __HAL_RCC_PLL_CONFIG(RCC_OscInitStruct->PLL.PLLSource,
 800342c:	4313      	orrs	r3, r2
 800342e:	62eb      	str	r3, [r5, #44]	; 0x2c
 8003430:	6a61      	ldr	r1, [r4, #36]	; 0x24
 8003432:	6aa3      	ldr	r3, [r4, #40]	; 0x28
 8003434:	686a      	ldr	r2, [r5, #4]
 8003436:	430b      	orrs	r3, r1
 8003438:	4926      	ldr	r1, [pc, #152]	; (80034d4 <HAL_RCC_OscConfig+0x3fc>)
 800343a:	400a      	ands	r2, r1
 800343c:	4313      	orrs	r3, r2
 800343e:	606b      	str	r3, [r5, #4]
        __HAL_RCC_PLL_ENABLE();
 8003440:	2380      	movs	r3, #128	; 0x80
 8003442:	682a      	ldr	r2, [r5, #0]
 8003444:	045b      	lsls	r3, r3, #17
 8003446:	4313      	orrs	r3, r2
 8003448:	602b      	str	r3, [r5, #0]
        tickstart = HAL_GetTick();
 800344a:	f7ff fbc1 	bl	8002bd0 <HAL_GetTick>
 800344e:	0004      	movs	r4, r0
        while(__HAL_RCC_GET_FLAG(RCC_FLAG_PLLRDY)  == RESET)
 8003450:	682b      	ldr	r3, [r5, #0]
 8003452:	4233      	tst	r3, r6
 8003454:	d000      	beq.n	8003458 <HAL_RCC_OscConfig+0x380>
 8003456:	e675      	b.n	8003144 <HAL_RCC_OscConfig+0x6c>
          if((HAL_GetTick() - tickstart ) > PLL_TIMEOUT_VALUE)
 8003458:	f7ff fbba 	bl	8002bd0 <HAL_GetTick>
 800345c:	1b00      	subs	r0, r0, r4
 800345e:	2802      	cmp	r0, #2
 8003460:	d9f6      	bls.n	8003450 <HAL_RCC_OscConfig+0x378>
 8003462:	e69b      	b.n	800319c <HAL_RCC_OscConfig+0xc4>
          if((HAL_GetTick() - tickstart ) > PLL_TIMEOUT_VALUE)
 8003464:	f7ff fbb4 	bl	8002bd0 <HAL_GetTick>
 8003468:	1b80      	subs	r0, r0, r6
 800346a:	2802      	cmp	r0, #2
 800346c:	d9d5      	bls.n	800341a <HAL_RCC_OscConfig+0x342>
 800346e:	e695      	b.n	800319c <HAL_RCC_OscConfig+0xc4>
        __HAL_RCC_PLL_DISABLE();
 8003470:	682b      	ldr	r3, [r5, #0]
        while(__HAL_RCC_GET_FLAG(RCC_FLAG_PLLRDY)  != RESET)
 8003472:	2680      	movs	r6, #128	; 0x80
        __HAL_RCC_PLL_DISABLE();
 8003474:	4013      	ands	r3, r2
 8003476:	602b      	str	r3, [r5, #0]
        tickstart = HAL_GetTick();
 8003478:	f7ff fbaa 	bl	8002bd0 <HAL_GetTick>
 800347c:	0004      	movs	r4, r0
        while(__HAL_RCC_GET_FLAG(RCC_FLAG_PLLRDY)  != RESET)
 800347e:	04b6      	lsls	r6, r6, #18
 8003480:	682b      	ldr	r3, [r5, #0]
 8003482:	4233      	tst	r3, r6
 8003484:	d100      	bne.n	8003488 <HAL_RCC_OscConfig+0x3b0>
 8003486:	e65d      	b.n	8003144 <HAL_RCC_OscConfig+0x6c>
          if((HAL_GetTick() - tickstart ) > PLL_TIMEOUT_VALUE)
 8003488:	f7ff fba2 	bl	8002bd0 <HAL_GetTick>
 800348c:	1b00      	subs	r0, r0, r4
 800348e:	2802      	cmp	r0, #2
 8003490:	d9f6      	bls.n	8003480 <HAL_RCC_OscConfig+0x3a8>
 8003492:	e683      	b.n	800319c <HAL_RCC_OscConfig+0xc4>
        return HAL_ERROR;
 8003494:	0018      	movs	r0, r3
      if((RCC_OscInitStruct->PLL.PLLState) == RCC_PLL_OFF)
 8003496:	2b01      	cmp	r3, #1
 8003498:	d100      	bne.n	800349c <HAL_RCC_OscConfig+0x3c4>
 800349a:	e680      	b.n	800319e <HAL_RCC_OscConfig+0xc6>
        if((READ_BIT(pll_config,  RCC_CFGR_PLLSRC)  != RCC_OscInitStruct->PLL.PLLSource) ||
 800349c:	2180      	movs	r1, #128	; 0x80
        pll_config  = RCC->CFGR;
 800349e:	686b      	ldr	r3, [r5, #4]
        if((READ_BIT(pll_config,  RCC_CFGR_PLLSRC)  != RCC_OscInitStruct->PLL.PLLSource) ||
 80034a0:	6a60      	ldr	r0, [r4, #36]	; 0x24
 80034a2:	0249      	lsls	r1, r1, #9
        pll_config2 = RCC->CFGR2;
 80034a4:	6aea      	ldr	r2, [r5, #44]	; 0x2c
        if((READ_BIT(pll_config,  RCC_CFGR_PLLSRC)  != RCC_OscInitStruct->PLL.PLLSource) ||
 80034a6:	4019      	ands	r1, r3
 80034a8:	4281      	cmp	r1, r0
 80034aa:	d000      	beq.n	80034ae <HAL_RCC_OscConfig+0x3d6>
 80034ac:	e65f      	b.n	800316e <HAL_RCC_OscConfig+0x96>
           (READ_BIT(pll_config2, RCC_CFGR2_PREDIV) != RCC_OscInitStruct->PLL.PREDIV)    ||
 80034ae:	210f      	movs	r1, #15
 80034b0:	400a      	ands	r2, r1
        if((READ_BIT(pll_config,  RCC_CFGR_PLLSRC)  != RCC_OscInitStruct->PLL.PLLSource) ||
 80034b2:	6ae1      	ldr	r1, [r4, #44]	; 0x2c
 80034b4:	428a      	cmp	r2, r1
 80034b6:	d000      	beq.n	80034ba <HAL_RCC_OscConfig+0x3e2>
 80034b8:	e659      	b.n	800316e <HAL_RCC_OscConfig+0x96>
           (READ_BIT(pll_config,  RCC_CFGR_PLLMUL)  != RCC_OscInitStruct->PLL.PLLMUL))
 80034ba:	22f0      	movs	r2, #240	; 0xf0
 80034bc:	0392      	lsls	r2, r2, #14
 80034be:	4013      	ands	r3, r2
           (READ_BIT(pll_config2, RCC_CFGR2_PREDIV) != RCC_OscInitStruct->PLL.PREDIV)    ||
 80034c0:	6aa2      	ldr	r2, [r4, #40]	; 0x28
 80034c2:	4293      	cmp	r3, r2
 80034c4:	d100      	bne.n	80034c8 <HAL_RCC_OscConfig+0x3f0>
 80034c6:	e63d      	b.n	8003144 <HAL_RCC_OscConfig+0x6c>
 80034c8:	e651      	b.n	800316e <HAL_RCC_OscConfig+0x96>
 80034ca:	46c0      	nop			; (mov r8, r8)
 80034cc:	40021000 	.word	0x40021000
 80034d0:	feffffff 	.word	0xfeffffff
 80034d4:	ffc2ffff 	.word	0xffc2ffff

080034d8 <HAL_RCC_EnableCSS>:
  *         the Cortex-M0 NMI (Non-Maskable Interrupt) exception vector.  
  * @retval None
  */
void HAL_RCC_EnableCSS(void)
{
  SET_BIT(RCC->CR, RCC_CR_CSSON) ;
 80034d8:	2380      	movs	r3, #128	; 0x80
 80034da:	4a03      	ldr	r2, [pc, #12]	; (80034e8 <HAL_RCC_EnableCSS+0x10>)
 80034dc:	031b      	lsls	r3, r3, #12
 80034de:	6811      	ldr	r1, [r2, #0]
 80034e0:	430b      	orrs	r3, r1
 80034e2:	6013      	str	r3, [r2, #0]
}
 80034e4:	4770      	bx	lr
 80034e6:	46c0      	nop			; (mov r8, r8)
 80034e8:	40021000 	.word	0x40021000

080034ec <HAL_RCC_GetSysClockFreq>:
  *         right SYSCLK value. Otherwise, any configuration based on this function will be incorrect.
  *         
  * @retval SYSCLK frequency
  */
uint32_t HAL_RCC_GetSysClockFreq(void)
{
 80034ec:	b570      	push	{r4, r5, r6, lr}
 80034ee:	b088      	sub	sp, #32
  const uint8_t aPLLMULFactorTable[16] = { 2U,  3U,  4U,  5U,  6U,  7U,  8U,  9U,
 80034f0:	2210      	movs	r2, #16
 80034f2:	4912      	ldr	r1, [pc, #72]	; (800353c <HAL_RCC_GetSysClockFreq+0x50>)
 80034f4:	4668      	mov	r0, sp
                                         10U, 11U, 12U, 13U, 14U, 15U, 16U, 16U};
  const uint8_t aPredivFactorTable[16] = { 1U, 2U,  3U,  4U,  5U,  6U,  7U,  8U,
 80034f6:	ad04      	add	r5, sp, #16
  const uint8_t aPLLMULFactorTable[16] = { 2U,  3U,  4U,  5U,  6U,  7U,  8U,  9U,
 80034f8:	f002 fc7e 	bl	8005df8 <memcpy>
  const uint8_t aPredivFactorTable[16] = { 1U, 2U,  3U,  4U,  5U,  6U,  7U,  8U,
 80034fc:	2210      	movs	r2, #16
 80034fe:	0028      	movs	r0, r5
 8003500:	490f      	ldr	r1, [pc, #60]	; (8003540 <HAL_RCC_GetSysClockFreq+0x54>)
 8003502:	f002 fc79 	bl	8005df8 <memcpy>
  uint32_t sysclockfreq = 0U;
  
  tmpreg = RCC->CFGR;
  
  /* Get SYSCLK source -------------------------------------------------------*/
  switch (tmpreg & RCC_CFGR_SWS)
 8003506:	220c      	movs	r2, #12
  tmpreg = RCC->CFGR;
 8003508:	4e0e      	ldr	r6, [pc, #56]	; (8003544 <HAL_RCC_GetSysClockFreq+0x58>)
 800350a:	6873      	ldr	r3, [r6, #4]
  switch (tmpreg & RCC_CFGR_SWS)
 800350c:	401a      	ands	r2, r3
 800350e:	2a08      	cmp	r2, #8
 8003510:	d111      	bne.n	8003536 <HAL_RCC_GetSysClockFreq+0x4a>
      sysclockfreq = HSE_VALUE;
      break;
    }
    case RCC_SYSCLKSOURCE_STATUS_PLLCLK:  /* PLL used as system clock */
    {
      pllmul = aPLLMULFactorTable[(uint32_t)(tmpreg & RCC_CFGR_PLLMUL) >> RCC_CFGR_PLLMUL_BITNUMBER];
 8003512:	200f      	movs	r0, #15
 8003514:	466a      	mov	r2, sp
 8003516:	0c99      	lsrs	r1, r3, #18
 8003518:	4001      	ands	r1, r0
 800351a:	5c54      	ldrb	r4, [r2, r1]
      prediv = aPredivFactorTable[(uint32_t)(RCC->CFGR2 & RCC_CFGR2_PREDIV) >> RCC_CFGR2_PREDIV_BITNUMBER];
 800351c:	6af2      	ldr	r2, [r6, #44]	; 0x2c
 800351e:	4002      	ands	r2, r0
 8003520:	5ca9      	ldrb	r1, [r5, r2]
      if ((tmpreg & RCC_CFGR_PLLSRC) == RCC_PLLSOURCE_HSE)
 8003522:	03db      	lsls	r3, r3, #15
 8003524:	d505      	bpl.n	8003532 <HAL_RCC_GetSysClockFreq+0x46>
      {
        /* HSE used as PLL clock source : PLLCLK = HSE/PREDIV * PLLMUL */
        pllclk = (uint32_t)((uint64_t) HSE_VALUE / (uint64_t) (prediv)) * ((uint64_t) pllmul);
 8003526:	4808      	ldr	r0, [pc, #32]	; (8003548 <HAL_RCC_GetSysClockFreq+0x5c>)
 8003528:	f7fc fe16 	bl	8000158 <__udivsi3>
#if  (defined(STM32F042x6) || defined(STM32F048xx) || defined(STM32F070x6) || defined(STM32F071xB) || defined(STM32F072xB) || defined(STM32F078xx) || defined(STM32F070xB) || defined(STM32F091xC) || defined(STM32F098xx) || defined(STM32F030xC))
        /* HSI used as PLL clock source : PLLCLK = HSI/PREDIV * PLLMUL */
        pllclk = (uint32_t)((uint64_t) HSI_VALUE / (uint64_t) (prediv)) * ((uint64_t) pllmul);
#else
        /* HSI used as PLL clock source : PLLCLK = HSI/2 * PLLMUL */
        pllclk = (uint32_t)((uint64_t) (HSI_VALUE >> 1U) * ((uint64_t) pllmul));
 800352c:	4360      	muls	r0, r4
      sysclockfreq = HSI_VALUE;
      break;
    }
  }
  return sysclockfreq;
}
 800352e:	b008      	add	sp, #32
 8003530:	bd70      	pop	{r4, r5, r6, pc}
        pllclk = (uint32_t)((uint64_t) (HSI_VALUE >> 1U) * ((uint64_t) pllmul));
 8003532:	4806      	ldr	r0, [pc, #24]	; (800354c <HAL_RCC_GetSysClockFreq+0x60>)
 8003534:	e7fa      	b.n	800352c <HAL_RCC_GetSysClockFreq+0x40>
      sysclockfreq = HSE_VALUE;
 8003536:	4804      	ldr	r0, [pc, #16]	; (8003548 <HAL_RCC_GetSysClockFreq+0x5c>)
  return sysclockfreq;
 8003538:	e7f9      	b.n	800352e <HAL_RCC_GetSysClockFreq+0x42>
 800353a:	46c0      	nop			; (mov r8, r8)
 800353c:	08006a2c 	.word	0x08006a2c
 8003540:	08006a3d 	.word	0x08006a3d
 8003544:	40021000 	.word	0x40021000
 8003548:	007a1200 	.word	0x007a1200
 800354c:	003d0900 	.word	0x003d0900

08003550 <HAL_RCC_ClockConfig>:
{
 8003550:	b5f7      	push	{r0, r1, r2, r4, r5, r6, r7, lr}
 8003552:	0004      	movs	r4, r0
 8003554:	000e      	movs	r6, r1
  if(RCC_ClkInitStruct == NULL)
 8003556:	2800      	cmp	r0, #0
 8003558:	d101      	bne.n	800355e <HAL_RCC_ClockConfig+0xe>
    return HAL_ERROR;
 800355a:	2001      	movs	r0, #1
}
 800355c:	bdfe      	pop	{r1, r2, r3, r4, r5, r6, r7, pc}
  if(FLatency > __HAL_FLASH_GET_LATENCY())
 800355e:	2201      	movs	r2, #1
 8003560:	4d37      	ldr	r5, [pc, #220]	; (8003640 <HAL_RCC_ClockConfig+0xf0>)
 8003562:	682b      	ldr	r3, [r5, #0]
 8003564:	4013      	ands	r3, r2
 8003566:	428b      	cmp	r3, r1
 8003568:	d31c      	bcc.n	80035a4 <HAL_RCC_ClockConfig+0x54>
  if(((RCC_ClkInitStruct->ClockType) & RCC_CLOCKTYPE_HCLK) == RCC_CLOCKTYPE_HCLK)
 800356a:	6821      	ldr	r1, [r4, #0]
 800356c:	078b      	lsls	r3, r1, #30
 800356e:	d422      	bmi.n	80035b6 <HAL_RCC_ClockConfig+0x66>
  if(((RCC_ClkInitStruct->ClockType) & RCC_CLOCKTYPE_SYSCLK) == RCC_CLOCKTYPE_SYSCLK)
 8003570:	07cb      	lsls	r3, r1, #31
 8003572:	d42f      	bmi.n	80035d4 <HAL_RCC_ClockConfig+0x84>
  if(FLatency < __HAL_FLASH_GET_LATENCY())
 8003574:	2301      	movs	r3, #1
 8003576:	682a      	ldr	r2, [r5, #0]
 8003578:	401a      	ands	r2, r3
 800357a:	42b2      	cmp	r2, r6
 800357c:	d851      	bhi.n	8003622 <HAL_RCC_ClockConfig+0xd2>
  if(((RCC_ClkInitStruct->ClockType) & RCC_CLOCKTYPE_PCLK1) == RCC_CLOCKTYPE_PCLK1)
 800357e:	6823      	ldr	r3, [r4, #0]
 8003580:	4d30      	ldr	r5, [pc, #192]	; (8003644 <HAL_RCC_ClockConfig+0xf4>)
 8003582:	075b      	lsls	r3, r3, #29
 8003584:	d454      	bmi.n	8003630 <HAL_RCC_ClockConfig+0xe0>
  SystemCoreClock = HAL_RCC_GetSysClockFreq() >> AHBPrescTable[(RCC->CFGR & RCC_CFGR_HPRE)>> RCC_CFGR_HPRE_BITNUMBER];
 8003586:	f7ff ffb1 	bl	80034ec <HAL_RCC_GetSysClockFreq>
 800358a:	686b      	ldr	r3, [r5, #4]
 800358c:	4a2e      	ldr	r2, [pc, #184]	; (8003648 <HAL_RCC_ClockConfig+0xf8>)
 800358e:	061b      	lsls	r3, r3, #24
 8003590:	0f1b      	lsrs	r3, r3, #28
 8003592:	5cd3      	ldrb	r3, [r2, r3]
 8003594:	40d8      	lsrs	r0, r3
 8003596:	4b2d      	ldr	r3, [pc, #180]	; (800364c <HAL_RCC_ClockConfig+0xfc>)
 8003598:	6018      	str	r0, [r3, #0]
  HAL_InitTick (TICK_INT_PRIORITY);
 800359a:	2002      	movs	r0, #2
 800359c:	f7ff fad8 	bl	8002b50 <HAL_InitTick>
  return HAL_OK;
 80035a0:	2000      	movs	r0, #0
 80035a2:	e7db      	b.n	800355c <HAL_RCC_ClockConfig+0xc>
    __HAL_FLASH_SET_LATENCY(FLatency);
 80035a4:	682b      	ldr	r3, [r5, #0]
 80035a6:	4393      	bics	r3, r2
 80035a8:	430b      	orrs	r3, r1
 80035aa:	602b      	str	r3, [r5, #0]
    if(__HAL_FLASH_GET_LATENCY() != FLatency)
 80035ac:	682b      	ldr	r3, [r5, #0]
 80035ae:	4013      	ands	r3, r2
 80035b0:	428b      	cmp	r3, r1
 80035b2:	d1d2      	bne.n	800355a <HAL_RCC_ClockConfig+0xa>
 80035b4:	e7d9      	b.n	800356a <HAL_RCC_ClockConfig+0x1a>
    if(((RCC_ClkInitStruct->ClockType) & RCC_CLOCKTYPE_PCLK1) == RCC_CLOCKTYPE_PCLK1)
 80035b6:	4a23      	ldr	r2, [pc, #140]	; (8003644 <HAL_RCC_ClockConfig+0xf4>)
 80035b8:	074b      	lsls	r3, r1, #29
 80035ba:	d504      	bpl.n	80035c6 <HAL_RCC_ClockConfig+0x76>
      MODIFY_REG(RCC->CFGR, RCC_CFGR_PPRE, RCC_HCLK_DIV16);
 80035bc:	23e0      	movs	r3, #224	; 0xe0
 80035be:	6850      	ldr	r0, [r2, #4]
 80035c0:	00db      	lsls	r3, r3, #3
 80035c2:	4303      	orrs	r3, r0
 80035c4:	6053      	str	r3, [r2, #4]
    MODIFY_REG(RCC->CFGR, RCC_CFGR_HPRE, RCC_ClkInitStruct->AHBCLKDivider);
 80035c6:	20f0      	movs	r0, #240	; 0xf0
 80035c8:	6853      	ldr	r3, [r2, #4]
 80035ca:	4383      	bics	r3, r0
 80035cc:	68a0      	ldr	r0, [r4, #8]
 80035ce:	4303      	orrs	r3, r0
 80035d0:	6053      	str	r3, [r2, #4]
 80035d2:	e7cd      	b.n	8003570 <HAL_RCC_ClockConfig+0x20>
    if(RCC_ClkInitStruct->SYSCLKSource == RCC_SYSCLKSOURCE_HSE)
 80035d4:	4f1b      	ldr	r7, [pc, #108]	; (8003644 <HAL_RCC_ClockConfig+0xf4>)
 80035d6:	6862      	ldr	r2, [r4, #4]
      if(__HAL_RCC_GET_FLAG(RCC_FLAG_HSERDY) == RESET)
 80035d8:	683b      	ldr	r3, [r7, #0]
    if(RCC_ClkInitStruct->SYSCLKSource == RCC_SYSCLKSOURCE_HSE)
 80035da:	2a01      	cmp	r2, #1
 80035dc:	d119      	bne.n	8003612 <HAL_RCC_ClockConfig+0xc2>
      if(__HAL_RCC_GET_FLAG(RCC_FLAG_HSERDY) == RESET)
 80035de:	039b      	lsls	r3, r3, #14
 80035e0:	d5bb      	bpl.n	800355a <HAL_RCC_ClockConfig+0xa>
    __HAL_RCC_SYSCLK_CONFIG(RCC_ClkInitStruct->SYSCLKSource);
 80035e2:	2103      	movs	r1, #3
 80035e4:	687b      	ldr	r3, [r7, #4]
 80035e6:	438b      	bics	r3, r1
 80035e8:	4313      	orrs	r3, r2
 80035ea:	607b      	str	r3, [r7, #4]
    tickstart = HAL_GetTick();
 80035ec:	f7ff faf0 	bl	8002bd0 <HAL_GetTick>
 80035f0:	9001      	str	r0, [sp, #4]
    while (__HAL_RCC_GET_SYSCLK_SOURCE() != (RCC_ClkInitStruct->SYSCLKSource << RCC_CFGR_SWS_Pos))
 80035f2:	230c      	movs	r3, #12
 80035f4:	687a      	ldr	r2, [r7, #4]
 80035f6:	401a      	ands	r2, r3
 80035f8:	6863      	ldr	r3, [r4, #4]
 80035fa:	009b      	lsls	r3, r3, #2
 80035fc:	429a      	cmp	r2, r3
 80035fe:	d0b9      	beq.n	8003574 <HAL_RCC_ClockConfig+0x24>
      if((HAL_GetTick() - tickstart ) > CLOCKSWITCH_TIMEOUT_VALUE)
 8003600:	f7ff fae6 	bl	8002bd0 <HAL_GetTick>
 8003604:	9b01      	ldr	r3, [sp, #4]
 8003606:	1ac0      	subs	r0, r0, r3
 8003608:	4b11      	ldr	r3, [pc, #68]	; (8003650 <HAL_RCC_ClockConfig+0x100>)
 800360a:	4298      	cmp	r0, r3
 800360c:	d9f1      	bls.n	80035f2 <HAL_RCC_ClockConfig+0xa2>
        return HAL_TIMEOUT;
 800360e:	2003      	movs	r0, #3
 8003610:	e7a4      	b.n	800355c <HAL_RCC_ClockConfig+0xc>
    else if(RCC_ClkInitStruct->SYSCLKSource == RCC_SYSCLKSOURCE_PLLCLK)
 8003612:	2a02      	cmp	r2, #2
 8003614:	d102      	bne.n	800361c <HAL_RCC_ClockConfig+0xcc>
      if(__HAL_RCC_GET_FLAG(RCC_FLAG_PLLRDY) == RESET)
 8003616:	019b      	lsls	r3, r3, #6
 8003618:	d4e3      	bmi.n	80035e2 <HAL_RCC_ClockConfig+0x92>
 800361a:	e79e      	b.n	800355a <HAL_RCC_ClockConfig+0xa>
      if(__HAL_RCC_GET_FLAG(RCC_FLAG_HSIRDY) == RESET)
 800361c:	079b      	lsls	r3, r3, #30
 800361e:	d4e0      	bmi.n	80035e2 <HAL_RCC_ClockConfig+0x92>
 8003620:	e79b      	b.n	800355a <HAL_RCC_ClockConfig+0xa>
    __HAL_FLASH_SET_LATENCY(FLatency);
 8003622:	682a      	ldr	r2, [r5, #0]
 8003624:	439a      	bics	r2, r3
 8003626:	602a      	str	r2, [r5, #0]
    if(__HAL_FLASH_GET_LATENCY() != FLatency)
 8003628:	682a      	ldr	r2, [r5, #0]
 800362a:	421a      	tst	r2, r3
 800362c:	d0a7      	beq.n	800357e <HAL_RCC_ClockConfig+0x2e>
 800362e:	e794      	b.n	800355a <HAL_RCC_ClockConfig+0xa>
    MODIFY_REG(RCC->CFGR, RCC_CFGR_PPRE, RCC_ClkInitStruct->APB1CLKDivider);
 8003630:	686b      	ldr	r3, [r5, #4]
 8003632:	4a08      	ldr	r2, [pc, #32]	; (8003654 <HAL_RCC_ClockConfig+0x104>)
 8003634:	4013      	ands	r3, r2
 8003636:	68e2      	ldr	r2, [r4, #12]
 8003638:	4313      	orrs	r3, r2
 800363a:	606b      	str	r3, [r5, #4]
 800363c:	e7a3      	b.n	8003586 <HAL_RCC_ClockConfig+0x36>
 800363e:	46c0      	nop			; (mov r8, r8)
 8003640:	40022000 	.word	0x40022000
 8003644:	40021000 	.word	0x40021000
 8003648:	08006a14 	.word	0x08006a14
 800364c:	20000624 	.word	0x20000624
 8003650:	00001388 	.word	0x00001388
 8003654:	fffff8ff 	.word	0xfffff8ff

08003658 <HAL_RCC_GetHCLKFreq>:
  *         and updated within this function
  * @retval HCLK frequency
  */
uint32_t HAL_RCC_GetHCLKFreq(void)
{
  return SystemCoreClock;
 8003658:	4b01      	ldr	r3, [pc, #4]	; (8003660 <HAL_RCC_GetHCLKFreq+0x8>)
 800365a:	6818      	ldr	r0, [r3, #0]
}
 800365c:	4770      	bx	lr
 800365e:	46c0      	nop			; (mov r8, r8)
 8003660:	20000624 	.word	0x20000624

08003664 <HAL_RCC_GetPCLK1Freq>:
  * @retval PCLK1 frequency
  */
uint32_t HAL_RCC_GetPCLK1Freq(void)
{
  /* Get HCLK source and Compute PCLK1 frequency ---------------------------*/
  return (HAL_RCC_GetHCLKFreq() >> APBPrescTable[(RCC->CFGR & RCC_CFGR_PPRE) >> RCC_CFGR_PPRE_BITNUMBER]);
 8003664:	4b04      	ldr	r3, [pc, #16]	; (8003678 <HAL_RCC_GetPCLK1Freq+0x14>)
 8003666:	4a05      	ldr	r2, [pc, #20]	; (800367c <HAL_RCC_GetPCLK1Freq+0x18>)
 8003668:	685b      	ldr	r3, [r3, #4]
 800366a:	055b      	lsls	r3, r3, #21
 800366c:	0f5b      	lsrs	r3, r3, #29
 800366e:	5cd3      	ldrb	r3, [r2, r3]
 8003670:	4a03      	ldr	r2, [pc, #12]	; (8003680 <HAL_RCC_GetPCLK1Freq+0x1c>)
 8003672:	6810      	ldr	r0, [r2, #0]
 8003674:	40d8      	lsrs	r0, r3
}    
 8003676:	4770      	bx	lr
 8003678:	40021000 	.word	0x40021000
 800367c:	08006a24 	.word	0x08006a24
 8003680:	20000624 	.word	0x20000624

08003684 <HAL_RCCEx_PeriphCLKConfig>:
  *         the backup registers) and RCC_BDCR register are set to their reset values.
  *
  * @retval HAL status
  */
HAL_StatusTypeDef HAL_RCCEx_PeriphCLKConfig(RCC_PeriphCLKInitTypeDef  *PeriphClkInit)
{
 8003684:	b5f0      	push	{r4, r5, r6, r7, lr}

  /* Check the parameters */
  assert_param(IS_RCC_PERIPHCLOCK(PeriphClkInit->PeriphClockSelection));
  
  /*---------------------------- RTC configuration -------------------------------*/
  if(((PeriphClkInit->PeriphClockSelection) & RCC_PERIPHCLK_RTC) == (RCC_PERIPHCLK_RTC))
 8003686:	6803      	ldr	r3, [r0, #0]
{
 8003688:	0005      	movs	r5, r0
 800368a:	b085      	sub	sp, #20
  if(((PeriphClkInit->PeriphClockSelection) & RCC_PERIPHCLK_RTC) == (RCC_PERIPHCLK_RTC))
 800368c:	03db      	lsls	r3, r3, #15
 800368e:	d52a      	bpl.n	80036e6 <HAL_RCCEx_PeriphCLKConfig+0x62>
    FlagStatus       pwrclkchanged = RESET;

    /* As soon as function is called to change RTC clock source, activation of the 
       power domain is done. */
    /* Requires to enable write access to Backup Domain of necessary */
    if(__HAL_RCC_PWR_IS_CLK_DISABLED())
 8003690:	2280      	movs	r2, #128	; 0x80
    FlagStatus       pwrclkchanged = RESET;
 8003692:	2100      	movs	r1, #0
    if(__HAL_RCC_PWR_IS_CLK_DISABLED())
 8003694:	4c38      	ldr	r4, [pc, #224]	; (8003778 <HAL_RCCEx_PeriphCLKConfig+0xf4>)
 8003696:	0552      	lsls	r2, r2, #21
 8003698:	69e3      	ldr	r3, [r4, #28]
    FlagStatus       pwrclkchanged = RESET;
 800369a:	9100      	str	r1, [sp, #0]
    if(__HAL_RCC_PWR_IS_CLK_DISABLED())
 800369c:	4213      	tst	r3, r2
 800369e:	d108      	bne.n	80036b2 <HAL_RCCEx_PeriphCLKConfig+0x2e>
    {
    __HAL_RCC_PWR_CLK_ENABLE();
 80036a0:	69e3      	ldr	r3, [r4, #28]
 80036a2:	4313      	orrs	r3, r2
 80036a4:	61e3      	str	r3, [r4, #28]
 80036a6:	69e3      	ldr	r3, [r4, #28]
 80036a8:	4013      	ands	r3, r2
 80036aa:	9303      	str	r3, [sp, #12]
 80036ac:	9b03      	ldr	r3, [sp, #12]
      pwrclkchanged = SET;
 80036ae:	2301      	movs	r3, #1
 80036b0:	9300      	str	r3, [sp, #0]
    }
    
    if(HAL_IS_BIT_CLR(PWR->CR, PWR_CR_DBP))
 80036b2:	2780      	movs	r7, #128	; 0x80
 80036b4:	4e31      	ldr	r6, [pc, #196]	; (800377c <HAL_RCCEx_PeriphCLKConfig+0xf8>)
 80036b6:	007f      	lsls	r7, r7, #1
 80036b8:	6833      	ldr	r3, [r6, #0]
 80036ba:	423b      	tst	r3, r7
 80036bc:	d028      	beq.n	8003710 <HAL_RCCEx_PeriphCLKConfig+0x8c>
        }
      }
    }
    
    /* Reset the Backup domain only if the RTC Clock source selection is modified from reset value */ 
    temp_reg = (RCC->BDCR & RCC_BDCR_RTCSEL);
 80036be:	6a22      	ldr	r2, [r4, #32]
 80036c0:	23c0      	movs	r3, #192	; 0xc0
 80036c2:	0011      	movs	r1, r2
 80036c4:	009b      	lsls	r3, r3, #2
 80036c6:	4e2e      	ldr	r6, [pc, #184]	; (8003780 <HAL_RCCEx_PeriphCLKConfig+0xfc>)
 80036c8:	4019      	ands	r1, r3
    if((temp_reg != 0x00000000U) && (temp_reg != (PeriphClkInit->RTCClockSelection & RCC_BDCR_RTCSEL)))
 80036ca:	421a      	tst	r2, r3
 80036cc:	d132      	bne.n	8003734 <HAL_RCCEx_PeriphCLKConfig+0xb0>
            return HAL_TIMEOUT;
          }
        }
      }
    }
    __HAL_RCC_RTC_CONFIG(PeriphClkInit->RTCClockSelection);
 80036ce:	6a23      	ldr	r3, [r4, #32]
 80036d0:	401e      	ands	r6, r3
 80036d2:	686b      	ldr	r3, [r5, #4]
 80036d4:	431e      	orrs	r6, r3

    /* Require to disable power clock if necessary */
    if(pwrclkchanged == SET)
 80036d6:	9b00      	ldr	r3, [sp, #0]
    __HAL_RCC_RTC_CONFIG(PeriphClkInit->RTCClockSelection);
 80036d8:	6226      	str	r6, [r4, #32]
    if(pwrclkchanged == SET)
 80036da:	2b01      	cmp	r3, #1
 80036dc:	d103      	bne.n	80036e6 <HAL_RCCEx_PeriphCLKConfig+0x62>
    {
      __HAL_RCC_PWR_CLK_DISABLE();
 80036de:	69e3      	ldr	r3, [r4, #28]
 80036e0:	4a28      	ldr	r2, [pc, #160]	; (8003784 <HAL_RCCEx_PeriphCLKConfig+0x100>)
 80036e2:	4013      	ands	r3, r2
 80036e4:	61e3      	str	r3, [r4, #28]
    }
  }

  /*------------------------------- USART1 Configuration ------------------------*/ 
  if(((PeriphClkInit->PeriphClockSelection) & RCC_PERIPHCLK_USART1) == RCC_PERIPHCLK_USART1)
 80036e6:	682a      	ldr	r2, [r5, #0]
 80036e8:	07d3      	lsls	r3, r2, #31
 80036ea:	d506      	bpl.n	80036fa <HAL_RCCEx_PeriphCLKConfig+0x76>
  {
    /* Check the parameters */
    assert_param(IS_RCC_USART1CLKSOURCE(PeriphClkInit->Usart1ClockSelection));
    
    /* Configure the USART1 clock source */
    __HAL_RCC_USART1_CONFIG(PeriphClkInit->Usart1ClockSelection);
 80036ec:	2003      	movs	r0, #3
 80036ee:	4922      	ldr	r1, [pc, #136]	; (8003778 <HAL_RCCEx_PeriphCLKConfig+0xf4>)
 80036f0:	6b0b      	ldr	r3, [r1, #48]	; 0x30
 80036f2:	4383      	bics	r3, r0
 80036f4:	68a8      	ldr	r0, [r5, #8]
 80036f6:	4303      	orrs	r3, r0
 80036f8:	630b      	str	r3, [r1, #48]	; 0x30
#endif /* STM32F042x6 || STM32F048xx ||                */
       /* STM32F051x8 || STM32F058xx ||                */
       /* STM32F071xB || STM32F072xB || STM32F078xx || */
       /* STM32F091xC || STM32F098xx */
  
  return HAL_OK;
 80036fa:	2000      	movs	r0, #0
  if(((PeriphClkInit->PeriphClockSelection) & RCC_PERIPHCLK_I2C1) == RCC_PERIPHCLK_I2C1)
 80036fc:	0693      	lsls	r3, r2, #26
 80036fe:	d517      	bpl.n	8003730 <HAL_RCCEx_PeriphCLKConfig+0xac>
    __HAL_RCC_I2C1_CONFIG(PeriphClkInit->I2c1ClockSelection);
 8003700:	2110      	movs	r1, #16
 8003702:	4a1d      	ldr	r2, [pc, #116]	; (8003778 <HAL_RCCEx_PeriphCLKConfig+0xf4>)
 8003704:	6b13      	ldr	r3, [r2, #48]	; 0x30
 8003706:	438b      	bics	r3, r1
 8003708:	68e9      	ldr	r1, [r5, #12]
 800370a:	430b      	orrs	r3, r1
 800370c:	6313      	str	r3, [r2, #48]	; 0x30
 800370e:	e00f      	b.n	8003730 <HAL_RCCEx_PeriphCLKConfig+0xac>
      SET_BIT(PWR->CR, PWR_CR_DBP);
 8003710:	6833      	ldr	r3, [r6, #0]
 8003712:	433b      	orrs	r3, r7
 8003714:	6033      	str	r3, [r6, #0]
      tickstart = HAL_GetTick();
 8003716:	f7ff fa5b 	bl	8002bd0 <HAL_GetTick>
 800371a:	9001      	str	r0, [sp, #4]
      while(HAL_IS_BIT_CLR(PWR->CR, PWR_CR_DBP))
 800371c:	6833      	ldr	r3, [r6, #0]
 800371e:	423b      	tst	r3, r7
 8003720:	d1cd      	bne.n	80036be <HAL_RCCEx_PeriphCLKConfig+0x3a>
        if((HAL_GetTick() - tickstart) > RCC_DBP_TIMEOUT_VALUE)
 8003722:	f7ff fa55 	bl	8002bd0 <HAL_GetTick>
 8003726:	9b01      	ldr	r3, [sp, #4]
 8003728:	1ac0      	subs	r0, r0, r3
 800372a:	2864      	cmp	r0, #100	; 0x64
 800372c:	d9f6      	bls.n	800371c <HAL_RCCEx_PeriphCLKConfig+0x98>
          return HAL_TIMEOUT;
 800372e:	2003      	movs	r0, #3
}
 8003730:	b005      	add	sp, #20
 8003732:	bdf0      	pop	{r4, r5, r6, r7, pc}
    if((temp_reg != 0x00000000U) && (temp_reg != (PeriphClkInit->RTCClockSelection & RCC_BDCR_RTCSEL)))
 8003734:	686a      	ldr	r2, [r5, #4]
 8003736:	4013      	ands	r3, r2
 8003738:	428b      	cmp	r3, r1
 800373a:	d0c8      	beq.n	80036ce <HAL_RCCEx_PeriphCLKConfig+0x4a>
      __HAL_RCC_BACKUPRESET_FORCE();
 800373c:	2380      	movs	r3, #128	; 0x80
      temp_reg = (RCC->BDCR & ~(RCC_BDCR_RTCSEL));
 800373e:	6a22      	ldr	r2, [r4, #32]
      __HAL_RCC_BACKUPRESET_FORCE();
 8003740:	6a20      	ldr	r0, [r4, #32]
      temp_reg = (RCC->BDCR & ~(RCC_BDCR_RTCSEL));
 8003742:	0011      	movs	r1, r2
      __HAL_RCC_BACKUPRESET_FORCE();
 8003744:	025b      	lsls	r3, r3, #9
 8003746:	4303      	orrs	r3, r0
 8003748:	6223      	str	r3, [r4, #32]
      __HAL_RCC_BACKUPRESET_RELEASE();
 800374a:	6a23      	ldr	r3, [r4, #32]
 800374c:	480e      	ldr	r0, [pc, #56]	; (8003788 <HAL_RCCEx_PeriphCLKConfig+0x104>)
      temp_reg = (RCC->BDCR & ~(RCC_BDCR_RTCSEL));
 800374e:	4031      	ands	r1, r6
      __HAL_RCC_BACKUPRESET_RELEASE();
 8003750:	4003      	ands	r3, r0
 8003752:	6223      	str	r3, [r4, #32]
      RCC->BDCR = temp_reg;
 8003754:	6221      	str	r1, [r4, #32]
      if (HAL_IS_BIT_SET(temp_reg, RCC_BDCR_LSEON))
 8003756:	07d3      	lsls	r3, r2, #31
 8003758:	d5b9      	bpl.n	80036ce <HAL_RCCEx_PeriphCLKConfig+0x4a>
        tickstart = HAL_GetTick();
 800375a:	f7ff fa39 	bl	8002bd0 <HAL_GetTick>
 800375e:	0007      	movs	r7, r0
        while(__HAL_RCC_GET_FLAG(RCC_FLAG_LSERDY) == RESET)
 8003760:	2202      	movs	r2, #2
 8003762:	6a23      	ldr	r3, [r4, #32]
 8003764:	4213      	tst	r3, r2
 8003766:	d1b2      	bne.n	80036ce <HAL_RCCEx_PeriphCLKConfig+0x4a>
          if((HAL_GetTick() - tickstart) > RCC_LSE_TIMEOUT_VALUE)
 8003768:	f7ff fa32 	bl	8002bd0 <HAL_GetTick>
 800376c:	4b07      	ldr	r3, [pc, #28]	; (800378c <HAL_RCCEx_PeriphCLKConfig+0x108>)
 800376e:	1bc0      	subs	r0, r0, r7
 8003770:	4298      	cmp	r0, r3
 8003772:	d9f5      	bls.n	8003760 <HAL_RCCEx_PeriphCLKConfig+0xdc>
 8003774:	e7db      	b.n	800372e <HAL_RCCEx_PeriphCLKConfig+0xaa>
 8003776:	46c0      	nop			; (mov r8, r8)
 8003778:	40021000 	.word	0x40021000
 800377c:	40007000 	.word	0x40007000
 8003780:	fffffcff 	.word	0xfffffcff
 8003784:	efffffff 	.word	0xefffffff
 8003788:	fffeffff 	.word	0xfffeffff
 800378c:	00001388 	.word	0x00001388

08003790 <TIM_OC1_SetConfig>:
  uint32_t tmpccmrx;
  uint32_t tmpccer;
  uint32_t tmpcr2;

  /* Disable the Channel 1: Reset the CC1E Bit */
  TIMx->CCER &= ~TIM_CCER_CC1E;
 8003790:	2201      	movs	r2, #1
 8003792:	6a03      	ldr	r3, [r0, #32]
{
 8003794:	b570      	push	{r4, r5, r6, lr}
  TIMx->CCER &= ~TIM_CCER_CC1E;
 8003796:	4393      	bics	r3, r2
 8003798:	6203      	str	r3, [r0, #32]

  /* Get the TIMx CCER register value */
  tmpccer = TIMx->CCER;
 800379a:	6a03      	ldr	r3, [r0, #32]
  /* Get the TIMx CR2 register value */
  tmpcr2 =  TIMx->CR2;
 800379c:	6844      	ldr	r4, [r0, #4]

  /* Get the TIMx CCMR1 register value */
  tmpccmrx = TIMx->CCMR1;
 800379e:	6985      	ldr	r5, [r0, #24]

  /* Reset the Output Compare Mode Bits */
  tmpccmrx &= ~TIM_CCMR1_OC1M;
  tmpccmrx &= ~TIM_CCMR1_CC1S;
 80037a0:	3272      	adds	r2, #114	; 0x72
 80037a2:	4395      	bics	r5, r2
  /* Select the Output Compare Mode */
  tmpccmrx |= OC_Config->OCMode;
 80037a4:	680a      	ldr	r2, [r1, #0]
 80037a6:	4315      	orrs	r5, r2

  /* Reset the Output Polarity level */
  tmpccer &= ~TIM_CCER_CC1P;
 80037a8:	2202      	movs	r2, #2
 80037aa:	4393      	bics	r3, r2
  /* Set the Output Compare Polarity */
  tmpccer |= OC_Config->OCPolarity;
 80037ac:	688a      	ldr	r2, [r1, #8]
 80037ae:	4313      	orrs	r3, r2

  if (IS_TIM_CCXN_INSTANCE(TIMx, TIM_CHANNEL_1))
 80037b0:	4a11      	ldr	r2, [pc, #68]	; (80037f8 <TIM_OC1_SetConfig+0x68>)
 80037b2:	4290      	cmp	r0, r2
 80037b4:	d005      	beq.n	80037c2 <TIM_OC1_SetConfig+0x32>
 80037b6:	4e11      	ldr	r6, [pc, #68]	; (80037fc <TIM_OC1_SetConfig+0x6c>)
 80037b8:	42b0      	cmp	r0, r6
 80037ba:	d002      	beq.n	80037c2 <TIM_OC1_SetConfig+0x32>
 80037bc:	4e10      	ldr	r6, [pc, #64]	; (8003800 <TIM_OC1_SetConfig+0x70>)
 80037be:	42b0      	cmp	r0, r6
 80037c0:	d113      	bne.n	80037ea <TIM_OC1_SetConfig+0x5a>
  {
    /* Check parameters */
    assert_param(IS_TIM_OCN_POLARITY(OC_Config->OCNPolarity));

    /* Reset the Output N Polarity level */
    tmpccer &= ~TIM_CCER_CC1NP;
 80037c2:	2608      	movs	r6, #8
 80037c4:	43b3      	bics	r3, r6
    /* Set the Output N Polarity */
    tmpccer |= OC_Config->OCNPolarity;
 80037c6:	68ce      	ldr	r6, [r1, #12]
 80037c8:	4333      	orrs	r3, r6
    /* Reset the Output N State */
    tmpccer &= ~TIM_CCER_CC1NE;
 80037ca:	2604      	movs	r6, #4
 80037cc:	43b3      	bics	r3, r6
  }

  if (IS_TIM_BREAK_INSTANCE(TIMx))
 80037ce:	4290      	cmp	r0, r2
 80037d0:	d005      	beq.n	80037de <TIM_OC1_SetConfig+0x4e>
 80037d2:	4a0a      	ldr	r2, [pc, #40]	; (80037fc <TIM_OC1_SetConfig+0x6c>)
 80037d4:	4290      	cmp	r0, r2
 80037d6:	d002      	beq.n	80037de <TIM_OC1_SetConfig+0x4e>
 80037d8:	4a09      	ldr	r2, [pc, #36]	; (8003800 <TIM_OC1_SetConfig+0x70>)
 80037da:	4290      	cmp	r0, r2
 80037dc:	d105      	bne.n	80037ea <TIM_OC1_SetConfig+0x5a>
    assert_param(IS_TIM_OCNIDLE_STATE(OC_Config->OCNIdleState));
    assert_param(IS_TIM_OCIDLE_STATE(OC_Config->OCIdleState));

    /* Reset the Output Compare and Output Compare N IDLE State */
    tmpcr2 &= ~TIM_CR2_OIS1;
    tmpcr2 &= ~TIM_CR2_OIS1N;
 80037de:	4a09      	ldr	r2, [pc, #36]	; (8003804 <TIM_OC1_SetConfig+0x74>)
    /* Set the Output Idle state */
    tmpcr2 |= OC_Config->OCIdleState;
    /* Set the Output N Idle state */
    tmpcr2 |= OC_Config->OCNIdleState;
 80037e0:	698e      	ldr	r6, [r1, #24]
    tmpcr2 &= ~TIM_CR2_OIS1N;
 80037e2:	4022      	ands	r2, r4
    tmpcr2 |= OC_Config->OCNIdleState;
 80037e4:	694c      	ldr	r4, [r1, #20]
 80037e6:	4334      	orrs	r4, r6
 80037e8:	4314      	orrs	r4, r2

  /* Write to TIMx CCMR1 */
  TIMx->CCMR1 = tmpccmrx;

  /* Set the Capture Compare Register value */
  TIMx->CCR1 = OC_Config->Pulse;
 80037ea:	684a      	ldr	r2, [r1, #4]
  TIMx->CR2 = tmpcr2;
 80037ec:	6044      	str	r4, [r0, #4]
  TIMx->CCMR1 = tmpccmrx;
 80037ee:	6185      	str	r5, [r0, #24]
  TIMx->CCR1 = OC_Config->Pulse;
 80037f0:	6342      	str	r2, [r0, #52]	; 0x34

  /* Write to TIMx CCER */
  TIMx->CCER = tmpccer;
 80037f2:	6203      	str	r3, [r0, #32]
}
 80037f4:	bd70      	pop	{r4, r5, r6, pc}
 80037f6:	46c0      	nop			; (mov r8, r8)
 80037f8:	40012c00 	.word	0x40012c00
 80037fc:	40014400 	.word	0x40014400
 8003800:	40014800 	.word	0x40014800
 8003804:	fffffcff 	.word	0xfffffcff

08003808 <TIM_OC3_SetConfig>:
  * @param  TIMx to select the TIM peripheral
  * @param  OC_Config The output configuration structure
  * @retval None
  */
static void TIM_OC3_SetConfig(TIM_TypeDef *TIMx, TIM_OC_InitTypeDef *OC_Config)
{
 8003808:	b570      	push	{r4, r5, r6, lr}
  /* Get the TIMx CCMR2 register value */
  tmpccmrx = TIMx->CCMR2;

  /* Reset the Output Compare mode and Capture/Compare selection Bits */
  tmpccmrx &= ~TIM_CCMR2_OC3M;
  tmpccmrx &= ~TIM_CCMR2_CC3S;
 800380a:	2573      	movs	r5, #115	; 0x73
  TIMx->CCER &= ~TIM_CCER_CC3E;
 800380c:	6a03      	ldr	r3, [r0, #32]
 800380e:	4a16      	ldr	r2, [pc, #88]	; (8003868 <TIM_OC3_SetConfig+0x60>)
 8003810:	4013      	ands	r3, r2
 8003812:	6203      	str	r3, [r0, #32]
  tmpccer = TIMx->CCER;
 8003814:	6a03      	ldr	r3, [r0, #32]
  tmpcr2 =  TIMx->CR2;
 8003816:	6842      	ldr	r2, [r0, #4]
  tmpccmrx = TIMx->CCMR2;
 8003818:	69c4      	ldr	r4, [r0, #28]
  tmpccmrx &= ~TIM_CCMR2_CC3S;
 800381a:	43ac      	bics	r4, r5
  /* Select the Output Compare Mode */
  tmpccmrx |= OC_Config->OCMode;
 800381c:	680d      	ldr	r5, [r1, #0]
 800381e:	432c      	orrs	r4, r5

  /* Reset the Output Polarity level */
  tmpccer &= ~TIM_CCER_CC3P;
 8003820:	4d12      	ldr	r5, [pc, #72]	; (800386c <TIM_OC3_SetConfig+0x64>)
 8003822:	402b      	ands	r3, r5
  /* Set the Output Compare Polarity */
  tmpccer |= (OC_Config->OCPolarity << 8U);
 8003824:	688d      	ldr	r5, [r1, #8]
 8003826:	022d      	lsls	r5, r5, #8
 8003828:	432b      	orrs	r3, r5

  if (IS_TIM_CCXN_INSTANCE(TIMx, TIM_CHANNEL_3))
 800382a:	4d11      	ldr	r5, [pc, #68]	; (8003870 <TIM_OC3_SetConfig+0x68>)
 800382c:	42a8      	cmp	r0, r5
 800382e:	d10e      	bne.n	800384e <TIM_OC3_SetConfig+0x46>
  {
    assert_param(IS_TIM_OCN_POLARITY(OC_Config->OCNPolarity));

    /* Reset the Output N Polarity level */
    tmpccer &= ~TIM_CCER_CC3NP;
 8003830:	4d10      	ldr	r5, [pc, #64]	; (8003874 <TIM_OC3_SetConfig+0x6c>)
 8003832:	401d      	ands	r5, r3
    /* Set the Output N Polarity */
    tmpccer |= (OC_Config->OCNPolarity << 8U);
 8003834:	68cb      	ldr	r3, [r1, #12]
 8003836:	021b      	lsls	r3, r3, #8
 8003838:	432b      	orrs	r3, r5
    /* Reset the Output N State */
    tmpccer &= ~TIM_CCER_CC3NE;
 800383a:	4d0f      	ldr	r5, [pc, #60]	; (8003878 <TIM_OC3_SetConfig+0x70>)
 800383c:	402b      	ands	r3, r5
    assert_param(IS_TIM_OCNIDLE_STATE(OC_Config->OCNIdleState));
    assert_param(IS_TIM_OCIDLE_STATE(OC_Config->OCIdleState));

    /* Reset the Output Compare and Output Compare N IDLE State */
    tmpcr2 &= ~TIM_CR2_OIS3;
    tmpcr2 &= ~TIM_CR2_OIS3N;
 800383e:	4d0f      	ldr	r5, [pc, #60]	; (800387c <TIM_OC3_SetConfig+0x74>)
    /* Set the Output Idle state */
    tmpcr2 |= (OC_Config->OCIdleState << 4U);
    /* Set the Output N Idle state */
    tmpcr2 |= (OC_Config->OCNIdleState << 4U);
 8003840:	694e      	ldr	r6, [r1, #20]
    tmpcr2 &= ~TIM_CR2_OIS3N;
 8003842:	4015      	ands	r5, r2
    tmpcr2 |= (OC_Config->OCNIdleState << 4U);
 8003844:	698a      	ldr	r2, [r1, #24]
 8003846:	4332      	orrs	r2, r6
 8003848:	0112      	lsls	r2, r2, #4
 800384a:	432a      	orrs	r2, r5
 800384c:	e005      	b.n	800385a <TIM_OC3_SetConfig+0x52>
  if (IS_TIM_BREAK_INSTANCE(TIMx))
 800384e:	4d0c      	ldr	r5, [pc, #48]	; (8003880 <TIM_OC3_SetConfig+0x78>)
 8003850:	42a8      	cmp	r0, r5
 8003852:	d0f4      	beq.n	800383e <TIM_OC3_SetConfig+0x36>
 8003854:	4d0b      	ldr	r5, [pc, #44]	; (8003884 <TIM_OC3_SetConfig+0x7c>)
 8003856:	42a8      	cmp	r0, r5
 8003858:	d0f1      	beq.n	800383e <TIM_OC3_SetConfig+0x36>
  }

  /* Write to TIMx CR2 */
  TIMx->CR2 = tmpcr2;
 800385a:	6042      	str	r2, [r0, #4]

  /* Write to TIMx CCMR2 */
  TIMx->CCMR2 = tmpccmrx;

  /* Set the Capture Compare Register value */
  TIMx->CCR3 = OC_Config->Pulse;
 800385c:	684a      	ldr	r2, [r1, #4]
  TIMx->CCMR2 = tmpccmrx;
 800385e:	61c4      	str	r4, [r0, #28]
  TIMx->CCR3 = OC_Config->Pulse;
 8003860:	63c2      	str	r2, [r0, #60]	; 0x3c

  /* Write to TIMx CCER */
  TIMx->CCER = tmpccer;
 8003862:	6203      	str	r3, [r0, #32]
}
 8003864:	bd70      	pop	{r4, r5, r6, pc}
 8003866:	46c0      	nop			; (mov r8, r8)
 8003868:	fffffeff 	.word	0xfffffeff
 800386c:	fffffdff 	.word	0xfffffdff
 8003870:	40012c00 	.word	0x40012c00
 8003874:	fffff7ff 	.word	0xfffff7ff
 8003878:	fffffbff 	.word	0xfffffbff
 800387c:	ffffcfff 	.word	0xffffcfff
 8003880:	40014400 	.word	0x40014400
 8003884:	40014800 	.word	0x40014800

08003888 <TIM_OC4_SetConfig>:
  uint32_t tmpccmrx;
  uint32_t tmpccer;
  uint32_t tmpcr2;

  /* Disable the Channel 4: Reset the CC4E Bit */
  TIMx->CCER &= ~TIM_CCER_CC4E;
 8003888:	6a03      	ldr	r3, [r0, #32]
 800388a:	4a12      	ldr	r2, [pc, #72]	; (80038d4 <TIM_OC4_SetConfig+0x4c>)
{
 800388c:	b530      	push	{r4, r5, lr}
  TIMx->CCER &= ~TIM_CCER_CC4E;
 800388e:	4013      	ands	r3, r2
 8003890:	6203      	str	r3, [r0, #32]

  /* Get the TIMx CCER register value */
  tmpccer = TIMx->CCER;
 8003892:	6a02      	ldr	r2, [r0, #32]
  /* Get the TIMx CCMR2 register value */
  tmpccmrx = TIMx->CCMR2;

  /* Reset the Output Compare mode and Capture/Compare selection Bits */
  tmpccmrx &= ~TIM_CCMR2_OC4M;
  tmpccmrx &= ~TIM_CCMR2_CC4S;
 8003894:	4c10      	ldr	r4, [pc, #64]	; (80038d8 <TIM_OC4_SetConfig+0x50>)
  tmpcr2 =  TIMx->CR2;
 8003896:	6843      	ldr	r3, [r0, #4]
  tmpccmrx = TIMx->CCMR2;
 8003898:	69c5      	ldr	r5, [r0, #28]
  tmpccmrx &= ~TIM_CCMR2_CC4S;
 800389a:	4025      	ands	r5, r4

  /* Select the Output Compare Mode */
  tmpccmrx |= (OC_Config->OCMode << 8U);
 800389c:	680c      	ldr	r4, [r1, #0]
 800389e:	0224      	lsls	r4, r4, #8
 80038a0:	4325      	orrs	r5, r4

  /* Reset the Output Polarity level */
  tmpccer &= ~TIM_CCER_CC4P;
 80038a2:	4c0e      	ldr	r4, [pc, #56]	; (80038dc <TIM_OC4_SetConfig+0x54>)
 80038a4:	4022      	ands	r2, r4
  /* Set the Output Compare Polarity */
  tmpccer |= (OC_Config->OCPolarity << 12U);
 80038a6:	688c      	ldr	r4, [r1, #8]
 80038a8:	0324      	lsls	r4, r4, #12
 80038aa:	4322      	orrs	r2, r4

  if (IS_TIM_BREAK_INSTANCE(TIMx))
 80038ac:	4c0c      	ldr	r4, [pc, #48]	; (80038e0 <TIM_OC4_SetConfig+0x58>)
 80038ae:	42a0      	cmp	r0, r4
 80038b0:	d005      	beq.n	80038be <TIM_OC4_SetConfig+0x36>
 80038b2:	4c0c      	ldr	r4, [pc, #48]	; (80038e4 <TIM_OC4_SetConfig+0x5c>)
 80038b4:	42a0      	cmp	r0, r4
 80038b6:	d002      	beq.n	80038be <TIM_OC4_SetConfig+0x36>
 80038b8:	4c0b      	ldr	r4, [pc, #44]	; (80038e8 <TIM_OC4_SetConfig+0x60>)
 80038ba:	42a0      	cmp	r0, r4
 80038bc:	d104      	bne.n	80038c8 <TIM_OC4_SetConfig+0x40>
  {
    /* Check parameters */
    assert_param(IS_TIM_OCIDLE_STATE(OC_Config->OCIdleState));

    /* Reset the Output Compare IDLE State */
    tmpcr2 &= ~TIM_CR2_OIS4;
 80038be:	4c0b      	ldr	r4, [pc, #44]	; (80038ec <TIM_OC4_SetConfig+0x64>)
 80038c0:	4023      	ands	r3, r4

    /* Set the Output Idle state */
    tmpcr2 |= (OC_Config->OCIdleState << 6U);
 80038c2:	694c      	ldr	r4, [r1, #20]
 80038c4:	01a4      	lsls	r4, r4, #6
 80038c6:	4323      	orrs	r3, r4
  }

  /* Write to TIMx CR2 */
  TIMx->CR2 = tmpcr2;
 80038c8:	6043      	str	r3, [r0, #4]

  /* Write to TIMx CCMR2 */
  TIMx->CCMR2 = tmpccmrx;

  /* Set the Capture Compare Register value */
  TIMx->CCR4 = OC_Config->Pulse;
 80038ca:	684b      	ldr	r3, [r1, #4]
  TIMx->CCMR2 = tmpccmrx;
 80038cc:	61c5      	str	r5, [r0, #28]
  TIMx->CCR4 = OC_Config->Pulse;
 80038ce:	6403      	str	r3, [r0, #64]	; 0x40

  /* Write to TIMx CCER */
  TIMx->CCER = tmpccer;
 80038d0:	6202      	str	r2, [r0, #32]
}
 80038d2:	bd30      	pop	{r4, r5, pc}
 80038d4:	ffffefff 	.word	0xffffefff
 80038d8:	ffff8cff 	.word	0xffff8cff
 80038dc:	ffffdfff 	.word	0xffffdfff
 80038e0:	40012c00 	.word	0x40012c00
 80038e4:	40014400 	.word	0x40014400
 80038e8:	40014800 	.word	0x40014800
 80038ec:	ffffbfff 	.word	0xffffbfff

080038f0 <TIM_Base_SetConfig>:
  if (IS_TIM_COUNTER_MODE_SELECT_INSTANCE(TIMx))
 80038f0:	4a1d      	ldr	r2, [pc, #116]	; (8003968 <TIM_Base_SetConfig+0x78>)
{
 80038f2:	b510      	push	{r4, lr}
  tmpcr1 = TIMx->CR1;
 80038f4:	6803      	ldr	r3, [r0, #0]
  if (IS_TIM_COUNTER_MODE_SELECT_INSTANCE(TIMx))
 80038f6:	4290      	cmp	r0, r2
 80038f8:	d006      	beq.n	8003908 <TIM_Base_SetConfig+0x18>
 80038fa:	2480      	movs	r4, #128	; 0x80
 80038fc:	05e4      	lsls	r4, r4, #23
 80038fe:	42a0      	cmp	r0, r4
 8003900:	d002      	beq.n	8003908 <TIM_Base_SetConfig+0x18>
 8003902:	4c1a      	ldr	r4, [pc, #104]	; (800396c <TIM_Base_SetConfig+0x7c>)
 8003904:	42a0      	cmp	r0, r4
 8003906:	d10c      	bne.n	8003922 <TIM_Base_SetConfig+0x32>
    tmpcr1 &= ~(TIM_CR1_DIR | TIM_CR1_CMS);
 8003908:	2470      	movs	r4, #112	; 0x70
 800390a:	43a3      	bics	r3, r4
    tmpcr1 |= Structure->CounterMode;
 800390c:	684c      	ldr	r4, [r1, #4]
 800390e:	4323      	orrs	r3, r4
  if (IS_TIM_CLOCK_DIVISION_INSTANCE(TIMx))
 8003910:	4290      	cmp	r0, r2
 8003912:	d00f      	beq.n	8003934 <TIM_Base_SetConfig+0x44>
 8003914:	2480      	movs	r4, #128	; 0x80
 8003916:	05e4      	lsls	r4, r4, #23
 8003918:	42a0      	cmp	r0, r4
 800391a:	d00b      	beq.n	8003934 <TIM_Base_SetConfig+0x44>
 800391c:	4c13      	ldr	r4, [pc, #76]	; (800396c <TIM_Base_SetConfig+0x7c>)
 800391e:	42a0      	cmp	r0, r4
 8003920:	d008      	beq.n	8003934 <TIM_Base_SetConfig+0x44>
 8003922:	4c13      	ldr	r4, [pc, #76]	; (8003970 <TIM_Base_SetConfig+0x80>)
 8003924:	42a0      	cmp	r0, r4
 8003926:	d005      	beq.n	8003934 <TIM_Base_SetConfig+0x44>
 8003928:	4c12      	ldr	r4, [pc, #72]	; (8003974 <TIM_Base_SetConfig+0x84>)
 800392a:	42a0      	cmp	r0, r4
 800392c:	d002      	beq.n	8003934 <TIM_Base_SetConfig+0x44>
 800392e:	4c12      	ldr	r4, [pc, #72]	; (8003978 <TIM_Base_SetConfig+0x88>)
 8003930:	42a0      	cmp	r0, r4
 8003932:	d103      	bne.n	800393c <TIM_Base_SetConfig+0x4c>
    tmpcr1 &= ~TIM_CR1_CKD;
 8003934:	4c11      	ldr	r4, [pc, #68]	; (800397c <TIM_Base_SetConfig+0x8c>)
 8003936:	4023      	ands	r3, r4
    tmpcr1 |= (uint32_t)Structure->ClockDivision;
 8003938:	68cc      	ldr	r4, [r1, #12]
 800393a:	4323      	orrs	r3, r4
  MODIFY_REG(tmpcr1, TIM_CR1_ARPE, Structure->AutoReloadPreload);
 800393c:	2480      	movs	r4, #128	; 0x80
 800393e:	43a3      	bics	r3, r4
 8003940:	694c      	ldr	r4, [r1, #20]
 8003942:	4323      	orrs	r3, r4
  TIMx->CR1 = tmpcr1;
 8003944:	6003      	str	r3, [r0, #0]
  TIMx->ARR = (uint32_t)Structure->Period ;
 8003946:	688b      	ldr	r3, [r1, #8]
 8003948:	62c3      	str	r3, [r0, #44]	; 0x2c
  TIMx->PSC = Structure->Prescaler;
 800394a:	680b      	ldr	r3, [r1, #0]
 800394c:	6283      	str	r3, [r0, #40]	; 0x28
  if (IS_TIM_REPETITION_COUNTER_INSTANCE(TIMx))
 800394e:	4290      	cmp	r0, r2
 8003950:	d005      	beq.n	800395e <TIM_Base_SetConfig+0x6e>
 8003952:	4b08      	ldr	r3, [pc, #32]	; (8003974 <TIM_Base_SetConfig+0x84>)
 8003954:	4298      	cmp	r0, r3
 8003956:	d002      	beq.n	800395e <TIM_Base_SetConfig+0x6e>
 8003958:	4b07      	ldr	r3, [pc, #28]	; (8003978 <TIM_Base_SetConfig+0x88>)
 800395a:	4298      	cmp	r0, r3
 800395c:	d101      	bne.n	8003962 <TIM_Base_SetConfig+0x72>
    TIMx->RCR = Structure->RepetitionCounter;
 800395e:	690b      	ldr	r3, [r1, #16]
 8003960:	6303      	str	r3, [r0, #48]	; 0x30
  TIMx->EGR = TIM_EGR_UG;
 8003962:	2301      	movs	r3, #1
 8003964:	6143      	str	r3, [r0, #20]
}
 8003966:	bd10      	pop	{r4, pc}
 8003968:	40012c00 	.word	0x40012c00
 800396c:	40000400 	.word	0x40000400
 8003970:	40002000 	.word	0x40002000
 8003974:	40014400 	.word	0x40014400
 8003978:	40014800 	.word	0x40014800
 800397c:	fffffcff 	.word	0xfffffcff

08003980 <HAL_TIM_Base_Init>:
{
 8003980:	b570      	push	{r4, r5, r6, lr}
 8003982:	0004      	movs	r4, r0
    return HAL_ERROR;
 8003984:	2001      	movs	r0, #1
  if (htim == NULL)
 8003986:	2c00      	cmp	r4, #0
 8003988:	d021      	beq.n	80039ce <HAL_TIM_Base_Init+0x4e>
  if (htim->State == HAL_TIM_STATE_RESET)
 800398a:	0025      	movs	r5, r4
 800398c:	353d      	adds	r5, #61	; 0x3d
 800398e:	782b      	ldrb	r3, [r5, #0]
 8003990:	b2da      	uxtb	r2, r3
 8003992:	2b00      	cmp	r3, #0
 8003994:	d105      	bne.n	80039a2 <HAL_TIM_Base_Init+0x22>
    htim->Lock = HAL_UNLOCKED;
 8003996:	0023      	movs	r3, r4
 8003998:	333c      	adds	r3, #60	; 0x3c
    HAL_TIM_Base_MspInit(htim);
 800399a:	0020      	movs	r0, r4
    htim->Lock = HAL_UNLOCKED;
 800399c:	701a      	strb	r2, [r3, #0]
    HAL_TIM_Base_MspInit(htim);
 800399e:	f7fe fb29 	bl	8001ff4 <HAL_TIM_Base_MspInit>
  htim->State = HAL_TIM_STATE_BUSY;
 80039a2:	2302      	movs	r3, #2
 80039a4:	702b      	strb	r3, [r5, #0]
  TIM_Base_SetConfig(htim->Instance, &htim->Init);
 80039a6:	6820      	ldr	r0, [r4, #0]
 80039a8:	1d21      	adds	r1, r4, #4
 80039aa:	f7ff ffa1 	bl	80038f0 <TIM_Base_SetConfig>
  htim->DMABurstState = HAL_DMA_BURST_STATE_READY;
 80039ae:	0022      	movs	r2, r4
 80039b0:	2301      	movs	r3, #1
  return HAL_OK;
 80039b2:	2000      	movs	r0, #0
  htim->DMABurstState = HAL_DMA_BURST_STATE_READY;
 80039b4:	3246      	adds	r2, #70	; 0x46
 80039b6:	7013      	strb	r3, [r2, #0]
  TIM_CHANNEL_N_STATE_SET_ALL(htim, HAL_TIM_CHANNEL_STATE_READY);
 80039b8:	3445      	adds	r4, #69	; 0x45
  TIM_CHANNEL_STATE_SET_ALL(htim, HAL_TIM_CHANNEL_STATE_READY);
 80039ba:	3a08      	subs	r2, #8
 80039bc:	7013      	strb	r3, [r2, #0]
 80039be:	7053      	strb	r3, [r2, #1]
 80039c0:	7093      	strb	r3, [r2, #2]
 80039c2:	70d3      	strb	r3, [r2, #3]
  TIM_CHANNEL_N_STATE_SET_ALL(htim, HAL_TIM_CHANNEL_STATE_READY);
 80039c4:	7113      	strb	r3, [r2, #4]
 80039c6:	7153      	strb	r3, [r2, #5]
 80039c8:	7193      	strb	r3, [r2, #6]
 80039ca:	7023      	strb	r3, [r4, #0]
  htim->State = HAL_TIM_STATE_READY;
 80039cc:	702b      	strb	r3, [r5, #0]
}
 80039ce:	bd70      	pop	{r4, r5, r6, pc}

080039d0 <HAL_TIM_PWM_Init>:
{
 80039d0:	b570      	push	{r4, r5, r6, lr}
 80039d2:	0004      	movs	r4, r0
    return HAL_ERROR;
 80039d4:	2001      	movs	r0, #1
  if (htim == NULL)
 80039d6:	2c00      	cmp	r4, #0
 80039d8:	d021      	beq.n	8003a1e <HAL_TIM_PWM_Init+0x4e>
  if (htim->State == HAL_TIM_STATE_RESET)
 80039da:	0025      	movs	r5, r4
 80039dc:	353d      	adds	r5, #61	; 0x3d
 80039de:	782b      	ldrb	r3, [r5, #0]
 80039e0:	b2da      	uxtb	r2, r3
 80039e2:	2b00      	cmp	r3, #0
 80039e4:	d105      	bne.n	80039f2 <HAL_TIM_PWM_Init+0x22>
    htim->Lock = HAL_UNLOCKED;
 80039e6:	0023      	movs	r3, r4
 80039e8:	333c      	adds	r3, #60	; 0x3c
    HAL_TIM_PWM_MspInit(htim);
 80039ea:	0020      	movs	r0, r4
    htim->Lock = HAL_UNLOCKED;
 80039ec:	701a      	strb	r2, [r3, #0]
    HAL_TIM_PWM_MspInit(htim);
 80039ee:	f7fe facf 	bl	8001f90 <HAL_TIM_PWM_MspInit>
  htim->State = HAL_TIM_STATE_BUSY;
 80039f2:	2302      	movs	r3, #2
 80039f4:	702b      	strb	r3, [r5, #0]
  TIM_Base_SetConfig(htim->Instance, &htim->Init);
 80039f6:	6820      	ldr	r0, [r4, #0]
 80039f8:	1d21      	adds	r1, r4, #4
 80039fa:	f7ff ff79 	bl	80038f0 <TIM_Base_SetConfig>
  htim->DMABurstState = HAL_DMA_BURST_STATE_READY;
 80039fe:	0022      	movs	r2, r4
 8003a00:	2301      	movs	r3, #1
  return HAL_OK;
 8003a02:	2000      	movs	r0, #0
  htim->DMABurstState = HAL_DMA_BURST_STATE_READY;
 8003a04:	3246      	adds	r2, #70	; 0x46
 8003a06:	7013      	strb	r3, [r2, #0]
  TIM_CHANNEL_N_STATE_SET_ALL(htim, HAL_TIM_CHANNEL_STATE_READY);
 8003a08:	3445      	adds	r4, #69	; 0x45
  TIM_CHANNEL_STATE_SET_ALL(htim, HAL_TIM_CHANNEL_STATE_READY);
 8003a0a:	3a08      	subs	r2, #8
 8003a0c:	7013      	strb	r3, [r2, #0]
 8003a0e:	7053      	strb	r3, [r2, #1]
 8003a10:	7093      	strb	r3, [r2, #2]
 8003a12:	70d3      	strb	r3, [r2, #3]
  TIM_CHANNEL_N_STATE_SET_ALL(htim, HAL_TIM_CHANNEL_STATE_READY);
 8003a14:	7113      	strb	r3, [r2, #4]
 8003a16:	7153      	strb	r3, [r2, #5]
 8003a18:	7193      	strb	r3, [r2, #6]
 8003a1a:	7023      	strb	r3, [r4, #0]
  htim->State = HAL_TIM_STATE_READY;
 8003a1c:	702b      	strb	r3, [r5, #0]
}
 8003a1e:	bd70      	pop	{r4, r5, r6, pc}

08003a20 <TIM_OC2_SetConfig>:
  TIMx->CCER &= ~TIM_CCER_CC2E;
 8003a20:	2210      	movs	r2, #16
 8003a22:	6a03      	ldr	r3, [r0, #32]
{
 8003a24:	b570      	push	{r4, r5, r6, lr}
  TIMx->CCER &= ~TIM_CCER_CC2E;
 8003a26:	4393      	bics	r3, r2
 8003a28:	6203      	str	r3, [r0, #32]
  tmpccer = TIMx->CCER;
 8003a2a:	6a02      	ldr	r2, [r0, #32]
  tmpccmrx &= ~TIM_CCMR1_CC2S;
 8003a2c:	4c15      	ldr	r4, [pc, #84]	; (8003a84 <TIM_OC2_SetConfig+0x64>)
  tmpcr2 =  TIMx->CR2;
 8003a2e:	6843      	ldr	r3, [r0, #4]
  tmpccmrx = TIMx->CCMR1;
 8003a30:	6985      	ldr	r5, [r0, #24]
  tmpccmrx &= ~TIM_CCMR1_CC2S;
 8003a32:	4025      	ands	r5, r4
  tmpccmrx |= (OC_Config->OCMode << 8U);
 8003a34:	680c      	ldr	r4, [r1, #0]
 8003a36:	0224      	lsls	r4, r4, #8
 8003a38:	4325      	orrs	r5, r4
  tmpccer &= ~TIM_CCER_CC2P;
 8003a3a:	2420      	movs	r4, #32
 8003a3c:	43a2      	bics	r2, r4
  tmpccer |= (OC_Config->OCPolarity << 4U);
 8003a3e:	688c      	ldr	r4, [r1, #8]
 8003a40:	0124      	lsls	r4, r4, #4
 8003a42:	4322      	orrs	r2, r4
  if (IS_TIM_CCXN_INSTANCE(TIMx, TIM_CHANNEL_2))
 8003a44:	4c10      	ldr	r4, [pc, #64]	; (8003a88 <TIM_OC2_SetConfig+0x68>)
 8003a46:	42a0      	cmp	r0, r4
 8003a48:	d10f      	bne.n	8003a6a <TIM_OC2_SetConfig+0x4a>
    tmpccer &= ~TIM_CCER_CC2NP;
 8003a4a:	2480      	movs	r4, #128	; 0x80
 8003a4c:	43a2      	bics	r2, r4
 8003a4e:	0014      	movs	r4, r2
    tmpccer |= (OC_Config->OCNPolarity << 4U);
 8003a50:	68ca      	ldr	r2, [r1, #12]
 8003a52:	0112      	lsls	r2, r2, #4
 8003a54:	4322      	orrs	r2, r4
    tmpccer &= ~TIM_CCER_CC2NE;
 8003a56:	2440      	movs	r4, #64	; 0x40
 8003a58:	43a2      	bics	r2, r4
    tmpcr2 &= ~TIM_CR2_OIS2N;
 8003a5a:	4e0c      	ldr	r6, [pc, #48]	; (8003a8c <TIM_OC2_SetConfig+0x6c>)
    tmpcr2 |= (OC_Config->OCNIdleState << 2U);
 8003a5c:	694c      	ldr	r4, [r1, #20]
    tmpcr2 &= ~TIM_CR2_OIS2N;
 8003a5e:	401e      	ands	r6, r3
    tmpcr2 |= (OC_Config->OCNIdleState << 2U);
 8003a60:	698b      	ldr	r3, [r1, #24]
 8003a62:	4323      	orrs	r3, r4
 8003a64:	009b      	lsls	r3, r3, #2
 8003a66:	4333      	orrs	r3, r6
 8003a68:	e005      	b.n	8003a76 <TIM_OC2_SetConfig+0x56>
  if (IS_TIM_BREAK_INSTANCE(TIMx))
 8003a6a:	4c09      	ldr	r4, [pc, #36]	; (8003a90 <TIM_OC2_SetConfig+0x70>)
 8003a6c:	42a0      	cmp	r0, r4
 8003a6e:	d0f4      	beq.n	8003a5a <TIM_OC2_SetConfig+0x3a>
 8003a70:	4c08      	ldr	r4, [pc, #32]	; (8003a94 <TIM_OC2_SetConfig+0x74>)
 8003a72:	42a0      	cmp	r0, r4
 8003a74:	d0f1      	beq.n	8003a5a <TIM_OC2_SetConfig+0x3a>
  TIMx->CR2 = tmpcr2;
 8003a76:	6043      	str	r3, [r0, #4]
  TIMx->CCR2 = OC_Config->Pulse;
 8003a78:	684b      	ldr	r3, [r1, #4]
  TIMx->CCMR1 = tmpccmrx;
 8003a7a:	6185      	str	r5, [r0, #24]
  TIMx->CCR2 = OC_Config->Pulse;
 8003a7c:	6383      	str	r3, [r0, #56]	; 0x38
  TIMx->CCER = tmpccer;
 8003a7e:	6202      	str	r2, [r0, #32]
}
 8003a80:	bd70      	pop	{r4, r5, r6, pc}
 8003a82:	46c0      	nop			; (mov r8, r8)
 8003a84:	ffff8cff 	.word	0xffff8cff
 8003a88:	40012c00 	.word	0x40012c00
 8003a8c:	fffff3ff 	.word	0xfffff3ff
 8003a90:	40014400 	.word	0x40014400
 8003a94:	40014800 	.word	0x40014800

08003a98 <HAL_TIM_PWM_ConfigChannel>:
{
 8003a98:	b5f8      	push	{r3, r4, r5, r6, r7, lr}
  __HAL_LOCK(htim);
 8003a9a:	0007      	movs	r7, r0
 8003a9c:	373c      	adds	r7, #60	; 0x3c
 8003a9e:	783b      	ldrb	r3, [r7, #0]
{
 8003aa0:	0004      	movs	r4, r0
 8003aa2:	000e      	movs	r6, r1
 8003aa4:	0015      	movs	r5, r2
  __HAL_LOCK(htim);
 8003aa6:	2002      	movs	r0, #2
 8003aa8:	2b01      	cmp	r3, #1
 8003aaa:	d00a      	beq.n	8003ac2 <HAL_TIM_PWM_ConfigChannel+0x2a>
 8003aac:	3801      	subs	r0, #1
 8003aae:	7038      	strb	r0, [r7, #0]
  switch (Channel)
 8003ab0:	2a08      	cmp	r2, #8
 8003ab2:	d03d      	beq.n	8003b30 <HAL_TIM_PWM_ConfigChannel+0x98>
 8003ab4:	d806      	bhi.n	8003ac4 <HAL_TIM_PWM_ConfigChannel+0x2c>
 8003ab6:	2a00      	cmp	r2, #0
 8003ab8:	d017      	beq.n	8003aea <HAL_TIM_PWM_ConfigChannel+0x52>
 8003aba:	2a04      	cmp	r2, #4
 8003abc:	d027      	beq.n	8003b0e <HAL_TIM_PWM_ConfigChannel+0x76>
  __HAL_UNLOCK(htim);
 8003abe:	2300      	movs	r3, #0
 8003ac0:	703b      	strb	r3, [r7, #0]
}
 8003ac2:	bdf8      	pop	{r3, r4, r5, r6, r7, pc}
  switch (Channel)
 8003ac4:	2a0c      	cmp	r2, #12
 8003ac6:	d1fa      	bne.n	8003abe <HAL_TIM_PWM_ConfigChannel+0x26>
      TIM_OC4_SetConfig(htim->Instance, sConfig);
 8003ac8:	6820      	ldr	r0, [r4, #0]
 8003aca:	f7ff fedd 	bl	8003888 <TIM_OC4_SetConfig>
      htim->Instance->CCMR2 |= TIM_CCMR2_OC4PE;
 8003ace:	2280      	movs	r2, #128	; 0x80
 8003ad0:	6823      	ldr	r3, [r4, #0]
 8003ad2:	0112      	lsls	r2, r2, #4
 8003ad4:	69d9      	ldr	r1, [r3, #28]
 8003ad6:	430a      	orrs	r2, r1
 8003ad8:	61da      	str	r2, [r3, #28]
      htim->Instance->CCMR2 &= ~TIM_CCMR2_OC4FE;
 8003ada:	69da      	ldr	r2, [r3, #28]
 8003adc:	491c      	ldr	r1, [pc, #112]	; (8003b50 <HAL_TIM_PWM_ConfigChannel+0xb8>)
 8003ade:	400a      	ands	r2, r1
 8003ae0:	61da      	str	r2, [r3, #28]
      htim->Instance->CCMR2 |= sConfig->OCFastMode << 8U;
 8003ae2:	6932      	ldr	r2, [r6, #16]
 8003ae4:	69d9      	ldr	r1, [r3, #28]
 8003ae6:	0212      	lsls	r2, r2, #8
 8003ae8:	e02f      	b.n	8003b4a <HAL_TIM_PWM_ConfigChannel+0xb2>
      TIM_OC1_SetConfig(htim->Instance, sConfig);
 8003aea:	6820      	ldr	r0, [r4, #0]
 8003aec:	f7ff fe50 	bl	8003790 <TIM_OC1_SetConfig>
      htim->Instance->CCMR1 |= TIM_CCMR1_OC1PE;
 8003af0:	2208      	movs	r2, #8
 8003af2:	6823      	ldr	r3, [r4, #0]
 8003af4:	6999      	ldr	r1, [r3, #24]
 8003af6:	430a      	orrs	r2, r1
      htim->Instance->CCMR1 &= ~TIM_CCMR1_OC1FE;
 8003af8:	2104      	movs	r1, #4
      htim->Instance->CCMR1 |= TIM_CCMR1_OC1PE;
 8003afa:	619a      	str	r2, [r3, #24]
      htim->Instance->CCMR1 &= ~TIM_CCMR1_OC1FE;
 8003afc:	699a      	ldr	r2, [r3, #24]
 8003afe:	438a      	bics	r2, r1
 8003b00:	619a      	str	r2, [r3, #24]
      htim->Instance->CCMR1 |= sConfig->OCFastMode;
 8003b02:	699a      	ldr	r2, [r3, #24]
 8003b04:	6931      	ldr	r1, [r6, #16]
      htim->Instance->CCMR1 |= sConfig->OCFastMode << 8U;
 8003b06:	430a      	orrs	r2, r1
 8003b08:	619a      	str	r2, [r3, #24]
  HAL_StatusTypeDef status = HAL_OK;
 8003b0a:	2000      	movs	r0, #0
      break;
 8003b0c:	e7d7      	b.n	8003abe <HAL_TIM_PWM_ConfigChannel+0x26>
      TIM_OC2_SetConfig(htim->Instance, sConfig);
 8003b0e:	6820      	ldr	r0, [r4, #0]
 8003b10:	f7ff ff86 	bl	8003a20 <TIM_OC2_SetConfig>
      htim->Instance->CCMR1 |= TIM_CCMR1_OC2PE;
 8003b14:	2280      	movs	r2, #128	; 0x80
 8003b16:	6823      	ldr	r3, [r4, #0]
 8003b18:	0112      	lsls	r2, r2, #4
 8003b1a:	6999      	ldr	r1, [r3, #24]
 8003b1c:	430a      	orrs	r2, r1
 8003b1e:	619a      	str	r2, [r3, #24]
      htim->Instance->CCMR1 &= ~TIM_CCMR1_OC2FE;
 8003b20:	699a      	ldr	r2, [r3, #24]
 8003b22:	490b      	ldr	r1, [pc, #44]	; (8003b50 <HAL_TIM_PWM_ConfigChannel+0xb8>)
 8003b24:	400a      	ands	r2, r1
 8003b26:	619a      	str	r2, [r3, #24]
      htim->Instance->CCMR1 |= sConfig->OCFastMode << 8U;
 8003b28:	6932      	ldr	r2, [r6, #16]
 8003b2a:	6999      	ldr	r1, [r3, #24]
 8003b2c:	0212      	lsls	r2, r2, #8
 8003b2e:	e7ea      	b.n	8003b06 <HAL_TIM_PWM_ConfigChannel+0x6e>
      TIM_OC3_SetConfig(htim->Instance, sConfig);
 8003b30:	6820      	ldr	r0, [r4, #0]
 8003b32:	f7ff fe69 	bl	8003808 <TIM_OC3_SetConfig>
      htim->Instance->CCMR2 &= ~TIM_CCMR2_OC3FE;
 8003b36:	2104      	movs	r1, #4
      htim->Instance->CCMR2 |= TIM_CCMR2_OC3PE;
 8003b38:	6823      	ldr	r3, [r4, #0]
 8003b3a:	69da      	ldr	r2, [r3, #28]
 8003b3c:	4315      	orrs	r5, r2
 8003b3e:	61dd      	str	r5, [r3, #28]
      htim->Instance->CCMR2 &= ~TIM_CCMR2_OC3FE;
 8003b40:	69da      	ldr	r2, [r3, #28]
 8003b42:	438a      	bics	r2, r1
 8003b44:	61da      	str	r2, [r3, #28]
      htim->Instance->CCMR2 |= sConfig->OCFastMode;
 8003b46:	69da      	ldr	r2, [r3, #28]
 8003b48:	6931      	ldr	r1, [r6, #16]
      htim->Instance->CCMR2 |= sConfig->OCFastMode << 8U;
 8003b4a:	430a      	orrs	r2, r1
 8003b4c:	61da      	str	r2, [r3, #28]
 8003b4e:	e7dc      	b.n	8003b0a <HAL_TIM_PWM_ConfigChannel+0x72>
 8003b50:	fffffbff 	.word	0xfffffbff

08003b54 <TIM_TI1_SetConfig>:
  *       (on channel2 path) is used as the input signal. Therefore CCMR1 must be
  *        protected against un-initialized filter and polarity values.
  */
void TIM_TI1_SetConfig(TIM_TypeDef *TIMx, uint32_t TIM_ICPolarity, uint32_t TIM_ICSelection,
                       uint32_t TIM_ICFilter)
{
 8003b54:	b5f0      	push	{r4, r5, r6, r7, lr}
  uint32_t tmpccmr1;
  uint32_t tmpccer;

  /* Disable the Channel 1: Reset the CC1E Bit */
  TIMx->CCER &= ~TIM_CCER_CC1E;
 8003b56:	2601      	movs	r6, #1
 8003b58:	6a04      	ldr	r4, [r0, #32]
  tmpccmr1 = TIMx->CCMR1;
  tmpccer = TIMx->CCER;

  /* Select the Input */
  if (IS_TIM_CC2_INSTANCE(TIMx) != RESET)
 8003b5a:	4f10      	ldr	r7, [pc, #64]	; (8003b9c <TIM_TI1_SetConfig+0x48>)
  TIMx->CCER &= ~TIM_CCER_CC1E;
 8003b5c:	43b4      	bics	r4, r6
 8003b5e:	6204      	str	r4, [r0, #32]
{
 8003b60:	0015      	movs	r5, r2
  tmpccmr1 = TIMx->CCMR1;
 8003b62:	6982      	ldr	r2, [r0, #24]
  tmpccer = TIMx->CCER;
 8003b64:	6a04      	ldr	r4, [r0, #32]
  if (IS_TIM_CC2_INSTANCE(TIMx) != RESET)
 8003b66:	42b8      	cmp	r0, r7
 8003b68:	d014      	beq.n	8003b94 <TIM_TI1_SetConfig+0x40>
 8003b6a:	2780      	movs	r7, #128	; 0x80
 8003b6c:	05ff      	lsls	r7, r7, #23
 8003b6e:	42b8      	cmp	r0, r7
 8003b70:	d010      	beq.n	8003b94 <TIM_TI1_SetConfig+0x40>
 8003b72:	4f0b      	ldr	r7, [pc, #44]	; (8003ba0 <TIM_TI1_SetConfig+0x4c>)
 8003b74:	42b8      	cmp	r0, r7
 8003b76:	d00d      	beq.n	8003b94 <TIM_TI1_SetConfig+0x40>
    tmpccmr1 &= ~TIM_CCMR1_CC1S;
    tmpccmr1 |= TIM_ICSelection;
  }
  else
  {
    tmpccmr1 |= TIM_CCMR1_CC1S_0;
 8003b78:	4332      	orrs	r2, r6
  }

  /* Set the filter */
  tmpccmr1 &= ~TIM_CCMR1_IC1F;
 8003b7a:	25f0      	movs	r5, #240	; 0xf0
 8003b7c:	43aa      	bics	r2, r5
  tmpccmr1 |= ((TIM_ICFilter << 4U) & TIM_CCMR1_IC1F);
 8003b7e:	011b      	lsls	r3, r3, #4
 8003b80:	350f      	adds	r5, #15
 8003b82:	402b      	ands	r3, r5
 8003b84:	431a      	orrs	r2, r3

  /* Select the Polarity and set the CC1E Bit */
  tmpccer &= ~(TIM_CCER_CC1P | TIM_CCER_CC1NP);
 8003b86:	230a      	movs	r3, #10
 8003b88:	439c      	bics	r4, r3
  tmpccer |= (TIM_ICPolarity & (TIM_CCER_CC1P | TIM_CCER_CC1NP));
 8003b8a:	4019      	ands	r1, r3
 8003b8c:	4321      	orrs	r1, r4

  /* Write to TIMx CCMR1 and CCER registers */
  TIMx->CCMR1 = tmpccmr1;
 8003b8e:	6182      	str	r2, [r0, #24]
  TIMx->CCER = tmpccer;
 8003b90:	6201      	str	r1, [r0, #32]
}
 8003b92:	bdf0      	pop	{r4, r5, r6, r7, pc}
    tmpccmr1 &= ~TIM_CCMR1_CC1S;
 8003b94:	2603      	movs	r6, #3
 8003b96:	43b2      	bics	r2, r6
    tmpccmr1 |= TIM_ICSelection;
 8003b98:	432a      	orrs	r2, r5
 8003b9a:	e7ee      	b.n	8003b7a <TIM_TI1_SetConfig+0x26>
 8003b9c:	40012c00 	.word	0x40012c00
 8003ba0:	40000400 	.word	0x40000400

08003ba4 <TIM_ETR_SetConfig>:
  *          This parameter must be a value between 0x00 and 0x0F
  * @retval None
  */
void TIM_ETR_SetConfig(TIM_TypeDef *TIMx, uint32_t TIM_ExtTRGPrescaler,
                       uint32_t TIM_ExtTRGPolarity, uint32_t ExtTRGFilter)
{
 8003ba4:	b530      	push	{r4, r5, lr}
  uint32_t tmpsmcr;

  tmpsmcr = TIMx->SMCR;
 8003ba6:	6884      	ldr	r4, [r0, #8]

  /* Reset the ETR Bits */
  tmpsmcr &= ~(TIM_SMCR_ETF | TIM_SMCR_ETPS | TIM_SMCR_ECE | TIM_SMCR_ETP);
 8003ba8:	4d03      	ldr	r5, [pc, #12]	; (8003bb8 <TIM_ETR_SetConfig+0x14>)

  /* Set the Prescaler, the Filter value and the Polarity */
  tmpsmcr |= (uint32_t)(TIM_ExtTRGPrescaler | (TIM_ExtTRGPolarity | (ExtTRGFilter << 8U)));
 8003baa:	430a      	orrs	r2, r1
 8003bac:	021b      	lsls	r3, r3, #8
  tmpsmcr &= ~(TIM_SMCR_ETF | TIM_SMCR_ETPS | TIM_SMCR_ECE | TIM_SMCR_ETP);
 8003bae:	402c      	ands	r4, r5
  tmpsmcr |= (uint32_t)(TIM_ExtTRGPrescaler | (TIM_ExtTRGPolarity | (ExtTRGFilter << 8U)));
 8003bb0:	4313      	orrs	r3, r2
 8003bb2:	4323      	orrs	r3, r4

  /* Write to TIMx SMCR */
  TIMx->SMCR = tmpsmcr;
 8003bb4:	6083      	str	r3, [r0, #8]
}
 8003bb6:	bd30      	pop	{r4, r5, pc}
 8003bb8:	ffff00ff 	.word	0xffff00ff

08003bbc <HAL_TIM_ConfigClockSource>:
{
 8003bbc:	b5f8      	push	{r3, r4, r5, r6, r7, lr}
  __HAL_LOCK(htim);
 8003bbe:	0005      	movs	r5, r0
 8003bc0:	2302      	movs	r3, #2
 8003bc2:	353c      	adds	r5, #60	; 0x3c
{
 8003bc4:	0004      	movs	r4, r0
  __HAL_LOCK(htim);
 8003bc6:	7828      	ldrb	r0, [r5, #0]
 8003bc8:	001a      	movs	r2, r3
 8003bca:	2801      	cmp	r0, #1
 8003bcc:	d01d      	beq.n	8003c0a <HAL_TIM_ConfigClockSource+0x4e>
  htim->State = HAL_TIM_STATE_BUSY;
 8003bce:	0026      	movs	r6, r4
  __HAL_LOCK(htim);
 8003bd0:	2701      	movs	r7, #1
  htim->State = HAL_TIM_STATE_BUSY;
 8003bd2:	363d      	adds	r6, #61	; 0x3d
  __HAL_LOCK(htim);
 8003bd4:	702f      	strb	r7, [r5, #0]
  htim->State = HAL_TIM_STATE_BUSY;
 8003bd6:	7033      	strb	r3, [r6, #0]
  tmpsmcr = htim->Instance->SMCR;
 8003bd8:	6820      	ldr	r0, [r4, #0]
  tmpsmcr &= ~(TIM_SMCR_ETF | TIM_SMCR_ETPS | TIM_SMCR_ECE | TIM_SMCR_ETP);
 8003bda:	4a49      	ldr	r2, [pc, #292]	; (8003d00 <HAL_TIM_ConfigClockSource+0x144>)
  tmpsmcr = htim->Instance->SMCR;
 8003bdc:	6883      	ldr	r3, [r0, #8]
  tmpsmcr &= ~(TIM_SMCR_ETF | TIM_SMCR_ETPS | TIM_SMCR_ECE | TIM_SMCR_ETP);
 8003bde:	4013      	ands	r3, r2
  htim->Instance->SMCR = tmpsmcr;
 8003be0:	6083      	str	r3, [r0, #8]
  switch (sClockSourceConfig->ClockSource)
 8003be2:	680b      	ldr	r3, [r1, #0]
 8003be4:	2b60      	cmp	r3, #96	; 0x60
 8003be6:	d059      	beq.n	8003c9c <HAL_TIM_ConfigClockSource+0xe0>
 8003be8:	d835      	bhi.n	8003c56 <HAL_TIM_ConfigClockSource+0x9a>
 8003bea:	2b40      	cmp	r3, #64	; 0x40
 8003bec:	d100      	bne.n	8003bf0 <HAL_TIM_ConfigClockSource+0x34>
 8003bee:	e06e      	b.n	8003cce <HAL_TIM_ConfigClockSource+0x112>
 8003bf0:	d815      	bhi.n	8003c1e <HAL_TIM_ConfigClockSource+0x62>
 8003bf2:	2b20      	cmp	r3, #32
 8003bf4:	d00d      	beq.n	8003c12 <HAL_TIM_ConfigClockSource+0x56>
 8003bf6:	d80a      	bhi.n	8003c0e <HAL_TIM_ConfigClockSource+0x52>
 8003bf8:	2210      	movs	r2, #16
 8003bfa:	0019      	movs	r1, r3
 8003bfc:	4391      	bics	r1, r2
 8003bfe:	d008      	beq.n	8003c12 <HAL_TIM_ConfigClockSource+0x56>
 8003c00:	003a      	movs	r2, r7
  htim->State = HAL_TIM_STATE_READY;
 8003c02:	2301      	movs	r3, #1
 8003c04:	7033      	strb	r3, [r6, #0]
  __HAL_UNLOCK(htim);
 8003c06:	2300      	movs	r3, #0
 8003c08:	702b      	strb	r3, [r5, #0]
}
 8003c0a:	0010      	movs	r0, r2
 8003c0c:	bdf8      	pop	{r3, r4, r5, r6, r7, pc}
  switch (sClockSourceConfig->ClockSource)
 8003c0e:	2b30      	cmp	r3, #48	; 0x30
 8003c10:	d1f6      	bne.n	8003c00 <HAL_TIM_ConfigClockSource+0x44>
  tmpsmcr &= ~TIM_SMCR_TS;
 8003c12:	2170      	movs	r1, #112	; 0x70
  tmpsmcr = TIMx->SMCR;
 8003c14:	6882      	ldr	r2, [r0, #8]
  tmpsmcr &= ~TIM_SMCR_TS;
 8003c16:	438a      	bics	r2, r1
  tmpsmcr |= (InputTriggerSource | TIM_SLAVEMODE_EXTERNAL1);
 8003c18:	4313      	orrs	r3, r2
 8003c1a:	2207      	movs	r2, #7
 8003c1c:	e018      	b.n	8003c50 <HAL_TIM_ConfigClockSource+0x94>
  switch (sClockSourceConfig->ClockSource)
 8003c1e:	2b50      	cmp	r3, #80	; 0x50
 8003c20:	d1ee      	bne.n	8003c00 <HAL_TIM_ConfigClockSource+0x44>
      TIM_TI1_ConfigInputStage(htim->Instance,
 8003c22:	68ca      	ldr	r2, [r1, #12]
 8003c24:	684c      	ldr	r4, [r1, #4]
  tmpccer = TIMx->CCER;
 8003c26:	6a01      	ldr	r1, [r0, #32]
  TIMx->CCER &= ~TIM_CCER_CC1E;
 8003c28:	6a03      	ldr	r3, [r0, #32]
 8003c2a:	43bb      	bics	r3, r7
  tmpccmr1 &= ~TIM_CCMR1_IC1F;
 8003c2c:	27f0      	movs	r7, #240	; 0xf0
  TIMx->CCER &= ~TIM_CCER_CC1E;
 8003c2e:	6203      	str	r3, [r0, #32]
  tmpccmr1 = TIMx->CCMR1;
 8003c30:	6983      	ldr	r3, [r0, #24]
  tmpccmr1 &= ~TIM_CCMR1_IC1F;
 8003c32:	43bb      	bics	r3, r7
 8003c34:	001f      	movs	r7, r3
  tmpccmr1 |= (TIM_ICFilter << 4U);
 8003c36:	0113      	lsls	r3, r2, #4
  tmpccer &= ~(TIM_CCER_CC1P | TIM_CCER_CC1NP);
 8003c38:	220a      	movs	r2, #10
 8003c3a:	4391      	bics	r1, r2
 8003c3c:	000a      	movs	r2, r1
  tmpccmr1 |= (TIM_ICFilter << 4U);
 8003c3e:	433b      	orrs	r3, r7
  tmpccer |= TIM_ICPolarity;
 8003c40:	4322      	orrs	r2, r4
  TIMx->CCMR1 = tmpccmr1;
 8003c42:	6183      	str	r3, [r0, #24]
  TIMx->CCER = tmpccer;
 8003c44:	6202      	str	r2, [r0, #32]
  tmpsmcr &= ~TIM_SMCR_TS;
 8003c46:	2270      	movs	r2, #112	; 0x70
  tmpsmcr = TIMx->SMCR;
 8003c48:	6883      	ldr	r3, [r0, #8]
  tmpsmcr &= ~TIM_SMCR_TS;
 8003c4a:	4393      	bics	r3, r2
 8003c4c:	001a      	movs	r2, r3
  tmpsmcr |= (InputTriggerSource | TIM_SLAVEMODE_EXTERNAL1);
 8003c4e:	2357      	movs	r3, #87	; 0x57
 8003c50:	4313      	orrs	r3, r2
  TIMx->SMCR = tmpsmcr;
 8003c52:	6083      	str	r3, [r0, #8]
 8003c54:	e016      	b.n	8003c84 <HAL_TIM_ConfigClockSource+0xc8>
  switch (sClockSourceConfig->ClockSource)
 8003c56:	2280      	movs	r2, #128	; 0x80
 8003c58:	0152      	lsls	r2, r2, #5
 8003c5a:	4694      	mov	ip, r2
  HAL_StatusTypeDef status = HAL_OK;
 8003c5c:	2200      	movs	r2, #0
  switch (sClockSourceConfig->ClockSource)
 8003c5e:	4563      	cmp	r3, ip
 8003c60:	d0cf      	beq.n	8003c02 <HAL_TIM_ConfigClockSource+0x46>
 8003c62:	2280      	movs	r2, #128	; 0x80
 8003c64:	0192      	lsls	r2, r2, #6
 8003c66:	4293      	cmp	r3, r2
 8003c68:	d00e      	beq.n	8003c88 <HAL_TIM_ConfigClockSource+0xcc>
 8003c6a:	003a      	movs	r2, r7
 8003c6c:	2b70      	cmp	r3, #112	; 0x70
 8003c6e:	d1c8      	bne.n	8003c02 <HAL_TIM_ConfigClockSource+0x46>
      TIM_ETR_SetConfig(htim->Instance,
 8003c70:	68cb      	ldr	r3, [r1, #12]
 8003c72:	684a      	ldr	r2, [r1, #4]
 8003c74:	6889      	ldr	r1, [r1, #8]
 8003c76:	f7ff ff95 	bl	8003ba4 <TIM_ETR_SetConfig>
      tmpsmcr |= (TIM_SLAVEMODE_EXTERNAL1 | TIM_CLOCKSOURCE_ETRMODE1);
 8003c7a:	2377      	movs	r3, #119	; 0x77
      tmpsmcr = htim->Instance->SMCR;
 8003c7c:	6822      	ldr	r2, [r4, #0]
 8003c7e:	6891      	ldr	r1, [r2, #8]
      htim->Instance->SMCR |= TIM_SMCR_ECE;
 8003c80:	430b      	orrs	r3, r1
 8003c82:	6093      	str	r3, [r2, #8]
  HAL_StatusTypeDef status = HAL_OK;
 8003c84:	2200      	movs	r2, #0
}
 8003c86:	e7bc      	b.n	8003c02 <HAL_TIM_ConfigClockSource+0x46>
      TIM_ETR_SetConfig(htim->Instance,
 8003c88:	68cb      	ldr	r3, [r1, #12]
 8003c8a:	684a      	ldr	r2, [r1, #4]
 8003c8c:	6889      	ldr	r1, [r1, #8]
 8003c8e:	f7ff ff89 	bl	8003ba4 <TIM_ETR_SetConfig>
      htim->Instance->SMCR |= TIM_SMCR_ECE;
 8003c92:	2380      	movs	r3, #128	; 0x80
 8003c94:	6822      	ldr	r2, [r4, #0]
 8003c96:	01db      	lsls	r3, r3, #7
 8003c98:	6891      	ldr	r1, [r2, #8]
 8003c9a:	e7f1      	b.n	8003c80 <HAL_TIM_ConfigClockSource+0xc4>
      TIM_TI2_ConfigInputStage(htim->Instance,
 8003c9c:	684a      	ldr	r2, [r1, #4]
 8003c9e:	68cf      	ldr	r7, [r1, #12]
  TIMx->CCER &= ~TIM_CCER_CC2E;
 8003ca0:	2110      	movs	r1, #16
 8003ca2:	6a03      	ldr	r3, [r0, #32]
  tmpccmr1 &= ~TIM_CCMR1_IC2F;
 8003ca4:	4c17      	ldr	r4, [pc, #92]	; (8003d04 <HAL_TIM_ConfigClockSource+0x148>)
  TIMx->CCER &= ~TIM_CCER_CC2E;
 8003ca6:	438b      	bics	r3, r1
 8003ca8:	6203      	str	r3, [r0, #32]
  tmpccmr1 = TIMx->CCMR1;
 8003caa:	6981      	ldr	r1, [r0, #24]
  tmpccer = TIMx->CCER;
 8003cac:	6a03      	ldr	r3, [r0, #32]
  tmpccmr1 &= ~TIM_CCMR1_IC2F;
 8003cae:	4021      	ands	r1, r4
  tmpccer &= ~(TIM_CCER_CC2P | TIM_CCER_CC2NP);
 8003cb0:	24a0      	movs	r4, #160	; 0xa0
 8003cb2:	43a3      	bics	r3, r4
 8003cb4:	001c      	movs	r4, r3
  tmpccer |= (TIM_ICPolarity << 4U);
 8003cb6:	0113      	lsls	r3, r2, #4
  tmpsmcr &= ~TIM_SMCR_TS;
 8003cb8:	2270      	movs	r2, #112	; 0x70
  tmpccmr1 |= (TIM_ICFilter << 12U);
 8003cba:	033f      	lsls	r7, r7, #12
  tmpccer |= (TIM_ICPolarity << 4U);
 8003cbc:	4323      	orrs	r3, r4
  tmpccmr1 |= (TIM_ICFilter << 12U);
 8003cbe:	4339      	orrs	r1, r7
  TIMx->CCMR1 = tmpccmr1 ;
 8003cc0:	6181      	str	r1, [r0, #24]
  TIMx->CCER = tmpccer;
 8003cc2:	6203      	str	r3, [r0, #32]
  tmpsmcr = TIMx->SMCR;
 8003cc4:	6883      	ldr	r3, [r0, #8]
  tmpsmcr &= ~TIM_SMCR_TS;
 8003cc6:	4393      	bics	r3, r2
 8003cc8:	001a      	movs	r2, r3
  tmpsmcr |= (InputTriggerSource | TIM_SLAVEMODE_EXTERNAL1);
 8003cca:	2367      	movs	r3, #103	; 0x67
 8003ccc:	e7c0      	b.n	8003c50 <HAL_TIM_ConfigClockSource+0x94>
      TIM_TI1_ConfigInputStage(htim->Instance,
 8003cce:	68ca      	ldr	r2, [r1, #12]
 8003cd0:	684c      	ldr	r4, [r1, #4]
  tmpccer = TIMx->CCER;
 8003cd2:	6a01      	ldr	r1, [r0, #32]
  TIMx->CCER &= ~TIM_CCER_CC1E;
 8003cd4:	6a03      	ldr	r3, [r0, #32]
 8003cd6:	43bb      	bics	r3, r7
  tmpccmr1 &= ~TIM_CCMR1_IC1F;
 8003cd8:	27f0      	movs	r7, #240	; 0xf0
  TIMx->CCER &= ~TIM_CCER_CC1E;
 8003cda:	6203      	str	r3, [r0, #32]
  tmpccmr1 = TIMx->CCMR1;
 8003cdc:	6983      	ldr	r3, [r0, #24]
  tmpccmr1 &= ~TIM_CCMR1_IC1F;
 8003cde:	43bb      	bics	r3, r7
 8003ce0:	001f      	movs	r7, r3
  tmpccmr1 |= (TIM_ICFilter << 4U);
 8003ce2:	0113      	lsls	r3, r2, #4
  tmpccer &= ~(TIM_CCER_CC1P | TIM_CCER_CC1NP);
 8003ce4:	220a      	movs	r2, #10
 8003ce6:	4391      	bics	r1, r2
 8003ce8:	000a      	movs	r2, r1
  tmpccmr1 |= (TIM_ICFilter << 4U);
 8003cea:	433b      	orrs	r3, r7
  tmpccer |= TIM_ICPolarity;
 8003cec:	4322      	orrs	r2, r4
  TIMx->CCMR1 = tmpccmr1;
 8003cee:	6183      	str	r3, [r0, #24]
  TIMx->CCER = tmpccer;
 8003cf0:	6202      	str	r2, [r0, #32]
  tmpsmcr &= ~TIM_SMCR_TS;
 8003cf2:	2270      	movs	r2, #112	; 0x70
  tmpsmcr = TIMx->SMCR;
 8003cf4:	6883      	ldr	r3, [r0, #8]
  tmpsmcr &= ~TIM_SMCR_TS;
 8003cf6:	4393      	bics	r3, r2
 8003cf8:	001a      	movs	r2, r3
  tmpsmcr |= (InputTriggerSource | TIM_SLAVEMODE_EXTERNAL1);
 8003cfa:	2347      	movs	r3, #71	; 0x47
 8003cfc:	e7a8      	b.n	8003c50 <HAL_TIM_ConfigClockSource+0x94>
 8003cfe:	46c0      	nop			; (mov r8, r8)
 8003d00:	ffff0088 	.word	0xffff0088
 8003d04:	ffff0fff 	.word	0xffff0fff

08003d08 <TIM_CCxChannelCmd>:

  /* Check the parameters */
  assert_param(IS_TIM_CC1_INSTANCE(TIMx));
  assert_param(IS_TIM_CHANNELS(Channel));

  tmp = TIM_CCER_CC1E << (Channel & 0x1FU); /* 0x1FU = 31 bits max shift */
 8003d08:	231f      	movs	r3, #31
{
 8003d0a:	b510      	push	{r4, lr}
  tmp = TIM_CCER_CC1E << (Channel & 0x1FU); /* 0x1FU = 31 bits max shift */
 8003d0c:	2401      	movs	r4, #1
 8003d0e:	4019      	ands	r1, r3
 8003d10:	408c      	lsls	r4, r1

  /* Reset the CCxE Bit */
  TIMx->CCER &= ~tmp;

  /* Set or reset the CCxE Bit */
  TIMx->CCER |= (uint32_t)(ChannelState << (Channel & 0x1FU)); /* 0x1FU = 31 bits max shift */
 8003d12:	408a      	lsls	r2, r1
  TIMx->CCER &= ~tmp;
 8003d14:	6a03      	ldr	r3, [r0, #32]
 8003d16:	43a3      	bics	r3, r4
 8003d18:	6203      	str	r3, [r0, #32]
  TIMx->CCER |= (uint32_t)(ChannelState << (Channel & 0x1FU)); /* 0x1FU = 31 bits max shift */
 8003d1a:	6a03      	ldr	r3, [r0, #32]
 8003d1c:	431a      	orrs	r2, r3
 8003d1e:	6202      	str	r2, [r0, #32]
}
 8003d20:	bd10      	pop	{r4, pc}
	...

08003d24 <HAL_TIM_OC_Start>:
{
 8003d24:	b510      	push	{r4, lr}
  if (TIM_CHANNEL_STATE_GET(htim, Channel) != HAL_TIM_CHANNEL_STATE_READY)
 8003d26:	0003      	movs	r3, r0
{
 8003d28:	0004      	movs	r4, r0
  if (TIM_CHANNEL_STATE_GET(htim, Channel) != HAL_TIM_CHANNEL_STATE_READY)
 8003d2a:	2900      	cmp	r1, #0
 8003d2c:	d105      	bne.n	8003d3a <HAL_TIM_OC_Start+0x16>
    return HAL_ERROR;
 8003d2e:	2001      	movs	r0, #1
  if (TIM_CHANNEL_STATE_GET(htim, Channel) != HAL_TIM_CHANNEL_STATE_READY)
 8003d30:	333e      	adds	r3, #62	; 0x3e
 8003d32:	781a      	ldrb	r2, [r3, #0]
 8003d34:	4282      	cmp	r2, r0
 8003d36:	d018      	beq.n	8003d6a <HAL_TIM_OC_Start+0x46>
}
 8003d38:	bd10      	pop	{r4, pc}
  if (TIM_CHANNEL_STATE_GET(htim, Channel) != HAL_TIM_CHANNEL_STATE_READY)
 8003d3a:	2904      	cmp	r1, #4
 8003d3c:	d10f      	bne.n	8003d5e <HAL_TIM_OC_Start+0x3a>
 8003d3e:	333f      	adds	r3, #63	; 0x3f
 8003d40:	781b      	ldrb	r3, [r3, #0]
    return HAL_ERROR;
 8003d42:	2001      	movs	r0, #1
  if (TIM_CHANNEL_STATE_GET(htim, Channel) != HAL_TIM_CHANNEL_STATE_READY)
 8003d44:	3b01      	subs	r3, #1
 8003d46:	1e5a      	subs	r2, r3, #1
 8003d48:	4193      	sbcs	r3, r2
 8003d4a:	b2db      	uxtb	r3, r3
 8003d4c:	2b00      	cmp	r3, #0
 8003d4e:	d1f3      	bne.n	8003d38 <HAL_TIM_OC_Start+0x14>
  TIM_CHANNEL_STATE_SET(htim, Channel, HAL_TIM_CHANNEL_STATE_BUSY);
 8003d50:	2302      	movs	r3, #2
 8003d52:	0022      	movs	r2, r4
 8003d54:	2904      	cmp	r1, #4
 8003d56:	d123      	bne.n	8003da0 <HAL_TIM_OC_Start+0x7c>
 8003d58:	323f      	adds	r2, #63	; 0x3f
 8003d5a:	7013      	strb	r3, [r2, #0]
 8003d5c:	e007      	b.n	8003d6e <HAL_TIM_OC_Start+0x4a>
  if (TIM_CHANNEL_STATE_GET(htim, Channel) != HAL_TIM_CHANNEL_STATE_READY)
 8003d5e:	2908      	cmp	r1, #8
 8003d60:	d101      	bne.n	8003d66 <HAL_TIM_OC_Start+0x42>
 8003d62:	3340      	adds	r3, #64	; 0x40
 8003d64:	e7ec      	b.n	8003d40 <HAL_TIM_OC_Start+0x1c>
 8003d66:	3341      	adds	r3, #65	; 0x41
 8003d68:	e7ea      	b.n	8003d40 <HAL_TIM_OC_Start+0x1c>
  TIM_CHANNEL_STATE_SET(htim, Channel, HAL_TIM_CHANNEL_STATE_BUSY);
 8003d6a:	2202      	movs	r2, #2
 8003d6c:	701a      	strb	r2, [r3, #0]
  TIM_CCxChannelCmd(htim->Instance, Channel, TIM_CCx_ENABLE);
 8003d6e:	2201      	movs	r2, #1
 8003d70:	6820      	ldr	r0, [r4, #0]
 8003d72:	f7ff ffc9 	bl	8003d08 <TIM_CCxChannelCmd>
  if (IS_TIM_BREAK_INSTANCE(htim->Instance) != RESET)
 8003d76:	6823      	ldr	r3, [r4, #0]
 8003d78:	4914      	ldr	r1, [pc, #80]	; (8003dcc <HAL_TIM_OC_Start+0xa8>)
 8003d7a:	428b      	cmp	r3, r1
 8003d7c:	d016      	beq.n	8003dac <HAL_TIM_OC_Start+0x88>
 8003d7e:	4a14      	ldr	r2, [pc, #80]	; (8003dd0 <HAL_TIM_OC_Start+0xac>)
 8003d80:	4293      	cmp	r3, r2
 8003d82:	d013      	beq.n	8003dac <HAL_TIM_OC_Start+0x88>
 8003d84:	4a13      	ldr	r2, [pc, #76]	; (8003dd4 <HAL_TIM_OC_Start+0xb0>)
 8003d86:	4293      	cmp	r3, r2
 8003d88:	d010      	beq.n	8003dac <HAL_TIM_OC_Start+0x88>
  if (IS_TIM_SLAVE_INSTANCE(htim->Instance))
 8003d8a:	2280      	movs	r2, #128	; 0x80
 8003d8c:	05d2      	lsls	r2, r2, #23
 8003d8e:	4293      	cmp	r3, r2
 8003d90:	d114      	bne.n	8003dbc <HAL_TIM_OC_Start+0x98>
    tmpsmcr = htim->Instance->SMCR & TIM_SMCR_SMS;
 8003d92:	2107      	movs	r1, #7
 8003d94:	689a      	ldr	r2, [r3, #8]
 8003d96:	400a      	ands	r2, r1
    if (!IS_TIM_SLAVEMODE_TRIGGER_ENABLED(tmpsmcr))
 8003d98:	2a06      	cmp	r2, #6
 8003d9a:	d112      	bne.n	8003dc2 <HAL_TIM_OC_Start+0x9e>
  return HAL_OK;
 8003d9c:	2000      	movs	r0, #0
 8003d9e:	e7cb      	b.n	8003d38 <HAL_TIM_OC_Start+0x14>
  TIM_CHANNEL_STATE_SET(htim, Channel, HAL_TIM_CHANNEL_STATE_BUSY);
 8003da0:	2908      	cmp	r1, #8
 8003da2:	d101      	bne.n	8003da8 <HAL_TIM_OC_Start+0x84>
 8003da4:	3240      	adds	r2, #64	; 0x40
 8003da6:	e7d8      	b.n	8003d5a <HAL_TIM_OC_Start+0x36>
 8003da8:	3241      	adds	r2, #65	; 0x41
 8003daa:	e7d6      	b.n	8003d5a <HAL_TIM_OC_Start+0x36>
    __HAL_TIM_MOE_ENABLE(htim);
 8003dac:	2280      	movs	r2, #128	; 0x80
 8003dae:	6c58      	ldr	r0, [r3, #68]	; 0x44
 8003db0:	0212      	lsls	r2, r2, #8
 8003db2:	4302      	orrs	r2, r0
 8003db4:	645a      	str	r2, [r3, #68]	; 0x44
  if (IS_TIM_SLAVE_INSTANCE(htim->Instance))
 8003db6:	428b      	cmp	r3, r1
 8003db8:	d1e7      	bne.n	8003d8a <HAL_TIM_OC_Start+0x66>
 8003dba:	e7ea      	b.n	8003d92 <HAL_TIM_OC_Start+0x6e>
 8003dbc:	4a06      	ldr	r2, [pc, #24]	; (8003dd8 <HAL_TIM_OC_Start+0xb4>)
 8003dbe:	4293      	cmp	r3, r2
 8003dc0:	d0e7      	beq.n	8003d92 <HAL_TIM_OC_Start+0x6e>
      __HAL_TIM_ENABLE(htim);
 8003dc2:	2201      	movs	r2, #1
 8003dc4:	6819      	ldr	r1, [r3, #0]
 8003dc6:	430a      	orrs	r2, r1
 8003dc8:	601a      	str	r2, [r3, #0]
 8003dca:	e7e7      	b.n	8003d9c <HAL_TIM_OC_Start+0x78>
 8003dcc:	40012c00 	.word	0x40012c00
 8003dd0:	40014400 	.word	0x40014400
 8003dd4:	40014800 	.word	0x40014800
 8003dd8:	40000400 	.word	0x40000400

08003ddc <HAL_TIM_PWM_Start>:
 8003ddc:	b510      	push	{r4, lr}
 8003dde:	f7ff ffa1 	bl	8003d24 <HAL_TIM_OC_Start>
 8003de2:	bd10      	pop	{r4, pc}

08003de4 <HAL_TIMEx_HallSensor_MspInit>:
  UNUSED(htim);

  /* NOTE : This function should not be modified, when the callback is needed,
            the HAL_TIMEx_HallSensor_MspInit could be implemented in the user file
   */
}
 8003de4:	4770      	bx	lr

08003de6 <HAL_TIMEx_HallSensor_Init>:
{
 8003de6:	b5f0      	push	{r4, r5, r6, r7, lr}
 8003de8:	0004      	movs	r4, r0
 8003dea:	000e      	movs	r6, r1
    return HAL_ERROR;
 8003dec:	2001      	movs	r0, #1
{
 8003dee:	b08b      	sub	sp, #44	; 0x2c
  if (htim == NULL)
 8003df0:	2c00      	cmp	r4, #0
 8003df2:	d058      	beq.n	8003ea6 <HAL_TIMEx_HallSensor_Init+0xc0>
  if (htim->State == HAL_TIM_STATE_RESET)
 8003df4:	0023      	movs	r3, r4
 8003df6:	333d      	adds	r3, #61	; 0x3d
 8003df8:	9300      	str	r3, [sp, #0]
 8003dfa:	781b      	ldrb	r3, [r3, #0]
 8003dfc:	b2da      	uxtb	r2, r3
 8003dfe:	2b00      	cmp	r3, #0
 8003e00:	d105      	bne.n	8003e0e <HAL_TIMEx_HallSensor_Init+0x28>
    htim->Lock = HAL_UNLOCKED;
 8003e02:	0023      	movs	r3, r4
 8003e04:	333c      	adds	r3, #60	; 0x3c
    HAL_TIMEx_HallSensor_MspInit(htim);
 8003e06:	0020      	movs	r0, r4
    htim->Lock = HAL_UNLOCKED;
 8003e08:	701a      	strb	r2, [r3, #0]
    HAL_TIMEx_HallSensor_MspInit(htim);
 8003e0a:	f7ff ffeb 	bl	8003de4 <HAL_TIMEx_HallSensor_MspInit>
  htim->State = HAL_TIM_STATE_BUSY;
 8003e0e:	2302      	movs	r3, #2
 8003e10:	9a00      	ldr	r2, [sp, #0]
  TIM_Base_SetConfig(htim->Instance, &htim->Init);
 8003e12:	1d21      	adds	r1, r4, #4
  htim->State = HAL_TIM_STATE_BUSY;
 8003e14:	7013      	strb	r3, [r2, #0]
  TIM_Base_SetConfig(htim->Instance, &htim->Init);
 8003e16:	6820      	ldr	r0, [r4, #0]
 8003e18:	f7ff fd6a 	bl	80038f0 <TIM_Base_SetConfig>
  TIM_TI1_SetConfig(htim->Instance, sConfig->IC1Polarity, TIM_ICSELECTION_TRC, sConfig->IC1Filter);
 8003e1c:	6820      	ldr	r0, [r4, #0]
 8003e1e:	2203      	movs	r2, #3
 8003e20:	68b3      	ldr	r3, [r6, #8]
 8003e22:	6831      	ldr	r1, [r6, #0]
 8003e24:	f7ff fe96 	bl	8003b54 <TIM_TI1_SetConfig>
  htim->Instance->CCMR1 &= ~TIM_CCMR1_IC1PSC;
 8003e28:	220c      	movs	r2, #12
 8003e2a:	6820      	ldr	r0, [r4, #0]
  htim->Instance->SMCR &= ~TIM_SMCR_TS;
 8003e2c:	2770      	movs	r7, #112	; 0x70
  htim->Instance->CCMR1 &= ~TIM_CCMR1_IC1PSC;
 8003e2e:	6983      	ldr	r3, [r0, #24]
  OC_Config.OCFastMode = TIM_OCFAST_DISABLE;
 8003e30:	2500      	movs	r5, #0
  htim->Instance->CCMR1 &= ~TIM_CCMR1_IC1PSC;
 8003e32:	4393      	bics	r3, r2
 8003e34:	6183      	str	r3, [r0, #24]
  htim->Instance->CCMR1 |= sConfig->IC1Prescaler;
 8003e36:	6983      	ldr	r3, [r0, #24]
 8003e38:	6872      	ldr	r2, [r6, #4]
  TIM_OC2_SetConfig(htim->Instance, &OC_Config);
 8003e3a:	a903      	add	r1, sp, #12
  htim->Instance->CCMR1 |= sConfig->IC1Prescaler;
 8003e3c:	4313      	orrs	r3, r2
 8003e3e:	6183      	str	r3, [r0, #24]
  htim->Instance->CR2 |= TIM_CR2_TI1S;
 8003e40:	2380      	movs	r3, #128	; 0x80
 8003e42:	6842      	ldr	r2, [r0, #4]
  OC_Config.OCMode = TIM_OCMODE_PWM2;
 8003e44:	9703      	str	r7, [sp, #12]
  htim->Instance->CR2 |= TIM_CR2_TI1S;
 8003e46:	4313      	orrs	r3, r2
 8003e48:	6043      	str	r3, [r0, #4]
  htim->Instance->SMCR &= ~TIM_SMCR_TS;
 8003e4a:	6883      	ldr	r3, [r0, #8]
 8003e4c:	43bb      	bics	r3, r7
 8003e4e:	6083      	str	r3, [r0, #8]
  htim->Instance->SMCR |= TIM_TS_TI1F_ED;
 8003e50:	2340      	movs	r3, #64	; 0x40
 8003e52:	6882      	ldr	r2, [r0, #8]
 8003e54:	4313      	orrs	r3, r2
  htim->Instance->SMCR &= ~TIM_SMCR_SMS;
 8003e56:	2207      	movs	r2, #7
  htim->Instance->SMCR |= TIM_TS_TI1F_ED;
 8003e58:	6083      	str	r3, [r0, #8]
  htim->Instance->SMCR &= ~TIM_SMCR_SMS;
 8003e5a:	6883      	ldr	r3, [r0, #8]
 8003e5c:	4393      	bics	r3, r2
 8003e5e:	6083      	str	r3, [r0, #8]
  htim->Instance->SMCR |= TIM_SLAVEMODE_RESET;
 8003e60:	2304      	movs	r3, #4
 8003e62:	6882      	ldr	r2, [r0, #8]
 8003e64:	4313      	orrs	r3, r2
 8003e66:	6083      	str	r3, [r0, #8]
  OC_Config.Pulse = sConfig->Commutation_Delay;
 8003e68:	68f3      	ldr	r3, [r6, #12]
  OC_Config.OCFastMode = TIM_OCFAST_DISABLE;
 8003e6a:	9507      	str	r5, [sp, #28]
  OC_Config.Pulse = sConfig->Commutation_Delay;
 8003e6c:	9301      	str	r3, [sp, #4]
 8003e6e:	9304      	str	r3, [sp, #16]
  OC_Config.OCIdleState = TIM_OCIDLESTATE_RESET;
 8003e70:	9508      	str	r5, [sp, #32]
  OC_Config.OCNIdleState = TIM_OCNIDLESTATE_RESET;
 8003e72:	9509      	str	r5, [sp, #36]	; 0x24
  OC_Config.OCNPolarity = TIM_OCNPOLARITY_HIGH;
 8003e74:	9506      	str	r5, [sp, #24]
  OC_Config.OCPolarity = TIM_OCPOLARITY_HIGH;
 8003e76:	9505      	str	r5, [sp, #20]
  TIM_OC2_SetConfig(htim->Instance, &OC_Config);
 8003e78:	f7ff fdd2 	bl	8003a20 <TIM_OC2_SetConfig>
  htim->Instance->CR2 &= ~TIM_CR2_MMS;
 8003e7c:	6823      	ldr	r3, [r4, #0]
  return HAL_OK;
 8003e7e:	0028      	movs	r0, r5
  htim->Instance->CR2 &= ~TIM_CR2_MMS;
 8003e80:	685a      	ldr	r2, [r3, #4]
 8003e82:	43ba      	bics	r2, r7
 8003e84:	605a      	str	r2, [r3, #4]
  htim->Instance->CR2 |= TIM_TRGO_OC2REF;
 8003e86:	2250      	movs	r2, #80	; 0x50
 8003e88:	6859      	ldr	r1, [r3, #4]
 8003e8a:	430a      	orrs	r2, r1
 8003e8c:	605a      	str	r2, [r3, #4]
  htim->DMABurstState = HAL_DMA_BURST_STATE_READY;
 8003e8e:	0022      	movs	r2, r4
 8003e90:	2301      	movs	r3, #1
 8003e92:	3246      	adds	r2, #70	; 0x46
 8003e94:	7013      	strb	r3, [r2, #0]
  TIM_CHANNEL_STATE_SET(htim, TIM_CHANNEL_1, HAL_TIM_CHANNEL_STATE_READY);
 8003e96:	3a08      	subs	r2, #8
 8003e98:	7013      	strb	r3, [r2, #0]
  TIM_CHANNEL_STATE_SET(htim, TIM_CHANNEL_2, HAL_TIM_CHANNEL_STATE_READY);
 8003e9a:	7053      	strb	r3, [r2, #1]
  TIM_CHANNEL_N_STATE_SET(htim, TIM_CHANNEL_1, HAL_TIM_CHANNEL_STATE_READY);
 8003e9c:	7113      	strb	r3, [r2, #4]
  htim->State = HAL_TIM_STATE_READY;
 8003e9e:	9a00      	ldr	r2, [sp, #0]
  TIM_CHANNEL_N_STATE_SET(htim, TIM_CHANNEL_2, HAL_TIM_CHANNEL_STATE_READY);
 8003ea0:	3443      	adds	r4, #67	; 0x43
 8003ea2:	7023      	strb	r3, [r4, #0]
  htim->State = HAL_TIM_STATE_READY;
 8003ea4:	7013      	strb	r3, [r2, #0]
}
 8003ea6:	b00b      	add	sp, #44	; 0x2c
 8003ea8:	bdf0      	pop	{r4, r5, r6, r7, pc}
	...

08003eac <HAL_TIMEx_MasterConfigSynchronization>:
  *         mode.
  * @retval HAL status
  */
HAL_StatusTypeDef HAL_TIMEx_MasterConfigSynchronization(TIM_HandleTypeDef *htim,
                                                        TIM_MasterConfigTypeDef *sMasterConfig)
{
 8003eac:	b570      	push	{r4, r5, r6, lr}
  assert_param(IS_TIM_MASTER_INSTANCE(htim->Instance));
  assert_param(IS_TIM_TRGO_SOURCE(sMasterConfig->MasterOutputTrigger));
  assert_param(IS_TIM_MSM_STATE(sMasterConfig->MasterSlaveMode));

  /* Check input state */
  __HAL_LOCK(htim);
 8003eae:	0004      	movs	r4, r0
 8003eb0:	2202      	movs	r2, #2
 8003eb2:	343c      	adds	r4, #60	; 0x3c
 8003eb4:	7825      	ldrb	r5, [r4, #0]
{
 8003eb6:	0003      	movs	r3, r0
  __HAL_LOCK(htim);
 8003eb8:	0010      	movs	r0, r2
 8003eba:	2d01      	cmp	r5, #1
 8003ebc:	d01d      	beq.n	8003efa <HAL_TIMEx_MasterConfigSynchronization+0x4e>

  /* Change the handler state */
  htim->State = HAL_TIM_STATE_BUSY;
 8003ebe:	001d      	movs	r5, r3

  /* Get the TIMx SMCR register value */
  tmpsmcr = htim->Instance->SMCR;

  /* Reset the MMS Bits */
  tmpcr2 &= ~TIM_CR2_MMS;
 8003ec0:	2670      	movs	r6, #112	; 0x70
  htim->State = HAL_TIM_STATE_BUSY;
 8003ec2:	353d      	adds	r5, #61	; 0x3d
 8003ec4:	702a      	strb	r2, [r5, #0]
  tmpcr2 = htim->Instance->CR2;
 8003ec6:	681b      	ldr	r3, [r3, #0]
 8003ec8:	6858      	ldr	r0, [r3, #4]
  tmpsmcr = htim->Instance->SMCR;
 8003eca:	689a      	ldr	r2, [r3, #8]
  tmpcr2 &= ~TIM_CR2_MMS;
 8003ecc:	43b0      	bics	r0, r6
  /* Select the TRGO source */
  tmpcr2 |=  sMasterConfig->MasterOutputTrigger;
 8003ece:	680e      	ldr	r6, [r1, #0]
 8003ed0:	4330      	orrs	r0, r6

  /* Update TIMx CR2 */
  htim->Instance->CR2 = tmpcr2;
 8003ed2:	6058      	str	r0, [r3, #4]

  if (IS_TIM_SLAVE_INSTANCE(htim->Instance))
 8003ed4:	4809      	ldr	r0, [pc, #36]	; (8003efc <HAL_TIMEx_MasterConfigSynchronization+0x50>)
 8003ed6:	4283      	cmp	r3, r0
 8003ed8:	d006      	beq.n	8003ee8 <HAL_TIMEx_MasterConfigSynchronization+0x3c>
 8003eda:	2080      	movs	r0, #128	; 0x80
 8003edc:	05c0      	lsls	r0, r0, #23
 8003ede:	4283      	cmp	r3, r0
 8003ee0:	d002      	beq.n	8003ee8 <HAL_TIMEx_MasterConfigSynchronization+0x3c>
 8003ee2:	4807      	ldr	r0, [pc, #28]	; (8003f00 <HAL_TIMEx_MasterConfigSynchronization+0x54>)
 8003ee4:	4283      	cmp	r3, r0
 8003ee6:	d104      	bne.n	8003ef2 <HAL_TIMEx_MasterConfigSynchronization+0x46>
  {
    /* Reset the MSM Bit */
    tmpsmcr &= ~TIM_SMCR_MSM;
 8003ee8:	2080      	movs	r0, #128	; 0x80
    /* Set master mode */
    tmpsmcr |= sMasterConfig->MasterSlaveMode;
 8003eea:	6849      	ldr	r1, [r1, #4]
    tmpsmcr &= ~TIM_SMCR_MSM;
 8003eec:	4382      	bics	r2, r0
    tmpsmcr |= sMasterConfig->MasterSlaveMode;
 8003eee:	430a      	orrs	r2, r1

    /* Update TIMx SMCR */
    htim->Instance->SMCR = tmpsmcr;
 8003ef0:	609a      	str	r2, [r3, #8]
  }

  /* Change the htim state */
  htim->State = HAL_TIM_STATE_READY;
 8003ef2:	2301      	movs	r3, #1

  __HAL_UNLOCK(htim);
 8003ef4:	2000      	movs	r0, #0
  htim->State = HAL_TIM_STATE_READY;
 8003ef6:	702b      	strb	r3, [r5, #0]
  __HAL_UNLOCK(htim);
 8003ef8:	7020      	strb	r0, [r4, #0]

  return HAL_OK;
}
 8003efa:	bd70      	pop	{r4, r5, r6, pc}
 8003efc:	40012c00 	.word	0x40012c00
 8003f00:	40000400 	.word	0x40000400

08003f04 <HAL_TIMEx_ConfigBreakDeadTime>:
  *         interrupt can be enabled by calling the @ref __HAL_TIM_ENABLE_IT macro.
  * @retval HAL status
  */
HAL_StatusTypeDef HAL_TIMEx_ConfigBreakDeadTime(TIM_HandleTypeDef *htim,
                                                TIM_BreakDeadTimeConfigTypeDef *sBreakDeadTimeConfig)
{
 8003f04:	b510      	push	{r4, lr}
  assert_param(IS_TIM_BREAK_STATE(sBreakDeadTimeConfig->BreakState));
  assert_param(IS_TIM_BREAK_POLARITY(sBreakDeadTimeConfig->BreakPolarity));
  assert_param(IS_TIM_AUTOMATIC_OUTPUT_STATE(sBreakDeadTimeConfig->AutomaticOutput));

  /* Check input state */
  __HAL_LOCK(htim);
 8003f06:	0004      	movs	r4, r0
 8003f08:	343c      	adds	r4, #60	; 0x3c
 8003f0a:	7823      	ldrb	r3, [r4, #0]
{
 8003f0c:	0002      	movs	r2, r0
  __HAL_LOCK(htim);
 8003f0e:	2002      	movs	r0, #2
 8003f10:	2b01      	cmp	r3, #1
 8003f12:	d01c      	beq.n	8003f4e <HAL_TIMEx_ConfigBreakDeadTime+0x4a>
  /* Set the Lock level, the Break enable Bit and the Polarity, the OSSR State,
     the OSSI State, the dead time value and the Automatic Output Enable Bit */

  /* Set the BDTR bits */
  MODIFY_REG(tmpbdtr, TIM_BDTR_DTG, sBreakDeadTimeConfig->DeadTime);
  MODIFY_REG(tmpbdtr, TIM_BDTR_LOCK, sBreakDeadTimeConfig->LockLevel);
 8003f14:	68c8      	ldr	r0, [r1, #12]
 8003f16:	4b0e      	ldr	r3, [pc, #56]	; (8003f50 <HAL_TIMEx_ConfigBreakDeadTime+0x4c>)
  MODIFY_REG(tmpbdtr, TIM_BDTR_BKP, sBreakDeadTimeConfig->BreakPolarity);
  MODIFY_REG(tmpbdtr, TIM_BDTR_AOE, sBreakDeadTimeConfig->AutomaticOutput);


  /* Set TIMx_BDTR */
  htim->Instance->BDTR = tmpbdtr;
 8003f18:	6812      	ldr	r2, [r2, #0]
  MODIFY_REG(tmpbdtr, TIM_BDTR_LOCK, sBreakDeadTimeConfig->LockLevel);
 8003f1a:	4003      	ands	r3, r0
 8003f1c:	6888      	ldr	r0, [r1, #8]
 8003f1e:	4303      	orrs	r3, r0
  MODIFY_REG(tmpbdtr, TIM_BDTR_OSSI, sBreakDeadTimeConfig->OffStateIDLEMode);
 8003f20:	480c      	ldr	r0, [pc, #48]	; (8003f54 <HAL_TIMEx_ConfigBreakDeadTime+0x50>)
 8003f22:	4003      	ands	r3, r0
 8003f24:	6848      	ldr	r0, [r1, #4]
 8003f26:	4303      	orrs	r3, r0
  MODIFY_REG(tmpbdtr, TIM_BDTR_OSSR, sBreakDeadTimeConfig->OffStateRunMode);
 8003f28:	480b      	ldr	r0, [pc, #44]	; (8003f58 <HAL_TIMEx_ConfigBreakDeadTime+0x54>)
 8003f2a:	4003      	ands	r3, r0
 8003f2c:	6808      	ldr	r0, [r1, #0]
 8003f2e:	4303      	orrs	r3, r0
  MODIFY_REG(tmpbdtr, TIM_BDTR_BKE, sBreakDeadTimeConfig->BreakState);
 8003f30:	480a      	ldr	r0, [pc, #40]	; (8003f5c <HAL_TIMEx_ConfigBreakDeadTime+0x58>)
 8003f32:	4003      	ands	r3, r0
 8003f34:	6908      	ldr	r0, [r1, #16]
 8003f36:	4303      	orrs	r3, r0
  MODIFY_REG(tmpbdtr, TIM_BDTR_BKP, sBreakDeadTimeConfig->BreakPolarity);
 8003f38:	4809      	ldr	r0, [pc, #36]	; (8003f60 <HAL_TIMEx_ConfigBreakDeadTime+0x5c>)
 8003f3a:	4003      	ands	r3, r0
 8003f3c:	6948      	ldr	r0, [r1, #20]
  MODIFY_REG(tmpbdtr, TIM_BDTR_AOE, sBreakDeadTimeConfig->AutomaticOutput);
 8003f3e:	69c9      	ldr	r1, [r1, #28]
  MODIFY_REG(tmpbdtr, TIM_BDTR_BKP, sBreakDeadTimeConfig->BreakPolarity);
 8003f40:	4303      	orrs	r3, r0
  MODIFY_REG(tmpbdtr, TIM_BDTR_AOE, sBreakDeadTimeConfig->AutomaticOutput);
 8003f42:	4808      	ldr	r0, [pc, #32]	; (8003f64 <HAL_TIMEx_ConfigBreakDeadTime+0x60>)
 8003f44:	4003      	ands	r3, r0

  __HAL_UNLOCK(htim);
 8003f46:	2000      	movs	r0, #0
  MODIFY_REG(tmpbdtr, TIM_BDTR_AOE, sBreakDeadTimeConfig->AutomaticOutput);
 8003f48:	430b      	orrs	r3, r1
  htim->Instance->BDTR = tmpbdtr;
 8003f4a:	6453      	str	r3, [r2, #68]	; 0x44
  __HAL_UNLOCK(htim);
 8003f4c:	7020      	strb	r0, [r4, #0]

  return HAL_OK;
}
 8003f4e:	bd10      	pop	{r4, pc}
 8003f50:	fffffcff 	.word	0xfffffcff
 8003f54:	fffffbff 	.word	0xfffffbff
 8003f58:	fffff7ff 	.word	0xfffff7ff
 8003f5c:	ffffefff 	.word	0xffffefff
 8003f60:	ffffdfff 	.word	0xffffdfff
 8003f64:	ffffbfff 	.word	0xffffbfff

08003f68 <UART_SetConfig>:
  * @brief Configure the UART peripheral.
  * @param huart UART handle.
  * @retval HAL status
  */
HAL_StatusTypeDef UART_SetConfig(UART_HandleTypeDef *huart)
{
 8003f68:	b570      	push	{r4, r5, r6, lr}
 8003f6a:	0004      	movs	r4, r0
  *  the UART Word Length, Parity, Mode and oversampling:
  *  set the M bits according to huart->Init.WordLength value
  *  set PCE and PS bits according to huart->Init.Parity value
  *  set TE and RE bits according to huart->Init.Mode value
  *  set OVER8 bit according to huart->Init.OverSampling value */
  tmpreg = (uint32_t)huart->Init.WordLength | huart->Init.Parity | huart->Init.Mode | huart->Init.OverSampling ;
 8003f6c:	6925      	ldr	r5, [r4, #16]
 8003f6e:	68a2      	ldr	r2, [r4, #8]
  MODIFY_REG(huart->Instance->CR1, USART_CR1_FIELDS, tmpreg);
 8003f70:	6801      	ldr	r1, [r0, #0]
  tmpreg = (uint32_t)huart->Init.WordLength | huart->Init.Parity | huart->Init.Mode | huart->Init.OverSampling ;
 8003f72:	432a      	orrs	r2, r5
 8003f74:	6965      	ldr	r5, [r4, #20]
 8003f76:	69c3      	ldr	r3, [r0, #28]
 8003f78:	432a      	orrs	r2, r5
  MODIFY_REG(huart->Instance->CR1, USART_CR1_FIELDS, tmpreg);
 8003f7a:	6808      	ldr	r0, [r1, #0]
 8003f7c:	4d39      	ldr	r5, [pc, #228]	; (8004064 <UART_SetConfig+0xfc>)
  tmpreg = (uint32_t)huart->Init.WordLength | huart->Init.Parity | huart->Init.Mode | huart->Init.OverSampling ;
 8003f7e:	431a      	orrs	r2, r3
  MODIFY_REG(huart->Instance->CR1, USART_CR1_FIELDS, tmpreg);
 8003f80:	4028      	ands	r0, r5
 8003f82:	4302      	orrs	r2, r0
 8003f84:	600a      	str	r2, [r1, #0]

  /*-------------------------- USART CR2 Configuration -----------------------*/
  /* Configure the UART Stop Bits: Set STOP[13:12] bits according
  * to huart->Init.StopBits value */
  MODIFY_REG(huart->Instance->CR2, USART_CR2_STOP, huart->Init.StopBits);
 8003f86:	684a      	ldr	r2, [r1, #4]
 8003f88:	4837      	ldr	r0, [pc, #220]	; (8004068 <UART_SetConfig+0x100>)
  *   to huart->Init.HwFlowCtl value
  * - one-bit sampling method versus three samples' majority rule according
  *   to huart->Init.OneBitSampling (not applicable to LPUART) */
  tmpreg = (uint32_t)huart->Init.HwFlowCtl;

  tmpreg |= huart->Init.OneBitSampling;
 8003f8a:	6a25      	ldr	r5, [r4, #32]
  MODIFY_REG(huart->Instance->CR2, USART_CR2_STOP, huart->Init.StopBits);
 8003f8c:	4002      	ands	r2, r0
 8003f8e:	68e0      	ldr	r0, [r4, #12]
 8003f90:	4302      	orrs	r2, r0
 8003f92:	604a      	str	r2, [r1, #4]
  tmpreg |= huart->Init.OneBitSampling;
 8003f94:	69a2      	ldr	r2, [r4, #24]
  MODIFY_REG(huart->Instance->CR3, USART_CR3_FIELDS, tmpreg);
 8003f96:	6888      	ldr	r0, [r1, #8]
  tmpreg |= huart->Init.OneBitSampling;
 8003f98:	432a      	orrs	r2, r5
  MODIFY_REG(huart->Instance->CR3, USART_CR3_FIELDS, tmpreg);
 8003f9a:	4d34      	ldr	r5, [pc, #208]	; (800406c <UART_SetConfig+0x104>)
 8003f9c:	4028      	ands	r0, r5
 8003f9e:	4302      	orrs	r2, r0
 8003fa0:	608a      	str	r2, [r1, #8]


  /*-------------------------- USART BRR Configuration -----------------------*/
  UART_GETCLOCKSOURCE(huart, clocksource);
 8003fa2:	2103      	movs	r1, #3
 8003fa4:	4a32      	ldr	r2, [pc, #200]	; (8004070 <UART_SetConfig+0x108>)
 8003fa6:	6b12      	ldr	r2, [r2, #48]	; 0x30
 8003fa8:	400a      	ands	r2, r1
 8003faa:	2180      	movs	r1, #128	; 0x80
 8003fac:	3a01      	subs	r2, #1
 8003fae:	0209      	lsls	r1, r1, #8
 8003fb0:	2a02      	cmp	r2, #2
 8003fb2:	d84c      	bhi.n	800404e <UART_SetConfig+0xe6>
 8003fb4:	482f      	ldr	r0, [pc, #188]	; (8004074 <UART_SetConfig+0x10c>)
 8003fb6:	5c80      	ldrb	r0, [r0, r2]

  if (huart->Init.OverSampling == UART_OVERSAMPLING_8)
 8003fb8:	428b      	cmp	r3, r1
 8003fba:	d124      	bne.n	8004006 <UART_SetConfig+0x9e>
  {
    switch (clocksource)
 8003fbc:	2808      	cmp	r0, #8
 8003fbe:	d817      	bhi.n	8003ff0 <UART_SetConfig+0x88>
 8003fc0:	f7fc f8ac 	bl	800011c <__gnu_thumb1_case_uqi>
 8003fc4:	16081647 	.word	0x16081647
 8003fc8:	16161605 	.word	0x16161605
 8003fcc:	09          	.byte	0x09
 8003fcd:	00          	.byte	0x00
        break;
      case UART_CLOCKSOURCE_HSI:
        pclk = (uint32_t) HSI_VALUE;
        break;
      case UART_CLOCKSOURCE_SYSCLK:
        pclk = HAL_RCC_GetSysClockFreq();
 8003fce:	f7ff fa8d 	bl	80034ec <HAL_RCC_GetSysClockFreq>
 8003fd2:	e040      	b.n	8004056 <UART_SetConfig+0xee>
    switch (clocksource)
 8003fd4:	4b28      	ldr	r3, [pc, #160]	; (8004078 <UART_SetConfig+0x110>)
    }

    /* USARTDIV must be greater than or equal to 0d16 */
    if (pclk != 0U)
    {
      usartdiv = (uint16_t)(UART_DIV_SAMPLING8(pclk, huart->Init.BaudRate));
 8003fd6:	0058      	lsls	r0, r3, #1
 8003fd8:	6863      	ldr	r3, [r4, #4]
 8003fda:	6861      	ldr	r1, [r4, #4]
 8003fdc:	085b      	lsrs	r3, r3, #1
 8003fde:	18c0      	adds	r0, r0, r3
 8003fe0:	f7fc f8ba 	bl	8000158 <__udivsi3>
      if ((usartdiv >= UART_BRR_MIN) && (usartdiv <= UART_BRR_MAX))
 8003fe4:	4925      	ldr	r1, [pc, #148]	; (800407c <UART_SetConfig+0x114>)
 8003fe6:	b282      	uxth	r2, r0
 8003fe8:	3a10      	subs	r2, #16
 8003fea:	0403      	lsls	r3, r0, #16
 8003fec:	428a      	cmp	r2, r1
 8003fee:	d901      	bls.n	8003ff4 <UART_SetConfig+0x8c>
      }
    }
  }
  else
  {
    switch (clocksource)
 8003ff0:	2001      	movs	r0, #1
 8003ff2:	e033      	b.n	800405c <UART_SetConfig+0xf4>
        brrtemp = (uint16_t)(usartdiv & 0xFFF0U);
 8003ff4:	220f      	movs	r2, #15
        brrtemp |= (uint16_t)((usartdiv & (uint16_t)0x000FU) >> 1U);
 8003ff6:	031b      	lsls	r3, r3, #12
        brrtemp = (uint16_t)(usartdiv & 0xFFF0U);
 8003ff8:	4390      	bics	r0, r2
 8003ffa:	b280      	uxth	r0, r0
        huart->Instance->BRR = brrtemp;
 8003ffc:	6822      	ldr	r2, [r4, #0]
        brrtemp |= (uint16_t)((usartdiv & (uint16_t)0x000FU) >> 1U);
 8003ffe:	0f5b      	lsrs	r3, r3, #29
        huart->Instance->BRR = brrtemp;
 8004000:	4318      	orrs	r0, r3
 8004002:	60d0      	str	r0, [r2, #12]
 8004004:	e029      	b.n	800405a <UART_SetConfig+0xf2>
    switch (clocksource)
 8004006:	2808      	cmp	r0, #8
 8004008:	d8f2      	bhi.n	8003ff0 <UART_SetConfig+0x88>
 800400a:	f7fc f87d 	bl	8000108 <__gnu_thumb1_case_sqi>
 800400e:	f116      	.short	0xf116
 8004010:	f11bf11e 	.word	0xf11bf11e
 8004014:	f1f1      	.short	0xf1f1
 8004016:	05          	.byte	0x05
 8004017:	00          	.byte	0x00
 8004018:	2080      	movs	r0, #128	; 0x80
 800401a:	0200      	lsls	r0, r0, #8
    }

    if (pclk != 0U)
    {
      /* USARTDIV must be greater than or equal to 0d16 */
      usartdiv = (uint16_t)(UART_DIV_SAMPLING16(pclk, huart->Init.BaudRate));
 800401c:	6863      	ldr	r3, [r4, #4]
 800401e:	6861      	ldr	r1, [r4, #4]
 8004020:	085b      	lsrs	r3, r3, #1
 8004022:	1818      	adds	r0, r3, r0
 8004024:	f7fc f898 	bl	8000158 <__udivsi3>
 8004028:	b280      	uxth	r0, r0
      if ((usartdiv >= UART_BRR_MIN) && (usartdiv <= UART_BRR_MAX))
 800402a:	0002      	movs	r2, r0
 800402c:	4b13      	ldr	r3, [pc, #76]	; (800407c <UART_SetConfig+0x114>)
 800402e:	3a10      	subs	r2, #16
 8004030:	429a      	cmp	r2, r3
 8004032:	d8dd      	bhi.n	8003ff0 <UART_SetConfig+0x88>
      {
        huart->Instance->BRR = usartdiv;
 8004034:	6823      	ldr	r3, [r4, #0]
 8004036:	60d8      	str	r0, [r3, #12]
 8004038:	e00f      	b.n	800405a <UART_SetConfig+0xf2>
        pclk = HAL_RCC_GetPCLK1Freq();
 800403a:	f7ff fb13 	bl	8003664 <HAL_RCC_GetPCLK1Freq>
    if (pclk != 0U)
 800403e:	2800      	cmp	r0, #0
 8004040:	d00b      	beq.n	800405a <UART_SetConfig+0xf2>
 8004042:	e7eb      	b.n	800401c <UART_SetConfig+0xb4>
        pclk = HAL_RCC_GetSysClockFreq();
 8004044:	f7ff fa52 	bl	80034ec <HAL_RCC_GetSysClockFreq>
        break;
 8004048:	e7f9      	b.n	800403e <UART_SetConfig+0xd6>
        pclk = (uint32_t) HSI_VALUE;
 800404a:	480b      	ldr	r0, [pc, #44]	; (8004078 <UART_SetConfig+0x110>)
 800404c:	e7e6      	b.n	800401c <UART_SetConfig+0xb4>
  if (huart->Init.OverSampling == UART_OVERSAMPLING_8)
 800404e:	428b      	cmp	r3, r1
 8004050:	d1f3      	bne.n	800403a <UART_SetConfig+0xd2>
        pclk = HAL_RCC_GetPCLK1Freq();
 8004052:	f7ff fb07 	bl	8003664 <HAL_RCC_GetPCLK1Freq>
        pclk = HAL_RCC_GetSysClockFreq();
 8004056:	1e03      	subs	r3, r0, #0
    if (pclk != 0U)
 8004058:	d1bd      	bne.n	8003fd6 <UART_SetConfig+0x6e>
 800405a:	2000      	movs	r0, #0
    }
  }


  /* Clear ISR function pointers */
  huart->RxISR = NULL;
 800405c:	2300      	movs	r3, #0
 800405e:	6663      	str	r3, [r4, #100]	; 0x64
  huart->TxISR = NULL;
 8004060:	66a3      	str	r3, [r4, #104]	; 0x68

  return ret;
}
 8004062:	bd70      	pop	{r4, r5, r6, pc}
 8004064:	ffff69f3 	.word	0xffff69f3
 8004068:	ffffcfff 	.word	0xffffcfff
 800406c:	fffff4ff 	.word	0xfffff4ff
 8004070:	40021000 	.word	0x40021000
 8004074:	08006a4e 	.word	0x08006a4e
 8004078:	007a1200 	.word	0x007a1200
 800407c:	0000ffef 	.word	0x0000ffef

08004080 <UART_AdvFeatureConfig>:
{
  /* Check whether the set of advanced features to configure is properly set */
  assert_param(IS_UART_ADVFEATURE_INIT(huart->AdvancedInit.AdvFeatureInit));

  /* if required, configure TX pin active level inversion */
  if (HAL_IS_BIT_SET(huart->AdvancedInit.AdvFeatureInit, UART_ADVFEATURE_TXINVERT_INIT))
 8004080:	6a43      	ldr	r3, [r0, #36]	; 0x24
{
 8004082:	b530      	push	{r4, r5, lr}
  if (HAL_IS_BIT_SET(huart->AdvancedInit.AdvFeatureInit, UART_ADVFEATURE_TXINVERT_INIT))
 8004084:	07da      	lsls	r2, r3, #31
 8004086:	d506      	bpl.n	8004096 <UART_AdvFeatureConfig+0x16>
  {
    assert_param(IS_UART_ADVFEATURE_TXINV(huart->AdvancedInit.TxPinLevelInvert));
    MODIFY_REG(huart->Instance->CR2, USART_CR2_TXINV, huart->AdvancedInit.TxPinLevelInvert);
 8004088:	6801      	ldr	r1, [r0, #0]
 800408a:	4c28      	ldr	r4, [pc, #160]	; (800412c <UART_AdvFeatureConfig+0xac>)
 800408c:	684a      	ldr	r2, [r1, #4]
 800408e:	4022      	ands	r2, r4
 8004090:	6a84      	ldr	r4, [r0, #40]	; 0x28
 8004092:	4322      	orrs	r2, r4
 8004094:	604a      	str	r2, [r1, #4]
  }

  /* if required, configure RX pin active level inversion */
  if (HAL_IS_BIT_SET(huart->AdvancedInit.AdvFeatureInit, UART_ADVFEATURE_RXINVERT_INIT))
 8004096:	079a      	lsls	r2, r3, #30
 8004098:	d506      	bpl.n	80040a8 <UART_AdvFeatureConfig+0x28>
  {
    assert_param(IS_UART_ADVFEATURE_RXINV(huart->AdvancedInit.RxPinLevelInvert));
    MODIFY_REG(huart->Instance->CR2, USART_CR2_RXINV, huart->AdvancedInit.RxPinLevelInvert);
 800409a:	6801      	ldr	r1, [r0, #0]
 800409c:	4c24      	ldr	r4, [pc, #144]	; (8004130 <UART_AdvFeatureConfig+0xb0>)
 800409e:	684a      	ldr	r2, [r1, #4]
 80040a0:	4022      	ands	r2, r4
 80040a2:	6ac4      	ldr	r4, [r0, #44]	; 0x2c
 80040a4:	4322      	orrs	r2, r4
 80040a6:	604a      	str	r2, [r1, #4]
  }

  /* if required, configure data inversion */
  if (HAL_IS_BIT_SET(huart->AdvancedInit.AdvFeatureInit, UART_ADVFEATURE_DATAINVERT_INIT))
 80040a8:	075a      	lsls	r2, r3, #29
 80040aa:	d506      	bpl.n	80040ba <UART_AdvFeatureConfig+0x3a>
  {
    assert_param(IS_UART_ADVFEATURE_DATAINV(huart->AdvancedInit.DataInvert));
    MODIFY_REG(huart->Instance->CR2, USART_CR2_DATAINV, huart->AdvancedInit.DataInvert);
 80040ac:	6801      	ldr	r1, [r0, #0]
 80040ae:	4c21      	ldr	r4, [pc, #132]	; (8004134 <UART_AdvFeatureConfig+0xb4>)
 80040b0:	684a      	ldr	r2, [r1, #4]
 80040b2:	4022      	ands	r2, r4
 80040b4:	6b04      	ldr	r4, [r0, #48]	; 0x30
 80040b6:	4322      	orrs	r2, r4
 80040b8:	604a      	str	r2, [r1, #4]
  }

  /* if required, configure RX/TX pins swap */
  if (HAL_IS_BIT_SET(huart->AdvancedInit.AdvFeatureInit, UART_ADVFEATURE_SWAP_INIT))
 80040ba:	071a      	lsls	r2, r3, #28
 80040bc:	d506      	bpl.n	80040cc <UART_AdvFeatureConfig+0x4c>
  {
    assert_param(IS_UART_ADVFEATURE_SWAP(huart->AdvancedInit.Swap));
    MODIFY_REG(huart->Instance->CR2, USART_CR2_SWAP, huart->AdvancedInit.Swap);
 80040be:	6801      	ldr	r1, [r0, #0]
 80040c0:	4c1d      	ldr	r4, [pc, #116]	; (8004138 <UART_AdvFeatureConfig+0xb8>)
 80040c2:	684a      	ldr	r2, [r1, #4]
 80040c4:	4022      	ands	r2, r4
 80040c6:	6b44      	ldr	r4, [r0, #52]	; 0x34
 80040c8:	4322      	orrs	r2, r4
 80040ca:	604a      	str	r2, [r1, #4]
  }

  /* if required, configure RX overrun detection disabling */
  if (HAL_IS_BIT_SET(huart->AdvancedInit.AdvFeatureInit, UART_ADVFEATURE_RXOVERRUNDISABLE_INIT))
 80040cc:	06da      	lsls	r2, r3, #27
 80040ce:	d506      	bpl.n	80040de <UART_AdvFeatureConfig+0x5e>
  {
    assert_param(IS_UART_OVERRUN(huart->AdvancedInit.OverrunDisable));
    MODIFY_REG(huart->Instance->CR3, USART_CR3_OVRDIS, huart->AdvancedInit.OverrunDisable);
 80040d0:	6801      	ldr	r1, [r0, #0]
 80040d2:	4c1a      	ldr	r4, [pc, #104]	; (800413c <UART_AdvFeatureConfig+0xbc>)
 80040d4:	688a      	ldr	r2, [r1, #8]
 80040d6:	4022      	ands	r2, r4
 80040d8:	6b84      	ldr	r4, [r0, #56]	; 0x38
 80040da:	4322      	orrs	r2, r4
 80040dc:	608a      	str	r2, [r1, #8]
  }

  /* if required, configure DMA disabling on reception error */
  if (HAL_IS_BIT_SET(huart->AdvancedInit.AdvFeatureInit, UART_ADVFEATURE_DMADISABLEONERROR_INIT))
 80040de:	069a      	lsls	r2, r3, #26
 80040e0:	d506      	bpl.n	80040f0 <UART_AdvFeatureConfig+0x70>
  {
    assert_param(IS_UART_ADVFEATURE_DMAONRXERROR(huart->AdvancedInit.DMADisableonRxError));
    MODIFY_REG(huart->Instance->CR3, USART_CR3_DDRE, huart->AdvancedInit.DMADisableonRxError);
 80040e2:	6801      	ldr	r1, [r0, #0]
 80040e4:	4c16      	ldr	r4, [pc, #88]	; (8004140 <UART_AdvFeatureConfig+0xc0>)
 80040e6:	688a      	ldr	r2, [r1, #8]
 80040e8:	4022      	ands	r2, r4
 80040ea:	6bc4      	ldr	r4, [r0, #60]	; 0x3c
 80040ec:	4322      	orrs	r2, r4
 80040ee:	608a      	str	r2, [r1, #8]
  }

  /* if required, configure auto Baud rate detection scheme */
  if (HAL_IS_BIT_SET(huart->AdvancedInit.AdvFeatureInit, UART_ADVFEATURE_AUTOBAUDRATE_INIT))
 80040f0:	065a      	lsls	r2, r3, #25
 80040f2:	d510      	bpl.n	8004116 <UART_AdvFeatureConfig+0x96>
  {
    assert_param(IS_USART_AUTOBAUDRATE_DETECTION_INSTANCE(huart->Instance));
    assert_param(IS_UART_ADVFEATURE_AUTOBAUDRATE(huart->AdvancedInit.AutoBaudRateEnable));
    MODIFY_REG(huart->Instance->CR2, USART_CR2_ABREN, huart->AdvancedInit.AutoBaudRateEnable);
 80040f4:	6801      	ldr	r1, [r0, #0]
 80040f6:	4d13      	ldr	r5, [pc, #76]	; (8004144 <UART_AdvFeatureConfig+0xc4>)
 80040f8:	684a      	ldr	r2, [r1, #4]
 80040fa:	6c04      	ldr	r4, [r0, #64]	; 0x40
 80040fc:	402a      	ands	r2, r5
 80040fe:	4322      	orrs	r2, r4
 8004100:	604a      	str	r2, [r1, #4]
    /* set auto Baudrate detection parameters if detection is enabled */
    if (huart->AdvancedInit.AutoBaudRateEnable == UART_ADVFEATURE_AUTOBAUDRATE_ENABLE)
 8004102:	2280      	movs	r2, #128	; 0x80
 8004104:	0352      	lsls	r2, r2, #13
 8004106:	4294      	cmp	r4, r2
 8004108:	d105      	bne.n	8004116 <UART_AdvFeatureConfig+0x96>
    {
      assert_param(IS_UART_ADVFEATURE_AUTOBAUDRATEMODE(huart->AdvancedInit.AutoBaudRateMode));
      MODIFY_REG(huart->Instance->CR2, USART_CR2_ABRMODE, huart->AdvancedInit.AutoBaudRateMode);
 800410a:	684a      	ldr	r2, [r1, #4]
 800410c:	4c0e      	ldr	r4, [pc, #56]	; (8004148 <UART_AdvFeatureConfig+0xc8>)
 800410e:	4022      	ands	r2, r4
 8004110:	6c44      	ldr	r4, [r0, #68]	; 0x44
 8004112:	4322      	orrs	r2, r4
 8004114:	604a      	str	r2, [r1, #4]
    }
  }

  /* if required, configure MSB first on communication line */
  if (HAL_IS_BIT_SET(huart->AdvancedInit.AdvFeatureInit, UART_ADVFEATURE_MSBFIRST_INIT))
 8004116:	061b      	lsls	r3, r3, #24
 8004118:	d506      	bpl.n	8004128 <UART_AdvFeatureConfig+0xa8>
  {
    assert_param(IS_UART_ADVFEATURE_MSBFIRST(huart->AdvancedInit.MSBFirst));
    MODIFY_REG(huart->Instance->CR2, USART_CR2_MSBFIRST, huart->AdvancedInit.MSBFirst);
 800411a:	6802      	ldr	r2, [r0, #0]
 800411c:	490b      	ldr	r1, [pc, #44]	; (800414c <UART_AdvFeatureConfig+0xcc>)
 800411e:	6853      	ldr	r3, [r2, #4]
 8004120:	400b      	ands	r3, r1
 8004122:	6c81      	ldr	r1, [r0, #72]	; 0x48
 8004124:	430b      	orrs	r3, r1
 8004126:	6053      	str	r3, [r2, #4]
  }
}
 8004128:	bd30      	pop	{r4, r5, pc}
 800412a:	46c0      	nop			; (mov r8, r8)
 800412c:	fffdffff 	.word	0xfffdffff
 8004130:	fffeffff 	.word	0xfffeffff
 8004134:	fffbffff 	.word	0xfffbffff
 8004138:	ffff7fff 	.word	0xffff7fff
 800413c:	ffffefff 	.word	0xffffefff
 8004140:	ffffdfff 	.word	0xffffdfff
 8004144:	ffefffff 	.word	0xffefffff
 8004148:	ff9fffff 	.word	0xff9fffff
 800414c:	fff7ffff 	.word	0xfff7ffff

08004150 <UART_WaitOnFlagUntilTimeout>:
  * @param Timeout   Timeout duration
  * @retval HAL status
  */
HAL_StatusTypeDef UART_WaitOnFlagUntilTimeout(UART_HandleTypeDef *huart, uint32_t Flag, FlagStatus Status,
                                              uint32_t Tickstart, uint32_t Timeout)
{
 8004150:	b5f7      	push	{r0, r1, r2, r4, r5, r6, r7, lr}
        return HAL_TIMEOUT;
      }

      if (READ_BIT(huart->Instance->CR1, USART_CR1_RE) != 0U)
      {
        if (__HAL_UART_GET_FLAG(huart, UART_FLAG_RTOF) == SET)
 8004152:	2780      	movs	r7, #128	; 0x80
{
 8004154:	0004      	movs	r4, r0
 8004156:	000d      	movs	r5, r1
 8004158:	0016      	movs	r6, r2
 800415a:	9301      	str	r3, [sp, #4]
        if (__HAL_UART_GET_FLAG(huart, UART_FLAG_RTOF) == SET)
 800415c:	013f      	lsls	r7, r7, #4
  while ((__HAL_UART_GET_FLAG(huart, Flag) ? SET : RESET) == Status)
 800415e:	6822      	ldr	r2, [r4, #0]
 8004160:	69d3      	ldr	r3, [r2, #28]
 8004162:	402b      	ands	r3, r5
 8004164:	1b5b      	subs	r3, r3, r5
 8004166:	4259      	negs	r1, r3
 8004168:	414b      	adcs	r3, r1
 800416a:	42b3      	cmp	r3, r6
 800416c:	d001      	beq.n	8004172 <UART_WaitOnFlagUntilTimeout+0x22>
          return HAL_TIMEOUT;
        }
      }
    }
  }
  return HAL_OK;
 800416e:	2000      	movs	r0, #0
 8004170:	e028      	b.n	80041c4 <UART_WaitOnFlagUntilTimeout+0x74>
    if (Timeout != HAL_MAX_DELAY)
 8004172:	9b08      	ldr	r3, [sp, #32]
 8004174:	3301      	adds	r3, #1
 8004176:	d0f3      	beq.n	8004160 <UART_WaitOnFlagUntilTimeout+0x10>
      if (((HAL_GetTick() - Tickstart) > Timeout) || (Timeout == 0U))
 8004178:	f7fe fd2a 	bl	8002bd0 <HAL_GetTick>
 800417c:	9b01      	ldr	r3, [sp, #4]
 800417e:	1ac0      	subs	r0, r0, r3
 8004180:	9b08      	ldr	r3, [sp, #32]
 8004182:	4298      	cmp	r0, r3
 8004184:	d801      	bhi.n	800418a <UART_WaitOnFlagUntilTimeout+0x3a>
 8004186:	2b00      	cmp	r3, #0
 8004188:	d11d      	bne.n	80041c6 <UART_WaitOnFlagUntilTimeout+0x76>
 */
__STATIC_FORCEINLINE uint32_t __get_PRIMASK(void)
{
  uint32_t result;

  __ASM volatile ("MRS %0, primask" : "=r" (result) :: "memory");
 800418a:	f3ef 8010 	mrs	r0, PRIMASK
  \details Assigns the given value to the Priority Mask Register.
  \param [in]    priMask  Priority Mask
 */
__STATIC_FORCEINLINE void __set_PRIMASK(uint32_t priMask)
{
  __ASM volatile ("MSR primask, %0" : : "r" (priMask) : "memory");
 800418e:	2201      	movs	r2, #1
 8004190:	f382 8810 	msr	PRIMASK, r2
        ATOMIC_CLEAR_BIT(huart->Instance->CR1, (USART_CR1_RXNEIE | USART_CR1_PEIE | USART_CR1_TXEIE));
 8004194:	6821      	ldr	r1, [r4, #0]
 8004196:	4d1e      	ldr	r5, [pc, #120]	; (8004210 <UART_WaitOnFlagUntilTimeout+0xc0>)
 8004198:	680b      	ldr	r3, [r1, #0]
 800419a:	402b      	ands	r3, r5
 800419c:	600b      	str	r3, [r1, #0]
 800419e:	f380 8810 	msr	PRIMASK, r0
  __ASM volatile ("MRS %0, primask" : "=r" (result) :: "memory");
 80041a2:	f3ef 8010 	mrs	r0, PRIMASK
  __ASM volatile ("MSR primask, %0" : : "r" (priMask) : "memory");
 80041a6:	f382 8810 	msr	PRIMASK, r2
        ATOMIC_CLEAR_BIT(huart->Instance->CR3, USART_CR3_EIE);
 80041aa:	6821      	ldr	r1, [r4, #0]
 80041ac:	688b      	ldr	r3, [r1, #8]
 80041ae:	4393      	bics	r3, r2
 80041b0:	608b      	str	r3, [r1, #8]
 80041b2:	f380 8810 	msr	PRIMASK, r0
        huart->gState = HAL_UART_STATE_READY;
 80041b6:	2320      	movs	r3, #32
 80041b8:	67a3      	str	r3, [r4, #120]	; 0x78
        huart->RxState = HAL_UART_STATE_READY;
 80041ba:	67e3      	str	r3, [r4, #124]	; 0x7c
          __HAL_UNLOCK(huart);
 80041bc:	2300      	movs	r3, #0
          return HAL_TIMEOUT;
 80041be:	2003      	movs	r0, #3
          __HAL_UNLOCK(huart);
 80041c0:	3474      	adds	r4, #116	; 0x74
 80041c2:	7023      	strb	r3, [r4, #0]
}
 80041c4:	bdfe      	pop	{r1, r2, r3, r4, r5, r6, r7, pc}
      if (READ_BIT(huart->Instance->CR1, USART_CR1_RE) != 0U)
 80041c6:	2104      	movs	r1, #4
 80041c8:	6823      	ldr	r3, [r4, #0]
 80041ca:	681a      	ldr	r2, [r3, #0]
 80041cc:	420a      	tst	r2, r1
 80041ce:	d0c6      	beq.n	800415e <UART_WaitOnFlagUntilTimeout+0xe>
        if (__HAL_UART_GET_FLAG(huart, UART_FLAG_RTOF) == SET)
 80041d0:	69da      	ldr	r2, [r3, #28]
 80041d2:	423a      	tst	r2, r7
 80041d4:	d0c3      	beq.n	800415e <UART_WaitOnFlagUntilTimeout+0xe>
          __HAL_UART_CLEAR_FLAG(huart, UART_CLEAR_RTOF);
 80041d6:	621f      	str	r7, [r3, #32]
  __ASM volatile ("MRS %0, primask" : "=r" (result) :: "memory");
 80041d8:	f3ef 8010 	mrs	r0, PRIMASK
  __ASM volatile ("MSR primask, %0" : : "r" (priMask) : "memory");
 80041dc:	2201      	movs	r2, #1
 80041de:	f382 8810 	msr	PRIMASK, r2
          ATOMIC_CLEAR_BIT(huart->Instance->CR1, (USART_CR1_RXNEIE | USART_CR1_PEIE | USART_CR1_TXEIE));
 80041e2:	6821      	ldr	r1, [r4, #0]
 80041e4:	4d0a      	ldr	r5, [pc, #40]	; (8004210 <UART_WaitOnFlagUntilTimeout+0xc0>)
 80041e6:	680b      	ldr	r3, [r1, #0]
 80041e8:	402b      	ands	r3, r5
 80041ea:	600b      	str	r3, [r1, #0]
 80041ec:	f380 8810 	msr	PRIMASK, r0
  __ASM volatile ("MRS %0, primask" : "=r" (result) :: "memory");
 80041f0:	f3ef 8010 	mrs	r0, PRIMASK
  __ASM volatile ("MSR primask, %0" : : "r" (priMask) : "memory");
 80041f4:	f382 8810 	msr	PRIMASK, r2
          ATOMIC_CLEAR_BIT(huart->Instance->CR3, USART_CR3_EIE);
 80041f8:	6821      	ldr	r1, [r4, #0]
 80041fa:	688b      	ldr	r3, [r1, #8]
 80041fc:	4393      	bics	r3, r2
 80041fe:	608b      	str	r3, [r1, #8]
 8004200:	f380 8810 	msr	PRIMASK, r0
          huart->gState = HAL_UART_STATE_READY;
 8004204:	2320      	movs	r3, #32
          huart->ErrorCode = HAL_UART_ERROR_RTO;
 8004206:	1d22      	adds	r2, r4, #4
          huart->gState = HAL_UART_STATE_READY;
 8004208:	67a3      	str	r3, [r4, #120]	; 0x78
          huart->RxState = HAL_UART_STATE_READY;
 800420a:	67e3      	str	r3, [r4, #124]	; 0x7c
          huart->ErrorCode = HAL_UART_ERROR_RTO;
 800420c:	67d3      	str	r3, [r2, #124]	; 0x7c
 800420e:	e7d5      	b.n	80041bc <UART_WaitOnFlagUntilTimeout+0x6c>
 8004210:	fffffe5f 	.word	0xfffffe5f

08004214 <HAL_UART_Transmit>:
{
 8004214:	b5f0      	push	{r4, r5, r6, r7, lr}
 8004216:	b087      	sub	sp, #28
 8004218:	9305      	str	r3, [sp, #20]
  if (huart->gState == HAL_UART_STATE_READY)
 800421a:	6f83      	ldr	r3, [r0, #120]	; 0x78
{
 800421c:	0004      	movs	r4, r0
 800421e:	000d      	movs	r5, r1
 8004220:	0016      	movs	r6, r2
    return HAL_BUSY;
 8004222:	2002      	movs	r0, #2
  if (huart->gState == HAL_UART_STATE_READY)
 8004224:	2b20      	cmp	r3, #32
 8004226:	d151      	bne.n	80042cc <HAL_UART_Transmit+0xb8>
      return  HAL_ERROR;
 8004228:	3801      	subs	r0, #1
    if ((pData == NULL) || (Size == 0U))
 800422a:	2900      	cmp	r1, #0
 800422c:	d04e      	beq.n	80042cc <HAL_UART_Transmit+0xb8>
 800422e:	2a00      	cmp	r2, #0
 8004230:	d04c      	beq.n	80042cc <HAL_UART_Transmit+0xb8>
    if ((huart->Init.WordLength == UART_WORDLENGTH_9B) && (huart->Init.Parity == UART_PARITY_NONE))
 8004232:	2380      	movs	r3, #128	; 0x80
 8004234:	68a2      	ldr	r2, [r4, #8]
 8004236:	015b      	lsls	r3, r3, #5
 8004238:	429a      	cmp	r2, r3
 800423a:	d104      	bne.n	8004246 <HAL_UART_Transmit+0x32>
 800423c:	6923      	ldr	r3, [r4, #16]
 800423e:	2b00      	cmp	r3, #0
 8004240:	d101      	bne.n	8004246 <HAL_UART_Transmit+0x32>
      if ((((uint32_t)pData) & 1U) != 0U)
 8004242:	4201      	tst	r1, r0
 8004244:	d142      	bne.n	80042cc <HAL_UART_Transmit+0xb8>
    __HAL_LOCK(huart);
 8004246:	0023      	movs	r3, r4
 8004248:	3374      	adds	r3, #116	; 0x74
 800424a:	9303      	str	r3, [sp, #12]
 800424c:	781b      	ldrb	r3, [r3, #0]
    return HAL_BUSY;
 800424e:	2002      	movs	r0, #2
    __HAL_LOCK(huart);
 8004250:	2b01      	cmp	r3, #1
 8004252:	d03b      	beq.n	80042cc <HAL_UART_Transmit+0xb8>
 8004254:	2301      	movs	r3, #1
 8004256:	9a03      	ldr	r2, [sp, #12]
 8004258:	7013      	strb	r3, [r2, #0]
    huart->ErrorCode = HAL_UART_ERROR_NONE;
 800425a:	2200      	movs	r2, #0
 800425c:	1d23      	adds	r3, r4, #4
 800425e:	67da      	str	r2, [r3, #124]	; 0x7c
    huart->gState = HAL_UART_STATE_BUSY_TX;
 8004260:	2321      	movs	r3, #33	; 0x21
 8004262:	67a3      	str	r3, [r4, #120]	; 0x78
    tickstart = HAL_GetTick();
 8004264:	f7fe fcb4 	bl	8002bd0 <HAL_GetTick>
    huart->TxXferSize  = Size;
 8004268:	0023      	movs	r3, r4
 800426a:	3350      	adds	r3, #80	; 0x50
 800426c:	801e      	strh	r6, [r3, #0]
    huart->TxXferCount = Size;
 800426e:	3302      	adds	r3, #2
 8004270:	801e      	strh	r6, [r3, #0]
 8004272:	9304      	str	r3, [sp, #16]
    if ((huart->Init.WordLength == UART_WORDLENGTH_9B) && (huart->Init.Parity == UART_PARITY_NONE))
 8004274:	2380      	movs	r3, #128	; 0x80
 8004276:	68a2      	ldr	r2, [r4, #8]
    tickstart = HAL_GetTick();
 8004278:	0007      	movs	r7, r0
      pdata16bits = NULL;
 800427a:	2600      	movs	r6, #0
    if ((huart->Init.WordLength == UART_WORDLENGTH_9B) && (huart->Init.Parity == UART_PARITY_NONE))
 800427c:	015b      	lsls	r3, r3, #5
 800427e:	429a      	cmp	r2, r3
 8004280:	d104      	bne.n	800428c <HAL_UART_Transmit+0x78>
 8004282:	6923      	ldr	r3, [r4, #16]
 8004284:	42b3      	cmp	r3, r6
 8004286:	d101      	bne.n	800428c <HAL_UART_Transmit+0x78>
 8004288:	002e      	movs	r6, r5
      pdata8bits  = NULL;
 800428a:	001d      	movs	r5, r3
    __HAL_UNLOCK(huart);
 800428c:	2300      	movs	r3, #0
 800428e:	9a03      	ldr	r2, [sp, #12]
 8004290:	7013      	strb	r3, [r2, #0]
    while (huart->TxXferCount > 0U)
 8004292:	0023      	movs	r3, r4
 8004294:	3352      	adds	r3, #82	; 0x52
 8004296:	881b      	ldrh	r3, [r3, #0]
 8004298:	b29a      	uxth	r2, r3
 800429a:	2b00      	cmp	r3, #0
 800429c:	d10b      	bne.n	80042b6 <HAL_UART_Transmit+0xa2>
    if (UART_WaitOnFlagUntilTimeout(huart, UART_FLAG_TC, RESET, tickstart, Timeout) != HAL_OK)
 800429e:	9b05      	ldr	r3, [sp, #20]
 80042a0:	2140      	movs	r1, #64	; 0x40
 80042a2:	9300      	str	r3, [sp, #0]
 80042a4:	0020      	movs	r0, r4
 80042a6:	003b      	movs	r3, r7
 80042a8:	f7ff ff52 	bl	8004150 <UART_WaitOnFlagUntilTimeout>
 80042ac:	2800      	cmp	r0, #0
 80042ae:	d10c      	bne.n	80042ca <HAL_UART_Transmit+0xb6>
    huart->gState = HAL_UART_STATE_READY;
 80042b0:	2320      	movs	r3, #32
 80042b2:	67a3      	str	r3, [r4, #120]	; 0x78
    return HAL_OK;
 80042b4:	e00a      	b.n	80042cc <HAL_UART_Transmit+0xb8>
      if (UART_WaitOnFlagUntilTimeout(huart, UART_FLAG_TXE, RESET, tickstart, Timeout) != HAL_OK)
 80042b6:	9b05      	ldr	r3, [sp, #20]
 80042b8:	2200      	movs	r2, #0
 80042ba:	9300      	str	r3, [sp, #0]
 80042bc:	2180      	movs	r1, #128	; 0x80
 80042be:	003b      	movs	r3, r7
 80042c0:	0020      	movs	r0, r4
 80042c2:	f7ff ff45 	bl	8004150 <UART_WaitOnFlagUntilTimeout>
 80042c6:	2800      	cmp	r0, #0
 80042c8:	d002      	beq.n	80042d0 <HAL_UART_Transmit+0xbc>
        return HAL_TIMEOUT;
 80042ca:	2003      	movs	r0, #3
}
 80042cc:	b007      	add	sp, #28
 80042ce:	bdf0      	pop	{r4, r5, r6, r7, pc}
        huart->Instance->TDR = (uint16_t)(*pdata16bits & 0x01FFU);
 80042d0:	6822      	ldr	r2, [r4, #0]
      if (pdata8bits == NULL)
 80042d2:	2d00      	cmp	r5, #0
 80042d4:	d10b      	bne.n	80042ee <HAL_UART_Transmit+0xda>
        huart->Instance->TDR = (uint16_t)(*pdata16bits & 0x01FFU);
 80042d6:	8833      	ldrh	r3, [r6, #0]
        pdata16bits++;
 80042d8:	3602      	adds	r6, #2
        huart->Instance->TDR = (uint16_t)(*pdata16bits & 0x01FFU);
 80042da:	05db      	lsls	r3, r3, #23
 80042dc:	0ddb      	lsrs	r3, r3, #23
 80042de:	8513      	strh	r3, [r2, #40]	; 0x28
      huart->TxXferCount--;
 80042e0:	9b04      	ldr	r3, [sp, #16]
 80042e2:	9a04      	ldr	r2, [sp, #16]
 80042e4:	881b      	ldrh	r3, [r3, #0]
 80042e6:	3b01      	subs	r3, #1
 80042e8:	b29b      	uxth	r3, r3
 80042ea:	8013      	strh	r3, [r2, #0]
 80042ec:	e7d1      	b.n	8004292 <HAL_UART_Transmit+0x7e>
        huart->Instance->TDR = (uint8_t)(*pdata8bits & 0xFFU);
 80042ee:	782b      	ldrb	r3, [r5, #0]
        pdata8bits++;
 80042f0:	3501      	adds	r5, #1
        huart->Instance->TDR = (uint8_t)(*pdata8bits & 0xFFU);
 80042f2:	8513      	strh	r3, [r2, #40]	; 0x28
        pdata8bits++;
 80042f4:	e7f4      	b.n	80042e0 <HAL_UART_Transmit+0xcc>
	...

080042f8 <UART_CheckIdleState>:
{
 80042f8:	b573      	push	{r0, r1, r4, r5, r6, lr}
  huart->ErrorCode = HAL_UART_ERROR_NONE;
 80042fa:	2600      	movs	r6, #0
{
 80042fc:	0004      	movs	r4, r0
  huart->ErrorCode = HAL_UART_ERROR_NONE;
 80042fe:	1d03      	adds	r3, r0, #4
 8004300:	67de      	str	r6, [r3, #124]	; 0x7c
  tickstart = HAL_GetTick();
 8004302:	f7fe fc65 	bl	8002bd0 <HAL_GetTick>
  if ((huart->Instance->CR1 & USART_CR1_TE) == USART_CR1_TE)
 8004306:	6823      	ldr	r3, [r4, #0]
  tickstart = HAL_GetTick();
 8004308:	0005      	movs	r5, r0
  if ((huart->Instance->CR1 & USART_CR1_TE) == USART_CR1_TE)
 800430a:	681b      	ldr	r3, [r3, #0]
 800430c:	071b      	lsls	r3, r3, #28
 800430e:	d416      	bmi.n	800433e <UART_CheckIdleState+0x46>
  if ((huart->Instance->CR1 & USART_CR1_RE) == USART_CR1_RE)
 8004310:	6823      	ldr	r3, [r4, #0]
 8004312:	681b      	ldr	r3, [r3, #0]
 8004314:	075b      	lsls	r3, r3, #29
 8004316:	d50a      	bpl.n	800432e <UART_CheckIdleState+0x36>
    if (UART_WaitOnFlagUntilTimeout(huart, USART_ISR_REACK, RESET, tickstart, HAL_UART_TIMEOUT_VALUE) != HAL_OK)
 8004318:	2180      	movs	r1, #128	; 0x80
 800431a:	4b0f      	ldr	r3, [pc, #60]	; (8004358 <UART_CheckIdleState+0x60>)
 800431c:	2200      	movs	r2, #0
 800431e:	9300      	str	r3, [sp, #0]
 8004320:	0020      	movs	r0, r4
 8004322:	002b      	movs	r3, r5
 8004324:	03c9      	lsls	r1, r1, #15
 8004326:	f7ff ff13 	bl	8004150 <UART_WaitOnFlagUntilTimeout>
 800432a:	2800      	cmp	r0, #0
 800432c:	d112      	bne.n	8004354 <UART_CheckIdleState+0x5c>
  huart->gState = HAL_UART_STATE_READY;
 800432e:	2320      	movs	r3, #32
  huart->ReceptionType = HAL_UART_RECEPTION_STANDARD;
 8004330:	2000      	movs	r0, #0
  huart->gState = HAL_UART_STATE_READY;
 8004332:	67a3      	str	r3, [r4, #120]	; 0x78
  huart->RxState = HAL_UART_STATE_READY;
 8004334:	67e3      	str	r3, [r4, #124]	; 0x7c
  huart->ReceptionType = HAL_UART_RECEPTION_STANDARD;
 8004336:	6620      	str	r0, [r4, #96]	; 0x60
  __HAL_UNLOCK(huart);
 8004338:	3474      	adds	r4, #116	; 0x74
 800433a:	7020      	strb	r0, [r4, #0]
  return HAL_OK;
 800433c:	e00b      	b.n	8004356 <UART_CheckIdleState+0x5e>
    if (UART_WaitOnFlagUntilTimeout(huart, USART_ISR_TEACK, RESET, tickstart, HAL_UART_TIMEOUT_VALUE) != HAL_OK)
 800433e:	2180      	movs	r1, #128	; 0x80
 8004340:	4b05      	ldr	r3, [pc, #20]	; (8004358 <UART_CheckIdleState+0x60>)
 8004342:	0032      	movs	r2, r6
 8004344:	9300      	str	r3, [sp, #0]
 8004346:	0389      	lsls	r1, r1, #14
 8004348:	0003      	movs	r3, r0
 800434a:	0020      	movs	r0, r4
 800434c:	f7ff ff00 	bl	8004150 <UART_WaitOnFlagUntilTimeout>
 8004350:	2800      	cmp	r0, #0
 8004352:	d0dd      	beq.n	8004310 <UART_CheckIdleState+0x18>
      return HAL_TIMEOUT;
 8004354:	2003      	movs	r0, #3
}
 8004356:	bd76      	pop	{r1, r2, r4, r5, r6, pc}
 8004358:	01ffffff 	.word	0x01ffffff

0800435c <HAL_UART_Init>:
{
 800435c:	b510      	push	{r4, lr}
 800435e:	1e04      	subs	r4, r0, #0
  if (huart == NULL)
 8004360:	d101      	bne.n	8004366 <HAL_UART_Init+0xa>
    return HAL_ERROR;
 8004362:	2001      	movs	r0, #1
}
 8004364:	bd10      	pop	{r4, pc}
  if (huart->gState == HAL_UART_STATE_RESET)
 8004366:	6f83      	ldr	r3, [r0, #120]	; 0x78
 8004368:	2b00      	cmp	r3, #0
 800436a:	d104      	bne.n	8004376 <HAL_UART_Init+0x1a>
    huart->Lock = HAL_UNLOCKED;
 800436c:	0002      	movs	r2, r0
 800436e:	3274      	adds	r2, #116	; 0x74
 8004370:	7013      	strb	r3, [r2, #0]
    HAL_UART_MspInit(huart);
 8004372:	f7fd fed5 	bl	8002120 <HAL_UART_MspInit>
  huart->gState = HAL_UART_STATE_BUSY;
 8004376:	2324      	movs	r3, #36	; 0x24
  __HAL_UART_DISABLE(huart);
 8004378:	2101      	movs	r1, #1
 800437a:	6822      	ldr	r2, [r4, #0]
  huart->gState = HAL_UART_STATE_BUSY;
 800437c:	67a3      	str	r3, [r4, #120]	; 0x78
  __HAL_UART_DISABLE(huart);
 800437e:	6813      	ldr	r3, [r2, #0]
  if (UART_SetConfig(huart) == HAL_ERROR)
 8004380:	0020      	movs	r0, r4
  __HAL_UART_DISABLE(huart);
 8004382:	438b      	bics	r3, r1
 8004384:	6013      	str	r3, [r2, #0]
  if (UART_SetConfig(huart) == HAL_ERROR)
 8004386:	f7ff fdef 	bl	8003f68 <UART_SetConfig>
 800438a:	2801      	cmp	r0, #1
 800438c:	d0e9      	beq.n	8004362 <HAL_UART_Init+0x6>
  if (huart->AdvancedInit.AdvFeatureInit != UART_ADVFEATURE_NO_INIT)
 800438e:	6a63      	ldr	r3, [r4, #36]	; 0x24
 8004390:	2b00      	cmp	r3, #0
 8004392:	d002      	beq.n	800439a <HAL_UART_Init+0x3e>
    UART_AdvFeatureConfig(huart);
 8004394:	0020      	movs	r0, r4
 8004396:	f7ff fe73 	bl	8004080 <UART_AdvFeatureConfig>
  CLEAR_BIT(huart->Instance->CR2, (USART_CR2_LINEN | USART_CR2_CLKEN));
 800439a:	6823      	ldr	r3, [r4, #0]
 800439c:	4907      	ldr	r1, [pc, #28]	; (80043bc <HAL_UART_Init+0x60>)
 800439e:	685a      	ldr	r2, [r3, #4]
  return (UART_CheckIdleState(huart));
 80043a0:	0020      	movs	r0, r4
  CLEAR_BIT(huart->Instance->CR2, (USART_CR2_LINEN | USART_CR2_CLKEN));
 80043a2:	400a      	ands	r2, r1
  CLEAR_BIT(huart->Instance->CR3, (USART_CR3_SCEN | USART_CR3_HDSEL | USART_CR3_IREN));
 80043a4:	212a      	movs	r1, #42	; 0x2a
  CLEAR_BIT(huart->Instance->CR2, (USART_CR2_LINEN | USART_CR2_CLKEN));
 80043a6:	605a      	str	r2, [r3, #4]
  CLEAR_BIT(huart->Instance->CR3, (USART_CR3_SCEN | USART_CR3_HDSEL | USART_CR3_IREN));
 80043a8:	689a      	ldr	r2, [r3, #8]
 80043aa:	438a      	bics	r2, r1
 80043ac:	609a      	str	r2, [r3, #8]
  __HAL_UART_ENABLE(huart);
 80043ae:	2201      	movs	r2, #1
 80043b0:	6819      	ldr	r1, [r3, #0]
 80043b2:	430a      	orrs	r2, r1
 80043b4:	601a      	str	r2, [r3, #0]
  return (UART_CheckIdleState(huart));
 80043b6:	f7ff ff9f 	bl	80042f8 <UART_CheckIdleState>
 80043ba:	e7d3      	b.n	8004364 <HAL_UART_Init+0x8>
 80043bc:	ffffb7ff 	.word	0xffffb7ff

080043c0 <VBS_GetAvBusVoltage_V>:
  * @brief  It return latest averaged Vbus measurement expressed in Volts
  * @param  pHandle related Handle of BusVoltageSensor_Handle_t
  * @retval uint16_t Latest averaged Vbus measurement in Volts
  */
__weak uint16_t VBS_GetAvBusVoltage_V( BusVoltageSensor_Handle_t * pHandle )
{
 80043c0:	0003      	movs	r3, r0
  uint32_t temp;

  temp = ( uint32_t )( pHandle->AvBusVoltage_d );
 80043c2:	88c0      	ldrh	r0, [r0, #6]
  temp *= pHandle->ConversionFactor;
 80043c4:	885b      	ldrh	r3, [r3, #2]
 80043c6:	4358      	muls	r0, r3
  temp /= 65536u;

  return ( ( uint16_t )temp );
 80043c8:	0c00      	lsrs	r0, r0, #16
}
 80043ca:	4770      	bx	lr

080043cc <Circle_Limitation>:
  * @param  pHandle pointer on the related component instance
  * @param  Vqd Voltage in qd reference frame
  * @retval qd_t Limited Vqd vector
  */
__weak qd_t Circle_Limitation( CircleLimitation_Handle_t * pHandle, qd_t Vqd )
{
 80043cc:	b51f      	push	{r0, r1, r2, r3, r4, lr}
 80043ce:	b20b      	sxth	r3, r1
 80043d0:	9101      	str	r1, [sp, #4]
 80043d2:	1409      	asrs	r1, r1, #16
  uint16_t table_element;
  uint32_t uw_temp;
  int32_t  sw_temp;
  qd_t local_vqd = Vqd;

  sw_temp = ( int32_t )( Vqd.q ) * Vqd.q +
 80043d4:	001a      	movs	r2, r3
            ( int32_t )( Vqd.d ) * Vqd.d;
 80043d6:	000c      	movs	r4, r1
  sw_temp = ( int32_t )( Vqd.q ) * Vqd.q +
 80043d8:	435a      	muls	r2, r3
            ( int32_t )( Vqd.d ) * Vqd.d;
 80043da:	434c      	muls	r4, r1
  sw_temp = ( int32_t )( Vqd.q ) * Vqd.q +
 80043dc:	1912      	adds	r2, r2, r4

  uw_temp = ( uint32_t ) sw_temp;

  /* uw_temp min value 0, max value 32767*32767 */
  if ( uw_temp > ( uint32_t )( pHandle->MaxModule ) * pHandle->MaxModule )
 80043de:	8804      	ldrh	r4, [r0, #0]
 80043e0:	4364      	muls	r4, r4
 80043e2:	4294      	cmp	r4, r2
 80043e4:	d217      	bcs.n	8004416 <Circle_Limitation+0x4a>
  {

    uw_temp /= ( uint32_t )( 16777216 );

    /* wtemp min value pHandle->Start_index, max value 127 */
    uw_temp -= pHandle->Start_index;
 80043e6:	0004      	movs	r4, r0
 80043e8:	34b2      	adds	r4, #178	; 0xb2
 80043ea:	7824      	ldrb	r4, [r4, #0]
    uw_temp /= ( uint32_t )( 16777216 );
 80043ec:	0e12      	lsrs	r2, r2, #24
    uw_temp -= pHandle->Start_index;
 80043ee:	1b12      	subs	r2, r2, r4

    /* uw_temp min value 0, max value 127 - pHandle->Start_index */
    table_element = pHandle->Circle_limit_table[( uint8_t )uw_temp];
 80043f0:	b2d2      	uxtb	r2, r2
 80043f2:	0052      	lsls	r2, r2, #1
 80043f4:	1880      	adds	r0, r0, r2

    sw_temp = Vqd.q * ( int32_t )table_element;
 80043f6:	8880      	ldrh	r0, [r0, #4]
 80043f8:	4343      	muls	r3, r0
 80043fa:	001c      	movs	r4, r3
    local_vqd.q = ( int16_t )( sw_temp / 32768 );

    sw_temp = Vqd.d * ( int32_t )( table_element );
 80043fc:	4348      	muls	r0, r1
    local_vqd.q = ( int16_t )( sw_temp / 32768 );
 80043fe:	17da      	asrs	r2, r3, #31
 8004400:	0452      	lsls	r2, r2, #17
 8004402:	0c53      	lsrs	r3, r2, #17
    local_vqd.d = ( int16_t )( sw_temp / 32768 );
 8004404:	17c2      	asrs	r2, r0, #31
 8004406:	0452      	lsls	r2, r2, #17
 8004408:	0c51      	lsrs	r1, r2, #17
    local_vqd.q = ( int16_t )( sw_temp / 32768 );
 800440a:	191b      	adds	r3, r3, r4
    local_vqd.d = ( int16_t )( sw_temp / 32768 );
 800440c:	1809      	adds	r1, r1, r0
    local_vqd.q = ( int16_t )( sw_temp / 32768 );
 800440e:	13db      	asrs	r3, r3, #15
    local_vqd.d = ( int16_t )( sw_temp / 32768 );
 8004410:	13c9      	asrs	r1, r1, #15
    local_vqd.q = ( int16_t )( sw_temp / 32768 );
 8004412:	b21b      	sxth	r3, r3
    local_vqd.d = ( int16_t )( sw_temp / 32768 );
 8004414:	b209      	sxth	r1, r1
  }

  return ( local_vqd );
 8004416:	0409      	lsls	r1, r1, #16
 8004418:	b298      	uxth	r0, r3
 800441a:	4308      	orrs	r0, r1
}
 800441c:	b004      	add	sp, #16
 800441e:	bd10      	pop	{r4, pc}

08004420 <DAC_SetChannelConfig>:
  */
__weak void DAC_SetChannelConfig(UI_Handle_t *pHandle, DAC_Channel_t bChannel,
                              MC_Protocol_REG_t bVariable)
{
  DAC_UI_Handle_t *pDacHandle = (DAC_UI_Handle_t *)pHandle;
  pDacHandle->bChannel_variable[bChannel] = bVariable;
 8004420:	1840      	adds	r0, r0, r1
 8004422:	3030      	adds	r0, #48	; 0x30
 8004424:	7002      	strb	r2, [r0, #0]
}
 8004426:	4770      	bx	lr

08004428 <DAC_GetChannelConfig>:
  *         MC_PROTOCOL_REG_I_A).
  */
__weak MC_Protocol_REG_t DAC_GetChannelConfig(UI_Handle_t *pHandle, DAC_Channel_t bChannel)
{
  DAC_UI_Handle_t *pDacHandle = (DAC_UI_Handle_t *)pHandle;
  return (pDacHandle->bChannel_variable[bChannel]);
 8004428:	1840      	adds	r0, r0, r1
 800442a:	3030      	adds	r0, #48	; 0x30
 800442c:	7800      	ldrb	r0, [r0, #0]
}
 800442e:	4770      	bx	lr

08004430 <DAC_SetUserChannelValue>:
  */
__weak void DAC_SetUserChannelValue(UI_Handle_t *pHandle, uint8_t bUserChNumber,
                              int16_t hValue)
{
  DAC_UI_Handle_t *pDacHandle = (DAC_UI_Handle_t *)pHandle;
  pDacHandle->hUserValue[bUserChNumber] = hValue;
 8004430:	3118      	adds	r1, #24
 8004432:	0049      	lsls	r1, r1, #1
 8004434:	1841      	adds	r1, r0, r1
 8004436:	804a      	strh	r2, [r1, #2]
}
 8004438:	4770      	bx	lr

0800443a <DAC_GetUserChannelValue>:
  * @retval none.
  */
__weak int16_t DAC_GetUserChannelValue(UI_Handle_t *pHandle, uint8_t bUserChNumber)
{
  DAC_UI_Handle_t *pDacHandle = (DAC_UI_Handle_t *)pHandle;
  return (pDacHandle->hUserValue[bUserChNumber]);
 800443a:	3118      	adds	r1, #24
 800443c:	0049      	lsls	r1, r1, #1
 800443e:	1840      	adds	r0, r0, r1
 8004440:	2302      	movs	r3, #2
 8004442:	5ec0      	ldrsh	r0, [r0, r3]
}
 8004444:	4770      	bx	lr

08004446 <FCP_Init>:
{
  pHandle->RxTimeoutCountdown = 0;

  pHandle->TxFrame.Code = 0x0;
  pHandle->TxFrame.Size = 0;
  pHandle->TxFrame.FrameCRC = 0;
 8004446:	0002      	movs	r2, r0
  pHandle->RxTimeoutCountdown = 0;
 8004448:	2300      	movs	r3, #0
  pHandle->TxFrame.FrameCRC = 0;
 800444a:	3296      	adds	r2, #150	; 0x96
  pHandle->RxTimeoutCountdown = 0;
 800444c:	8243      	strh	r3, [r0, #18]
  pHandle->TxFrame.Code = 0x0;
 800444e:	8283      	strh	r3, [r0, #20]
  pHandle->TxFrame.FrameCRC = 0;
 8004450:	8013      	strh	r3, [r2, #0]
  pHandle->TxFrameState = FCP_TRANSFER_IDLE;
  pHandle->TxFrameLevel = 0;
 8004452:	8053      	strh	r3, [r2, #2]

  pHandle->RxFrame.Code = 0x0;
  pHandle->RxFrame.Size = 0;
 8004454:	7113      	strb	r3, [r2, #4]
  pHandle->RxFrame.FrameCRC = 0;
  pHandle->RxFrameState = FCP_TRANSFER_IDLE;
 8004456:	30fe      	adds	r0, #254	; 0xfe
  pHandle->RxFrame.FrameCRC = 0;
 8004458:	3269      	adds	r2, #105	; 0x69
 800445a:	7713      	strb	r3, [r2, #28]
  pHandle->RxFrameState = FCP_TRANSFER_IDLE;
 800445c:	83c3      	strh	r3, [r0, #30]
  pHandle->RxFrameLevel = 0;
}
 800445e:	4770      	bx	lr

08004460 <FCP_SetClient>:
                    struct MCP_Handle_s * pClient,
                    FCP_SentFrameCallback_t pSentFrameCb,
                    FCP_ReceivedFrameCallback_t pReceviedFrameCb,
                    FCP_RxTimeoutCallback_t pRxTimeoutCb )
{
  if ( MC_NULL != pHandle )
 8004460:	2800      	cmp	r0, #0
 8004462:	d004      	beq.n	800446e <FCP_SetClient+0xe>
  {
    pHandle->ClientEntity = pClient;
    pHandle->ClientFrameSentCallback = pSentFrameCb;
    pHandle->ClientFrameReceivedCallback = pReceviedFrameCb;
 8004464:	6083      	str	r3, [r0, #8]
    pHandle->ClientRxTimeoutCallback = pRxTimeoutCb;
 8004466:	9b00      	ldr	r3, [sp, #0]
    pHandle->ClientEntity = pClient;
 8004468:	6001      	str	r1, [r0, #0]
    pHandle->ClientFrameSentCallback = pSentFrameCb;
 800446a:	6042      	str	r2, [r0, #4]
    pHandle->ClientRxTimeoutCallback = pRxTimeoutCb;
 800446c:	60c3      	str	r3, [r0, #12]
  }
}
 800446e:	4770      	bx	lr

08004470 <FCP_CalcCRC>:
    pHandle->RxTimeout = Timeout;
  }
}

__weak uint8_t FCP_CalcCRC( FCP_Frame_t * pFrame )
{
 8004470:	1e02      	subs	r2, r0, #0
  uint8_t nCRC = 0;
  uint16_t nSum = 0;
  uint8_t idx;

  if( MC_NULL != pFrame )
 8004472:	d008      	beq.n	8004486 <FCP_CalcCRC+0x16>
  {
    nSum += pFrame->Code;
    nSum += pFrame->Size;
 8004474:	7841      	ldrb	r1, [r0, #1]
    nSum += pFrame->Code;
 8004476:	7803      	ldrb	r3, [r0, #0]
    nSum += pFrame->Size;
 8004478:	185b      	adds	r3, r3, r1

    for ( idx = 0; idx < pFrame->Size; idx++ )
 800447a:	1841      	adds	r1, r0, r1
 800447c:	428a      	cmp	r2, r1
 800447e:	d103      	bne.n	8004488 <FCP_CalcCRC+0x18>
    {
      nSum += pFrame->Buffer[idx];
    }

    nCRC = (uint8_t)(nSum & 0xFF) ; // Low Byte of nSum
    nCRC += (uint8_t) (nSum >> 8) ; // High Byte of nSum
 8004480:	0a18      	lsrs	r0, r3, #8
 8004482:	1818      	adds	r0, r3, r0
 8004484:	b2c0      	uxtb	r0, r0
  }

  return nCRC ;
}
 8004486:	4770      	bx	lr
      nSum += pFrame->Buffer[idx];
 8004488:	7890      	ldrb	r0, [r2, #2]
 800448a:	3201      	adds	r2, #1
 800448c:	181b      	adds	r3, r3, r0
 800448e:	b29b      	uxth	r3, r3
    for ( idx = 0; idx < pFrame->Size; idx++ )
 8004490:	e7f4      	b.n	800447c <FCP_CalcCRC+0xc>
	...

08004494 <HALL_Init_Electrical_Angle>:
*         initialized.
* @param  pHandle: handler of the current instance of the hall_speed_pos_fdbk component
* @retval none
*/
static void HALL_Init_Electrical_Angle( HALL_Handle_t * pHandle )
{
 8004494:	0003      	movs	r3, r0
 8004496:	b5f0      	push	{r4, r5, r6, r7, lr}

  if ( pHandle->SensorPlacement == DEGREES_120 )
 8004498:	1c5e      	adds	r6, r3, #1
 800449a:	7ff6      	ldrb	r6, [r6, #31]
  {
    pHandle->HallState  = LL_GPIO_IsInputPinSet( pHandle->H3Port, pHandle->H3Pin ) << 2
                          | LL_GPIO_IsInputPinSet( pHandle->H2Port, pHandle->H2Pin ) << 1
 800449c:	6b82      	ldr	r2, [r0, #56]	; 0x38
 800449e:	6bc4      	ldr	r4, [r0, #60]	; 0x3c
    pHandle->HallState  = LL_GPIO_IsInputPinSet( pHandle->H3Port, pHandle->H3Pin ) << 2
 80044a0:	6c01      	ldr	r1, [r0, #64]	; 0x40
 80044a2:	6c47      	ldr	r7, [r0, #68]	; 0x44
                          | LL_GPIO_IsInputPinSet( pHandle->H1Port, pHandle->H1Pin );
 80044a4:	6b5d      	ldr	r5, [r3, #52]	; 0x34
 80044a6:	6b00      	ldr	r0, [r0, #48]	; 0x30
  if ( pHandle->SensorPlacement == DEGREES_120 )
 80044a8:	2e00      	cmp	r6, #0
 80044aa:	d11e      	bne.n	80044ea <HALL_Init_Electrical_Angle+0x56>
  *         @arg @ref LL_GPIO_PIN_ALL
  * @retval State of bit (1 or 0).
  */
__STATIC_INLINE uint32_t LL_GPIO_IsInputPinSet(GPIO_TypeDef *GPIOx, uint32_t PinMask)
{
  return (READ_BIT(GPIOx->IDR, PinMask) == (PinMask));
 80044ac:	690e      	ldr	r6, [r1, #16]
 80044ae:	6911      	ldr	r1, [r2, #16]
 80044b0:	403e      	ands	r6, r7
 80044b2:	6900      	ldr	r0, [r0, #16]
 80044b4:	4021      	ands	r1, r4
 80044b6:	1bf7      	subs	r7, r6, r7
 80044b8:	1b09      	subs	r1, r1, r4
 80044ba:	427a      	negs	r2, r7
 80044bc:	4157      	adcs	r7, r2
 80044be:	424a      	negs	r2, r1
 80044c0:	4151      	adcs	r1, r2
 80044c2:	4028      	ands	r0, r5
 80044c4:	1b40      	subs	r0, r0, r5
 80044c6:	4242      	negs	r2, r0
 80044c8:	4150      	adcs	r0, r2
    pHandle->HallState  = LL_GPIO_IsInputPinSet( pHandle->H3Port, pHandle->H3Pin ) << 2
 80044ca:	00bf      	lsls	r7, r7, #2
                          | LL_GPIO_IsInputPinSet( pHandle->H2Port, pHandle->H2Pin ) << 1
 80044cc:	0049      	lsls	r1, r1, #1
 80044ce:	4339      	orrs	r1, r7
                          | LL_GPIO_IsInputPinSet( pHandle->H1Port, pHandle->H1Pin );
 80044d0:	4308      	orrs	r0, r1
 80044d2:	001a      	movs	r2, r3
 80044d4:	32a6      	adds	r2, #166	; 0xa6
 80044d6:	7010      	strb	r0, [r2, #0]
    pHandle->HallState  = ( LL_GPIO_IsInputPinSet( pHandle->H2Port, pHandle->H2Pin ) ^ 1 ) << 2
                          | LL_GPIO_IsInputPinSet( pHandle->H3Port, pHandle->H3Pin ) << 1
                          | LL_GPIO_IsInputPinSet( pHandle->H1Port, pHandle->H1Pin );
  }

  switch ( pHandle->HallState )
 80044d8:	3801      	subs	r0, #1
 80044da:	2805      	cmp	r0, #5
 80044dc:	d82d      	bhi.n	800453a <HALL_Init_Electrical_Angle+0xa6>
 80044de:	8c5a      	ldrh	r2, [r3, #34]	; 0x22
 80044e0:	f7fb fe1c 	bl	800011c <__gnu_thumb1_case_uqi>
 80044e4:	29232521 	.word	0x29232521
 80044e8:	2719      	.short	0x2719
 80044ea:	6912      	ldr	r2, [r2, #16]
 80044ec:	6909      	ldr	r1, [r1, #16]
 80044ee:	6900      	ldr	r0, [r0, #16]
 80044f0:	4039      	ands	r1, r7
 80044f2:	4028      	ands	r0, r5
 80044f4:	1bc9      	subs	r1, r1, r7
 80044f6:	424e      	negs	r6, r1
 80044f8:	4171      	adcs	r1, r6
 80044fa:	1b40      	subs	r0, r0, r5
 80044fc:	4245      	negs	r5, r0
 80044fe:	4168      	adcs	r0, r5
 8004500:	4022      	ands	r2, r4
                          | LL_GPIO_IsInputPinSet( pHandle->H3Port, pHandle->H3Pin ) << 1
 8004502:	0049      	lsls	r1, r1, #1
 8004504:	1b12      	subs	r2, r2, r4
                          | LL_GPIO_IsInputPinSet( pHandle->H1Port, pHandle->H1Pin );
 8004506:	4308      	orrs	r0, r1
 8004508:	4251      	negs	r1, r2
 800450a:	414a      	adcs	r2, r1
    pHandle->HallState  = ( LL_GPIO_IsInputPinSet( pHandle->H2Port, pHandle->H2Pin ) ^ 1 ) << 2
 800450c:	2104      	movs	r1, #4
 800450e:	0092      	lsls	r2, r2, #2
 8004510:	404a      	eors	r2, r1
                          | LL_GPIO_IsInputPinSet( pHandle->H1Port, pHandle->H1Pin );
 8004512:	4310      	orrs	r0, r2
 8004514:	e7dd      	b.n	80044d2 <HALL_Init_Electrical_Angle+0x3e>
  {
    case STATE_5:
      pHandle->_Super.hElAngle = ( int16_t )( pHandle->PhaseShift + S16_60_PHASE_SHIFT / 2 );
 8004516:	490b      	ldr	r1, [pc, #44]	; (8004544 <HALL_Init_Electrical_Angle+0xb0>)
      break;
    case STATE_1:
      pHandle->_Super.hElAngle = ( int16_t )( pHandle->PhaseShift + S16_60_PHASE_SHIFT +
 8004518:	1852      	adds	r2, r2, r1
 800451a:	809a      	strh	r2, [r3, #4]
      pHandle->SensorIsReliable = false;
      break;
  }

  /* Initialize the measured angle */
  pHandle->MeasuredElAngle = pHandle->_Super.hElAngle;
 800451c:	001a      	movs	r2, r3
 800451e:	889b      	ldrh	r3, [r3, #4]
 8004520:	32ac      	adds	r2, #172	; 0xac
 8004522:	8013      	strh	r3, [r2, #0]

}
 8004524:	bdf0      	pop	{r4, r5, r6, r7, pc}
      pHandle->_Super.hElAngle = ( int16_t )( pHandle->PhaseShift + S16_60_PHASE_SHIFT +
 8004526:	4908      	ldr	r1, [pc, #32]	; (8004548 <HALL_Init_Electrical_Angle+0xb4>)
 8004528:	e7f6      	b.n	8004518 <HALL_Init_Electrical_Angle+0x84>
      pHandle->_Super.hElAngle = ( int16_t )( pHandle->PhaseShift + S16_120_PHASE_SHIFT +
 800452a:	4908      	ldr	r1, [pc, #32]	; (800454c <HALL_Init_Electrical_Angle+0xb8>)
 800452c:	e7f4      	b.n	8004518 <HALL_Init_Electrical_Angle+0x84>
      pHandle->_Super.hElAngle = ( int16_t )( pHandle->PhaseShift - S16_120_PHASE_SHIFT -
 800452e:	4908      	ldr	r1, [pc, #32]	; (8004550 <HALL_Init_Electrical_Angle+0xbc>)
 8004530:	e7f2      	b.n	8004518 <HALL_Init_Electrical_Angle+0x84>
      pHandle->_Super.hElAngle = ( int16_t )( pHandle->PhaseShift - S16_60_PHASE_SHIFT -
 8004532:	4908      	ldr	r1, [pc, #32]	; (8004554 <HALL_Init_Electrical_Angle+0xc0>)
 8004534:	e7f0      	b.n	8004518 <HALL_Init_Electrical_Angle+0x84>
      pHandle->_Super.hElAngle = ( int16_t )( pHandle->PhaseShift - S16_60_PHASE_SHIFT / 2 );
 8004536:	4908      	ldr	r1, [pc, #32]	; (8004558 <HALL_Init_Electrical_Angle+0xc4>)
 8004538:	e7ee      	b.n	8004518 <HALL_Init_Electrical_Angle+0x84>
      pHandle->SensorIsReliable = false;
 800453a:	001a      	movs	r2, r3
 800453c:	2100      	movs	r1, #0
 800453e:	3249      	adds	r2, #73	; 0x49
 8004540:	7011      	strb	r1, [r2, #0]
      break;
 8004542:	e7eb      	b.n	800451c <HALL_Init_Electrical_Angle+0x88>
 8004544:	00001555 	.word	0x00001555
 8004548:	00003fff 	.word	0x00003fff
 800454c:	00006aaa 	.word	0x00006aaa
 8004550:	ffff9556 	.word	0xffff9556
 8004554:	ffffc001 	.word	0xffffc001
 8004558:	ffffeaab 	.word	0xffffeaab

0800455c <HALL_Init>:
{
 800455c:	b5f0      	push	{r4, r5, r6, r7, lr}
                                     pHandle->_Super.bElToMecRatio;
 800455e:	7842      	ldrb	r2, [r0, #1]
  hMaxReliableElSpeedUnit *= 2u;
 8004560:	8a83      	ldrh	r3, [r0, #20]
{
 8004562:	b085      	sub	sp, #20
  hMaxReliableElSpeedUnit *= 2u;
 8004564:	4353      	muls	r3, r2
 8004566:	005b      	lsls	r3, r3, #1
 8004568:	b29b      	uxth	r3, r3
  uint16_t hMinReliableElSpeedUnit = pHandle->_Super.hMinReliableMecSpeedUnit *
 800456a:	8ac1      	ldrh	r1, [r0, #22]
  hMaxReliableElSpeedUnit *= 2u;
 800456c:	9301      	str	r3, [sp, #4]
  pHandle->OvfFreq = ( uint16_t )( pHandle->TIMClockFreq / 65536u );
 800456e:	0003      	movs	r3, r0
  uint16_t hMinReliableElSpeedUnit = pHandle->_Super.hMinReliableMecSpeedUnit *
 8004570:	4351      	muls	r1, r2
  pHandle->OvfFreq = ( uint16_t )( pHandle->TIMClockFreq / 65536u );
 8004572:	6a87      	ldr	r7, [r0, #40]	; 0x28
 8004574:	33c2      	adds	r3, #194	; 0xc2
 8004576:	0c3e      	lsrs	r6, r7, #16
  uint16_t hMinReliableElSpeedUnit = pHandle->_Super.hMinReliableMecSpeedUnit *
 8004578:	b289      	uxth	r1, r1
  TIM_TypeDef * TIMx = pHandle->TIMx;
 800457a:	6ac5      	ldr	r5, [r0, #44]	; 0x2c
{
 800457c:	0004      	movs	r4, r0
  pHandle->OvfFreq = ( uint16_t )( pHandle->TIMClockFreq / 65536u );
 800457e:	801e      	strh	r6, [r3, #0]
    pHandle->HallTimeout = 150u;
 8004580:	2096      	movs	r0, #150	; 0x96
  if ( hMinReliableElSpeedUnit == 0u )
 8004582:	2903      	cmp	r1, #3
 8004584:	d906      	bls.n	8004594 <HALL_Init+0x38>
    pHandle->HallTimeout = 1000*SPEED_UNIT / ( 6u * hMinReliableElSpeedUnit );
 8004586:	2306      	movs	r3, #6
 8004588:	0889      	lsrs	r1, r1, #2
 800458a:	4359      	muls	r1, r3
 800458c:	483b      	ldr	r0, [pc, #236]	; (800467c <HALL_Init+0x120>)
 800458e:	f7fb fde3 	bl	8000158 <__udivsi3>
 8004592:	b280      	uxth	r0, r0
 8004594:	0023      	movs	r3, r4
  pHandle->HALLMaxRatio = ( pHandle->HallTimeout * pHandle->OvfFreq ) / 1000 ;
 8004596:	21fa      	movs	r1, #250	; 0xfa
 8004598:	33c0      	adds	r3, #192	; 0xc0
 800459a:	8018      	strh	r0, [r3, #0]
 800459c:	0089      	lsls	r1, r1, #2
 800459e:	4370      	muls	r0, r6
 80045a0:	f7fb fe64 	bl	800026c <__divsi3>
 80045a4:	0023      	movs	r3, r4
 80045a6:	33b0      	adds	r3, #176	; 0xb0
 80045a8:	8018      	strh	r0, [r3, #0]
  pHandle->MaxPeriod = ( pHandle->HALLMaxRatio ) * 65536uL;
 80045aa:	b283      	uxth	r3, r0
 80045ac:	9303      	str	r3, [sp, #12]
 80045ae:	0023      	movs	r3, r4
  pHandle->SatSpeed = hMaxReliableElSpeedUnit;
 80045b0:	9a01      	ldr	r2, [sp, #4]
  pHandle->MaxPeriod = ( pHandle->HALLMaxRatio ) * 65536uL;
 80045b2:	33b8      	adds	r3, #184	; 0xb8
 80045b4:	0400      	lsls	r0, r0, #16
 80045b6:	6018      	str	r0, [r3, #0]
 80045b8:	9302      	str	r3, [sp, #8]
  pHandle->SatSpeed = hMaxReliableElSpeedUnit;
 80045ba:	3b06      	subs	r3, #6
 80045bc:	801a      	strh	r2, [r3, #0]
  pHandle->PseudoFreqConv = ( ( pHandle->TIMClockFreq / 6u )
 80045be:	2106      	movs	r1, #6
 80045c0:	0038      	movs	r0, r7
 80045c2:	f7fb fdc9 	bl	8000158 <__udivsi3>
                              / ( pHandle->_Super.hMeasurementFrequency ) ) * ( pHandle->_Super.DPPConvFactor);
 80045c6:	8b63      	ldrh	r3, [r4, #26]
  pHandle->PseudoFreqConv = ( ( pHandle->TIMClockFreq / 6u )
 80045c8:	0007      	movs	r7, r0
                              / ( pHandle->_Super.hMeasurementFrequency ) ) * ( pHandle->_Super.DPPConvFactor);
 80045ca:	0019      	movs	r1, r3
 80045cc:	9300      	str	r3, [sp, #0]
 80045ce:	f7fb fdc3 	bl	8000158 <__udivsi3>
  pHandle->PseudoFreqConv = ( ( pHandle->TIMClockFreq / 6u )
 80045d2:	0026      	movs	r6, r4
                              / ( pHandle->_Super.hMeasurementFrequency ) ) * ( pHandle->_Super.DPPConvFactor);
 80045d4:	69e3      	ldr	r3, [r4, #28]
  pHandle->PseudoFreqConv = ( ( pHandle->TIMClockFreq / 6u )
 80045d6:	36b4      	adds	r6, #180	; 0xb4
                              / ( pHandle->_Super.hMeasurementFrequency ) ) * ( pHandle->_Super.DPPConvFactor);
 80045d8:	4358      	muls	r0, r3
  pHandle->PseudoFreqConv = ( ( pHandle->TIMClockFreq / 6u )
 80045da:	6030      	str	r0, [r6, #0]
  pHandle->MinPeriod = ( ( SPEED_UNIT * ( pHandle->TIMClockFreq /6uL) ) 
 80045dc:	200a      	movs	r0, #10
                       / hMaxReliableElSpeedUnit);
 80045de:	9901      	ldr	r1, [sp, #4]
  pHandle->MinPeriod = ( ( SPEED_UNIT * ( pHandle->TIMClockFreq /6uL) ) 
 80045e0:	4378      	muls	r0, r7
                       / hMaxReliableElSpeedUnit);
 80045e2:	f7fb fdb9 	bl	8000158 <__udivsi3>
  pHandle->PWMNbrPSamplingFreq = ( (pHandle->_Super.hMeasurementFrequency * pHandle->PWMFreqScaling) /
 80045e6:	0023      	movs	r3, r4
  pHandle->MinPeriod = ( ( SPEED_UNIT * ( pHandle->TIMClockFreq /6uL) ) 
 80045e8:	60b0      	str	r0, [r6, #8]
  pHandle->PWMNbrPSamplingFreq = ( (pHandle->_Super.hMeasurementFrequency * pHandle->PWMFreqScaling) /
 80045ea:	33c6      	adds	r3, #198	; 0xc6
 80045ec:	7818      	ldrb	r0, [r3, #0]
 80045ee:	9b00      	ldr	r3, [sp, #0]
                                   pHandle->SpeedSamplingFreqHz ) - 1u;
 80045f0:	8ca1      	ldrh	r1, [r4, #36]	; 0x24
  pHandle->PWMNbrPSamplingFreq = ( (pHandle->_Super.hMeasurementFrequency * pHandle->PWMFreqScaling) /
 80045f2:	4358      	muls	r0, r3
 80045f4:	f7fb fe3a 	bl	800026c <__divsi3>
 80045f8:	0023      	movs	r3, r4
                                   pHandle->SpeedSamplingFreqHz ) - 1u;
 80045fa:	3801      	subs	r0, #1
  pHandle->PWMNbrPSamplingFreq = ( (pHandle->_Super.hMeasurementFrequency * pHandle->PWMFreqScaling) /
 80045fc:	33c4      	adds	r3, #196	; 0xc4
  pHandle->SensorIsReliable = true;
 80045fe:	0022      	movs	r2, r4
  pHandle->PWMNbrPSamplingFreq = ( (pHandle->_Super.hMeasurementFrequency * pHandle->PWMFreqScaling) /
 8004600:	8018      	strh	r0, [r3, #0]
  pHandle->SensorIsReliable = true;
 8004602:	2301      	movs	r3, #1
  pHandle->HallStateCounter = 0;
 8004604:	2000      	movs	r0, #0
  MODIFY_REG(*pReg, ((TIM_CCMR1_IC1F) << SHIFT_TAB_ICxx[iChannel]), (ICFilter >> 16U) << SHIFT_TAB_ICxx[iChannel]);
 8004606:	27f0      	movs	r7, #240	; 0xf0
  pHandle->SensorIsReliable = true;
 8004608:	3249      	adds	r2, #73	; 0x49
 800460a:	7013      	strb	r3, [r2, #0]
  pHandle->HallStateCounter = 0;
 800460c:	325e      	adds	r2, #94	; 0x5e
 800460e:	7010      	strb	r0, [r2, #0]
  LL_TIM_IC_SetFilter(TIMx, LL_TIM_CHANNEL_CH1, ( uint32_t )(pHandle->ICx_Filter) << 20);
 8004610:	3a5f      	subs	r2, #95	; 0x5f
 8004612:	69ae      	ldr	r6, [r5, #24]
 8004614:	7812      	ldrb	r2, [r2, #0]
 8004616:	43be      	bics	r6, r7
 8004618:	0112      	lsls	r2, r2, #4
 800461a:	4332      	orrs	r2, r6
  MODIFY_REG(TIMx->CR1, TIM_CR1_URS, UpdateSource);
 800461c:	2604      	movs	r6, #4
  MODIFY_REG(*pReg, ((TIM_CCMR1_IC1F) << SHIFT_TAB_ICxx[iChannel]), (ICFilter >> 16U) << SHIFT_TAB_ICxx[iChannel]);
 800461e:	61aa      	str	r2, [r5, #24]
  WRITE_REG(TIMx->PSC, Prescaler);
 8004620:	9a03      	ldr	r2, [sp, #12]
  pHandle->HallStateCounter = 0;
 8004622:	1de1      	adds	r1, r4, #7
 8004624:	62aa      	str	r2, [r5, #40]	; 0x28
  * @param  TIMx Timer instance
  * @retval None
  */
__STATIC_INLINE void LL_TIM_GenerateEvent_UPDATE(TIM_TypeDef *TIMx)
{
  SET_BIT(TIMx->EGR, TIM_EGR_UG);
 8004626:	696a      	ldr	r2, [r5, #20]
 8004628:	431a      	orrs	r2, r3
 800462a:	616a      	str	r2, [r5, #20]
  WRITE_REG (TIMx->SR, 0);
 800462c:	6128      	str	r0, [r5, #16]
  MODIFY_REG(TIMx->CR1, TIM_CR1_URS, UpdateSource);
 800462e:	682a      	ldr	r2, [r5, #0]
 8004630:	4332      	orrs	r2, r6
 8004632:	602a      	str	r2, [r5, #0]
  SET_BIT(TIMx->DIER, TIM_DIER_CC1IE);
 8004634:	2202      	movs	r2, #2
 8004636:	68ee      	ldr	r6, [r5, #12]
 8004638:	4332      	orrs	r2, r6
 800463a:	60ea      	str	r2, [r5, #12]
  SET_BIT(TIMx->DIER, TIM_DIER_UIE);
 800463c:	68ea      	ldr	r2, [r5, #12]
 800463e:	431a      	orrs	r2, r3
 8004640:	60ea      	str	r2, [r5, #12]
  WRITE_REG(TIMx->CNT, Counter);
 8004642:	6268      	str	r0, [r5, #36]	; 0x24
  SET_BIT(TIMx->CCER, Channels);
 8004644:	6a2a      	ldr	r2, [r5, #32]
 8004646:	431a      	orrs	r2, r3
 8004648:	622a      	str	r2, [r5, #32]
  SET_BIT(TIMx->CR1, TIM_CR1_CEN);
 800464a:	682a      	ldr	r2, [r5, #0]
 800464c:	4313      	orrs	r3, r2
 800464e:	0022      	movs	r2, r4
 8004650:	602b      	str	r3, [r5, #0]
  for ( bIndex = 0u; bIndex < bSpeedBufferSize; bIndex++ )
 8004652:	7fcb      	ldrb	r3, [r1, #31]
 8004654:	009b      	lsls	r3, r3, #2
 8004656:	191b      	adds	r3, r3, r4
 8004658:	429a      	cmp	r2, r3
 800465a:	d109      	bne.n	8004670 <HALL_Init+0x114>
  pHandle->HallCounterHomePosition = pHandle->HallStateCounter;
 800465c:	0023      	movs	r3, r4
 800465e:	2200      	movs	r2, #0
 8004660:	33a8      	adds	r3, #168	; 0xa8
 8004662:	701a      	strb	r2, [r3, #0]
  pHandle->HallStateHomePosition = pHandle->HallState;
 8004664:	3b02      	subs	r3, #2
 8004666:	781b      	ldrb	r3, [r3, #0]
 8004668:	34a9      	adds	r4, #169	; 0xa9
 800466a:	7023      	strb	r3, [r4, #0]
}
 800466c:	b005      	add	sp, #20
 800466e:	bdf0      	pop	{r4, r5, r6, r7, pc}
    pHandle->SensorPeriod[bIndex]  = pHandle->MaxPeriod;
 8004670:	9902      	ldr	r1, [sp, #8]
 8004672:	3204      	adds	r2, #4
 8004674:	6809      	ldr	r1, [r1, #0]
 8004676:	64d1      	str	r1, [r2, #76]	; 0x4c
 8004678:	9100      	str	r1, [sp, #0]
 800467a:	e7ed      	b.n	8004658 <HALL_Init+0xfc>
 800467c:	00002710 	.word	0x00002710

08004680 <HALL_Clear>:
{
 8004680:	b570      	push	{r4, r5, r6, lr}
  CLEAR_BIT(TIMx->DIER, TIM_DIER_CC1IE);
 8004682:	2402      	movs	r4, #2
  TIM_TypeDef * TIMx = pHandle->TIMx;
 8004684:	6ac2      	ldr	r2, [r0, #44]	; 0x2c
  pHandle->RatioDec = false;
 8004686:	0001      	movs	r1, r0
 8004688:	68d3      	ldr	r3, [r2, #12]
  pHandle->SensorIsReliable = true;
 800468a:	0005      	movs	r5, r0
 800468c:	43a3      	bics	r3, r4
 800468e:	60d3      	str	r3, [r2, #12]
  pHandle->RatioDec = false;
 8004690:	2300      	movs	r3, #0
 8004692:	314a      	adds	r1, #74	; 0x4a
 8004694:	700b      	strb	r3, [r1, #0]
  pHandle->RatioInc = false;
 8004696:	704b      	strb	r3, [r1, #1]
  pHandle->SensorIsReliable = true;
 8004698:	2101      	movs	r1, #1
 800469a:	3549      	adds	r5, #73	; 0x49
 800469c:	7029      	strb	r1, [r5, #0]
  pHandle->HallStateCounter = 0;
 800469e:	355e      	adds	r5, #94	; 0x5e
 80046a0:	702b      	strb	r3, [r5, #0]
  pHandle->FirstCapt = 0u;
 80046a2:	3d5b      	subs	r5, #91	; 0x5b
  pHandle->_Super.hMecAccelUnitP = 0;
 80046a4:	8243      	strh	r3, [r0, #18]
  pHandle->FirstCapt = 0u;
 80046a6:	702b      	strb	r3, [r5, #0]
  pHandle->BufferFilled = 0u;
 80046a8:	706b      	strb	r3, [r5, #1]
  pHandle->OVFCounter = 0u;
 80046aa:	70ab      	strb	r3, [r5, #2]
  pHandle->CompSpeed = 0;
 80046ac:	3562      	adds	r5, #98	; 0x62
 80046ae:	802b      	strh	r3, [r5, #0]
  pHandle->Direction = POSITIVE;
 80046b0:	3d0c      	subs	r5, #12
 80046b2:	7029      	strb	r1, [r5, #0]
  pHandle->SpeedFIFOIdx = 0u;
 80046b4:	3d0a      	subs	r5, #10
 80046b6:	702b      	strb	r3, [r5, #0]
  pHandle->_Super.bSpeedErrorNumber = 0;
 80046b8:	7003      	strb	r3, [r0, #0]
  pHandle->HallCounterHomePosition = 0;
 80046ba:	822b      	strh	r3, [r5, #16]
  LL_TIM_SetPrescaler ( TIMx, pHandle->HALLMaxRatio );
 80046bc:	3518      	adds	r5, #24
 80046be:	882d      	ldrh	r5, [r5, #0]
  WRITE_REG(TIMx->PSC, Prescaler);
 80046c0:	6295      	str	r5, [r2, #40]	; 0x28
  WRITE_REG(TIMx->CNT, Counter);
 80046c2:	6253      	str	r3, [r2, #36]	; 0x24
  SET_BIT(TIMx->CR1, TIM_CR1_CEN);
 80046c4:	6813      	ldr	r3, [r2, #0]
 80046c6:	4319      	orrs	r1, r3
 80046c8:	6011      	str	r1, [r2, #0]
  SET_BIT(TIMx->DIER, TIM_DIER_CC1IE);
 80046ca:	68d3      	ldr	r3, [r2, #12]
 80046cc:	431c      	orrs	r4, r3
 80046ce:	60d4      	str	r4, [r2, #12]
  HALL_Init_Electrical_Angle( pHandle );
 80046d0:	f7ff fee0 	bl	8004494 <HALL_Init_Electrical_Angle>
}
 80046d4:	bd70      	pop	{r4, r5, r6, pc}
	...

080046d8 <HALL_CalcElAngle>:
{
 80046d8:	b570      	push	{r4, r5, r6, lr}
 80046da:	0004      	movs	r4, r0
  if ( pHandle->_Super.hElSpeedDpp != HALL_MAX_PSEUDO_SPEED )
 80046dc:	230e      	movs	r3, #14
 80046de:	5ec1      	ldrsh	r1, [r0, r3]
 80046e0:	4a0c      	ldr	r2, [pc, #48]	; (8004714 <HALL_CalcElAngle+0x3c>)
    pHandle->_Super.hElAngle += pHandle->_Super.hElSpeedDpp + pHandle->CompSpeed;
 80046e2:	8883      	ldrh	r3, [r0, #4]
 80046e4:	34a0      	adds	r4, #160	; 0xa0
  if ( pHandle->_Super.hElSpeedDpp != HALL_MAX_PSEUDO_SPEED )
 80046e6:	4291      	cmp	r1, r2
 80046e8:	d00f      	beq.n	800470a <HALL_CalcElAngle+0x32>
    pHandle->MeasuredElAngle += pHandle->_Super.hElSpeedDpp;
 80046ea:	0006      	movs	r6, r0
 80046ec:	36ac      	adds	r6, #172	; 0xac
 80046ee:	8835      	ldrh	r5, [r6, #0]
 80046f0:	b28a      	uxth	r2, r1
 80046f2:	1955      	adds	r5, r2, r5
    pHandle->_Super.hElAngle += pHandle->_Super.hElSpeedDpp + pHandle->CompSpeed;
 80046f4:	18d2      	adds	r2, r2, r3
 80046f6:	0003      	movs	r3, r0
    pHandle->MeasuredElAngle += pHandle->_Super.hElSpeedDpp;
 80046f8:	8035      	strh	r5, [r6, #0]
    pHandle->_Super.hElAngle += pHandle->_Super.hElSpeedDpp + pHandle->CompSpeed;
 80046fa:	33ae      	adds	r3, #174	; 0xae
 80046fc:	881b      	ldrh	r3, [r3, #0]
 80046fe:	189a      	adds	r2, r3, r2
 8004700:	8082      	strh	r2, [r0, #4]
    pHandle->PrevRotorFreq = pHandle->_Super.hElSpeedDpp;
 8004702:	8021      	strh	r1, [r4, #0]
  return pHandle->_Super.hElAngle;
 8004704:	2304      	movs	r3, #4
 8004706:	5ec0      	ldrsh	r0, [r0, r3]
}
 8004708:	bd70      	pop	{r4, r5, r6, pc}
    pHandle->_Super.hElAngle += pHandle->PrevRotorFreq;
 800470a:	8822      	ldrh	r2, [r4, #0]
 800470c:	189b      	adds	r3, r3, r2
 800470e:	8083      	strh	r3, [r0, #4]
 8004710:	e7f8      	b.n	8004704 <HALL_CalcElAngle+0x2c>
 8004712:	46c0      	nop			; (mov r8, r8)
 8004714:	00007fff 	.word	0x00007fff

08004718 <HALL_CalcAvrgMecSpeedUnit>:
{
 8004718:	b5f8      	push	{r3, r4, r5, r6, r7, lr}
  if ( pHandle->SensorIsReliable )
 800471a:	0003      	movs	r3, r0
 800471c:	3349      	adds	r3, #73	; 0x49
{
 800471e:	0004      	movs	r4, r0
  if ( pHandle->SensorIsReliable )
 8004720:	7818      	ldrb	r0, [r3, #0]
{
 8004722:	000d      	movs	r5, r1
  if ( pHandle->SensorIsReliable )
 8004724:	2800      	cmp	r0, #0
 8004726:	d043      	beq.n	80047b0 <HALL_CalcAvrgMecSpeedUnit+0x98>
    if ( LL_TIM_GetPrescaler ( TIMx ) >= pHandle->HALLMaxRatio )
 8004728:	0022      	movs	r2, r4
  TIM_TypeDef * TIMx = pHandle->TIMx;
 800472a:	6ae3      	ldr	r3, [r4, #44]	; 0x2c
    if ( LL_TIM_GetPrescaler ( TIMx ) >= pHandle->HALLMaxRatio )
 800472c:	32b0      	adds	r2, #176	; 0xb0
  return (uint32_t)(READ_REG(TIMx->PSC));
 800472e:	6a9b      	ldr	r3, [r3, #40]	; 0x28
 8004730:	8812      	ldrh	r2, [r2, #0]
 8004732:	429a      	cmp	r2, r3
 8004734:	d803      	bhi.n	800473e <HALL_CalcAvrgMecSpeedUnit+0x26>
      pHandle->_Super.hElSpeedDpp = 0;
 8004736:	2300      	movs	r3, #0
 8004738:	81e3      	strh	r3, [r4, #14]
          *hMecSpeedUnit = ( int16_t )pHandle->SatSpeed;
 800473a:	802b      	strh	r3, [r5, #0]
 800473c:	e007      	b.n	800474e <HALL_CalcAvrgMecSpeedUnit+0x36>
      pHandle->_Super.hElSpeedDpp =  pHandle->AvrElSpeedDpp;
 800473e:	0023      	movs	r3, r4
 8004740:	33a4      	adds	r3, #164	; 0xa4
 8004742:	2600      	movs	r6, #0
 8004744:	5f9e      	ldrsh	r6, [r3, r6]
 8004746:	81e6      	strh	r6, [r4, #14]
      if (  pHandle->AvrElSpeedDpp == 0 )
 8004748:	2e00      	cmp	r6, #0
 800474a:	d108      	bne.n	800475e <HALL_CalcAvrgMecSpeedUnit+0x46>
        *hMecSpeedUnit = 0;
 800474c:	800e      	strh	r6, [r1, #0]
    bReliability = SPD_IsMecSpeedReliable( &pHandle->_Super, hMecSpeedUnit );
 800474e:	0029      	movs	r1, r5
 8004750:	0020      	movs	r0, r4
 8004752:	f001 f866 	bl	8005822 <SPD_IsMecSpeedReliable>
  pHandle->_Super.hAvrMecSpeedUnit = *hMecSpeedUnit;
 8004756:	2200      	movs	r2, #0
 8004758:	5eab      	ldrsh	r3, [r5, r2]
 800475a:	81a3      	strh	r3, [r4, #12]
}
 800475c:	bdf8      	pop	{r3, r4, r5, r6, r7, pc}
        if (  pHandle->AvrElSpeedDpp != HALL_MAX_PSEUDO_SPEED )
 800475e:	4b17      	ldr	r3, [pc, #92]	; (80047bc <HALL_CalcAvrgMecSpeedUnit+0xa4>)
 8004760:	429e      	cmp	r6, r3
 8004762:	d021      	beq.n	80047a8 <HALL_CalcAvrgMecSpeedUnit+0x90>
          if (pHandle->HallMtpa == true)
 8004764:	0023      	movs	r3, r4
 8004766:	0027      	movs	r7, r4
 8004768:	33c7      	adds	r3, #199	; 0xc7
 800476a:	781b      	ldrb	r3, [r3, #0]
 800476c:	37ae      	adds	r7, #174	; 0xae
 800476e:	2b00      	cmp	r3, #0
 8004770:	d00c      	beq.n	800478c <HALL_CalcAvrgMecSpeedUnit+0x74>
            pHandle->CompSpeed = 0;
 8004772:	2300      	movs	r3, #0
 8004774:	803b      	strh	r3, [r7, #0]
                                        ( int32_t )pHandle->_Super.hMeasurementFrequency * (int32_t) SPEED_UNIT ) /
 8004776:	8b60      	ldrh	r0, [r4, #26]
                                        (( int32_t ) pHandle->_Super.DPPConvFactor * ( int32_t )pHandle->_Super.bElToMecRatio ) );
 8004778:	69e3      	ldr	r3, [r4, #28]
          *hMecSpeedUnit = ( int16_t )( (  pHandle->AvrElSpeedDpp * 
 800477a:	4346      	muls	r6, r0
                                        ( int32_t )pHandle->_Super.hMeasurementFrequency * (int32_t) SPEED_UNIT ) /
 800477c:	200a      	movs	r0, #10
                                        (( int32_t ) pHandle->_Super.DPPConvFactor * ( int32_t )pHandle->_Super.bElToMecRatio ) );
 800477e:	7861      	ldrb	r1, [r4, #1]
                                        ( int32_t )pHandle->_Super.hMeasurementFrequency * (int32_t) SPEED_UNIT ) /
 8004780:	4370      	muls	r0, r6
                                        (( int32_t ) pHandle->_Super.DPPConvFactor * ( int32_t )pHandle->_Super.bElToMecRatio ) );
 8004782:	4359      	muls	r1, r3
                                        ( int32_t )pHandle->_Super.hMeasurementFrequency * (int32_t) SPEED_UNIT ) /
 8004784:	f7fb fd72 	bl	800026c <__divsi3>
          *hMecSpeedUnit = ( int16_t )( (  pHandle->AvrElSpeedDpp * 
 8004788:	8028      	strh	r0, [r5, #0]
 800478a:	e7e0      	b.n	800474e <HALL_CalcAvrgMecSpeedUnit+0x36>
            pHandle->DeltaAngle = pHandle->MeasuredElAngle - pHandle->_Super.hElAngle;
 800478c:	0023      	movs	r3, r4
 800478e:	33ac      	adds	r3, #172	; 0xac
 8004790:	8818      	ldrh	r0, [r3, #0]
 8004792:	88a3      	ldrh	r3, [r4, #4]
 8004794:	1ac0      	subs	r0, r0, r3
 8004796:	0023      	movs	r3, r4
 8004798:	b200      	sxth	r0, r0
 800479a:	33aa      	adds	r3, #170	; 0xaa
              ( int32_t )( pHandle->PWMNbrPSamplingFreq ) );
 800479c:	8b59      	ldrh	r1, [r3, #26]
            pHandle->DeltaAngle = pHandle->MeasuredElAngle - pHandle->_Super.hElAngle;
 800479e:	8018      	strh	r0, [r3, #0]
            ( ( int32_t )( pHandle->DeltaAngle ) /
 80047a0:	f7fb fd64 	bl	800026c <__divsi3>
            pHandle->CompSpeed = ( int16_t )
 80047a4:	8038      	strh	r0, [r7, #0]
 80047a6:	e7e6      	b.n	8004776 <HALL_CalcAvrgMecSpeedUnit+0x5e>
          *hMecSpeedUnit = ( int16_t )pHandle->SatSpeed;
 80047a8:	0023      	movs	r3, r4
 80047aa:	33b2      	adds	r3, #178	; 0xb2
 80047ac:	881b      	ldrh	r3, [r3, #0]
 80047ae:	e7c4      	b.n	800473a <HALL_CalcAvrgMecSpeedUnit+0x22>
    pHandle->_Super.bSpeedErrorNumber = pHandle->_Super.bMaximumSpeedErrorsNumber;
 80047b0:	78e3      	ldrb	r3, [r4, #3]
    pHandle->_Super.hElSpeedDpp = 0;
 80047b2:	81e0      	strh	r0, [r4, #14]
    pHandle->_Super.bSpeedErrorNumber = pHandle->_Super.bMaximumSpeedErrorsNumber;
 80047b4:	7023      	strb	r3, [r4, #0]
    *hMecSpeedUnit = 0;
 80047b6:	8008      	strh	r0, [r1, #0]
 80047b8:	e7cd      	b.n	8004756 <HALL_CalcAvrgMecSpeedUnit+0x3e>
 80047ba:	46c0      	nop			; (mov r8, r8)
 80047bc:	00007fff 	.word	0x00007fff

080047c0 <HALL_TIMx_CC_IRQHandler>:
  if ( pHandle->SensorIsReliable )
 80047c0:	0003      	movs	r3, r0
{
 80047c2:	b5f7      	push	{r0, r1, r2, r4, r5, r6, r7, lr}
  if ( pHandle->SensorIsReliable )
 80047c4:	3349      	adds	r3, #73	; 0x49
 80047c6:	781b      	ldrb	r3, [r3, #0]
{
 80047c8:	0004      	movs	r4, r0
  if ( pHandle->SensorIsReliable )
 80047ca:	2b00      	cmp	r3, #0
 80047cc:	d100      	bne.n	80047d0 <HALL_TIMx_CC_IRQHandler+0x10>
 80047ce:	e080      	b.n	80048d2 <HALL_TIMx_CC_IRQHandler+0x112>
    PrevDirection = pHandle->Direction;
 80047d0:	0002      	movs	r2, r0
    bPrevHallState = pHandle->HallState;
 80047d2:	0003      	movs	r3, r0
    PrevDirection = pHandle->Direction;
 80047d4:	32a2      	adds	r2, #162	; 0xa2
 80047d6:	7812      	ldrb	r2, [r2, #0]
    bPrevHallState = pHandle->HallState;
 80047d8:	33a6      	adds	r3, #166	; 0xa6
    PrevDirection = pHandle->Direction;
 80047da:	b252      	sxtb	r2, r2
    bPrevHallState = pHandle->HallState;
 80047dc:	781b      	ldrb	r3, [r3, #0]
                            | (LL_GPIO_IsInputPinSet( pHandle->H2Port, pHandle->H2Pin ) << 1)
 80047de:	6b87      	ldr	r7, [r0, #56]	; 0x38
    PrevDirection = pHandle->Direction;
 80047e0:	9201      	str	r2, [sp, #4]
      pHandle->HallState  =(uint8_t) ((LL_GPIO_IsInputPinSet( pHandle->H3Port, pHandle->H3Pin ) << 2)
 80047e2:	6c06      	ldr	r6, [r0, #64]	; 0x40
                            | (LL_GPIO_IsInputPinSet( pHandle->H2Port, pHandle->H2Pin ) << 1)
 80047e4:	6bc2      	ldr	r2, [r0, #60]	; 0x3c
      pHandle->HallState  =(uint8_t) ((LL_GPIO_IsInputPinSet( pHandle->H3Port, pHandle->H3Pin ) << 2)
 80047e6:	6c41      	ldr	r1, [r0, #68]	; 0x44
                            | LL_GPIO_IsInputPinSet( pHandle->H1Port, pHandle->H1Pin ) );
 80047e8:	6b00      	ldr	r0, [r0, #48]	; 0x30
    if ( pHandle->SensorPlacement == DEGREES_120 )
 80047ea:	1c65      	adds	r5, r4, #1
                            | LL_GPIO_IsInputPinSet( pHandle->H1Port, pHandle->H1Pin ) );
 80047ec:	9000      	str	r0, [sp, #0]
    if ( pHandle->SensorPlacement == DEGREES_120 )
 80047ee:	7fed      	ldrb	r5, [r5, #31]
                            | LL_GPIO_IsInputPinSet( pHandle->H1Port, pHandle->H1Pin ) );
 80047f0:	6b60      	ldr	r0, [r4, #52]	; 0x34
    if ( pHandle->SensorPlacement == DEGREES_120 )
 80047f2:	2d00      	cmp	r5, #0
 80047f4:	d121      	bne.n	800483a <HALL_TIMx_CC_IRQHandler+0x7a>
 80047f6:	6936      	ldr	r6, [r6, #16]
 80047f8:	693f      	ldr	r7, [r7, #16]
 80047fa:	400e      	ands	r6, r1
 80047fc:	4017      	ands	r7, r2
 80047fe:	1a71      	subs	r1, r6, r1
 8004800:	1aba      	subs	r2, r7, r2
 8004802:	424e      	negs	r6, r1
 8004804:	4171      	adcs	r1, r6
 8004806:	4256      	negs	r6, r2
 8004808:	4172      	adcs	r2, r6
 800480a:	9d00      	ldr	r5, [sp, #0]
      pHandle->HallState  =(uint8_t) ((LL_GPIO_IsInputPinSet( pHandle->H3Port, pHandle->H3Pin ) << 2)
 800480c:	0089      	lsls	r1, r1, #2
 800480e:	692d      	ldr	r5, [r5, #16]
                            | (LL_GPIO_IsInputPinSet( pHandle->H2Port, pHandle->H2Pin ) << 1)
 8004810:	0052      	lsls	r2, r2, #1
 8004812:	4005      	ands	r5, r0
 8004814:	1a28      	subs	r0, r5, r0
 8004816:	430a      	orrs	r2, r1
 8004818:	4241      	negs	r1, r0
 800481a:	4148      	adcs	r0, r1
      pHandle->HallState  = (uint8_t) ((( LL_GPIO_IsInputPinSet( pHandle->H2Port, pHandle->H2Pin ) ^ 1 ) << 2)
 800481c:	4310      	orrs	r0, r2
 800481e:	0022      	movs	r2, r4
 8004820:	32a6      	adds	r2, #166	; 0xa6
  TIM_TypeDef * TIMx = pHandle->TIMx;
 8004822:	6ae6      	ldr	r6, [r4, #44]	; 0x2c
 8004824:	7010      	strb	r0, [r2, #0]
    switch ( pHandle->HallState )
 8004826:	3801      	subs	r0, #1
 8004828:	3a04      	subs	r2, #4
 800482a:	2805      	cmp	r0, #5
 800482c:	d900      	bls.n	8004830 <HALL_TIMx_CC_IRQHandler+0x70>
 800482e:	e0b0      	b.n	8004992 <HALL_TIMx_CC_IRQHandler+0x1d2>
 8004830:	f7fb fc74 	bl	800011c <__gnu_thumb1_case_uqi>
 8004834:	9c727f5f 	.word	0x9c727f5f
 8004838:	8d19      	.short	0x8d19
 800483a:	9d00      	ldr	r5, [sp, #0]
 800483c:	693f      	ldr	r7, [r7, #16]
 800483e:	6936      	ldr	r6, [r6, #16]
 8004840:	692d      	ldr	r5, [r5, #16]
 8004842:	400e      	ands	r6, r1
 8004844:	4005      	ands	r5, r0
 8004846:	1a71      	subs	r1, r6, r1
 8004848:	424e      	negs	r6, r1
 800484a:	4171      	adcs	r1, r6
 800484c:	1a28      	subs	r0, r5, r0
 800484e:	4245      	negs	r5, r0
 8004850:	4168      	adcs	r0, r5
 8004852:	4017      	ands	r7, r2
                            | (LL_GPIO_IsInputPinSet( pHandle->H3Port, pHandle->H3Pin ) << 1)
 8004854:	0049      	lsls	r1, r1, #1
 8004856:	1aba      	subs	r2, r7, r2
      pHandle->HallState  = (uint8_t) ((( LL_GPIO_IsInputPinSet( pHandle->H2Port, pHandle->H2Pin ) ^ 1 ) << 2)
 8004858:	4308      	orrs	r0, r1
 800485a:	4251      	negs	r1, r2
 800485c:	414a      	adcs	r2, r1
 800485e:	2704      	movs	r7, #4
 8004860:	0092      	lsls	r2, r2, #2
 8004862:	407a      	eors	r2, r7
 8004864:	e7da      	b.n	800481c <HALL_TIMx_CC_IRQHandler+0x5c>
        if ( bPrevHallState == STATE_4 )
 8004866:	2b04      	cmp	r3, #4
 8004868:	d135      	bne.n	80048d6 <HALL_TIMx_CC_IRQHandler+0x116>
          pHandle->Direction = POSITIVE;
 800486a:	3b03      	subs	r3, #3
 800486c:	7013      	strb	r3, [r2, #0]
          pHandle->MeasuredElAngle = pHandle->PhaseShift;
 800486e:	0023      	movs	r3, r4
 8004870:	8c61      	ldrh	r1, [r4, #34]	; 0x22
 8004872:	33ac      	adds	r3, #172	; 0xac
 8004874:	8019      	strh	r1, [r3, #0]
          pHandle->HallStateCounter++;
 8004876:	0021      	movs	r1, r4
 8004878:	31a7      	adds	r1, #167	; 0xa7
		  pHandle->HallStateCounter++;
 800487a:	780b      	ldrb	r3, [r1, #0]
 800487c:	3301      	adds	r3, #1
		  pHandle->HallStateCounter--;
 800487e:	700b      	strb	r3, [r1, #0]
    if(pHandle->Direction == POSITIVE && pHandle->HallStateCounter == 72 )
 8004880:	2500      	movs	r5, #0
 8004882:	5755      	ldrsb	r5, [r2, r5]
 8004884:	2d01      	cmp	r5, #1
 8004886:	d000      	beq.n	800488a <HALL_TIMx_CC_IRQHandler+0xca>
 8004888:	e088      	b.n	800499c <HALL_TIMx_CC_IRQHandler+0x1dc>
 800488a:	0023      	movs	r3, r4
 800488c:	33a7      	adds	r3, #167	; 0xa7
 800488e:	781a      	ldrb	r2, [r3, #0]
 8004890:	2a48      	cmp	r2, #72	; 0x48
 8004892:	d101      	bne.n	8004898 <HALL_TIMx_CC_IRQHandler+0xd8>
  	  pHandle->HallStateCounter = 0;
 8004894:	2200      	movs	r2, #0
 8004896:	701a      	strb	r2, [r3, #0]
    if (pHandle->Direction != PrevDirection)
 8004898:	9b01      	ldr	r3, [sp, #4]
 800489a:	429d      	cmp	r5, r3
 800489c:	d005      	beq.n	80048aa <HALL_TIMx_CC_IRQHandler+0xea>
      pHandle->BufferFilled = 0 ;
 800489e:	0023      	movs	r3, r4
 80048a0:	2200      	movs	r2, #0
 80048a2:	334d      	adds	r3, #77	; 0x4d
 80048a4:	701a      	strb	r2, [r3, #0]
      pHandle->SpeedFIFOIdx = 0;
 80048a6:	334b      	adds	r3, #75	; 0x4b
 80048a8:	701a      	strb	r2, [r3, #0]
    if (pHandle->HallMtpa == true)
 80048aa:	0023      	movs	r3, r4
 80048ac:	33c7      	adds	r3, #199	; 0xc7
 80048ae:	781b      	ldrb	r3, [r3, #0]
 80048b0:	2b00      	cmp	r3, #0
 80048b2:	d003      	beq.n	80048bc <HALL_TIMx_CC_IRQHandler+0xfc>
      pHandle->_Super.hElAngle = pHandle->MeasuredElAngle;
 80048b4:	0023      	movs	r3, r4
 80048b6:	33ac      	adds	r3, #172	; 0xac
 80048b8:	881b      	ldrh	r3, [r3, #0]
 80048ba:	80a3      	strh	r3, [r4, #4]
    if ( pHandle->FirstCapt == 0u )
 80048bc:	0022      	movs	r2, r4
 80048be:	324c      	adds	r2, #76	; 0x4c
 80048c0:	7813      	ldrb	r3, [r2, #0]
 80048c2:	2b00      	cmp	r3, #0
 80048c4:	d000      	beq.n	80048c8 <HALL_TIMx_CC_IRQHandler+0x108>
 80048c6:	e077      	b.n	80049b8 <HALL_TIMx_CC_IRQHandler+0x1f8>
      pHandle->FirstCapt++;
 80048c8:	7813      	ldrb	r3, [r2, #0]
 80048ca:	3301      	adds	r3, #1
 80048cc:	b2db      	uxtb	r3, r3
 80048ce:	7013      	strb	r3, [r2, #0]
  return (uint32_t)(READ_REG(TIMx->CCR1));
 80048d0:	6b73      	ldr	r3, [r6, #52]	; 0x34
}
 80048d2:	2000      	movs	r0, #0
 80048d4:	bdfe      	pop	{r1, r2, r3, r4, r5, r6, r7, pc}
        else if ( bPrevHallState == STATE_1 )
 80048d6:	2b01      	cmp	r3, #1
 80048d8:	d1d2      	bne.n	8004880 <HALL_TIMx_CC_IRQHandler+0xc0>
          pHandle->Direction = NEGATIVE;
 80048da:	33fe      	adds	r3, #254	; 0xfe
 80048dc:	7013      	strb	r3, [r2, #0]
          pHandle->MeasuredElAngle = ( int16_t )( pHandle->PhaseShift + S16_60_PHASE_SHIFT );
 80048de:	8c63      	ldrh	r3, [r4, #34]	; 0x22
 80048e0:	4985      	ldr	r1, [pc, #532]	; (8004af8 <HALL_TIMx_CC_IRQHandler+0x338>)
          pHandle->MeasuredElAngle = ( int16_t )( pHandle->PhaseShift - S16_60_PHASE_SHIFT );
 80048e2:	185b      	adds	r3, r3, r1
 80048e4:	0021      	movs	r1, r4
 80048e6:	31ac      	adds	r1, #172	; 0xac
 80048e8:	800b      	strh	r3, [r1, #0]
		  pHandle->HallStateCounter--;
 80048ea:	3905      	subs	r1, #5
		  pHandle->HallStateCounter--;
 80048ec:	780b      	ldrb	r3, [r1, #0]
 80048ee:	3b01      	subs	r3, #1
 80048f0:	e7c5      	b.n	800487e <HALL_TIMx_CC_IRQHandler+0xbe>
        if ( bPrevHallState == STATE_5 )
 80048f2:	2b05      	cmp	r3, #5
 80048f4:	d109      	bne.n	800490a <HALL_TIMx_CC_IRQHandler+0x14a>
          pHandle->Direction = POSITIVE;
 80048f6:	3b04      	subs	r3, #4
 80048f8:	7013      	strb	r3, [r2, #0]
          pHandle->MeasuredElAngle = pHandle->PhaseShift + S16_60_PHASE_SHIFT;
 80048fa:	8c63      	ldrh	r3, [r4, #34]	; 0x22
 80048fc:	497e      	ldr	r1, [pc, #504]	; (8004af8 <HALL_TIMx_CC_IRQHandler+0x338>)
          pHandle->MeasuredElAngle = ( int16_t )( pHandle->PhaseShift - S16_60_PHASE_SHIFT );
 80048fe:	185b      	adds	r3, r3, r1
 8004900:	0021      	movs	r1, r4
 8004902:	31ac      	adds	r1, #172	; 0xac
 8004904:	800b      	strh	r3, [r1, #0]
		  pHandle->HallStateCounter++;
 8004906:	3905      	subs	r1, #5
 8004908:	e7b7      	b.n	800487a <HALL_TIMx_CC_IRQHandler+0xba>
        else if ( bPrevHallState == STATE_3 )
 800490a:	2b03      	cmp	r3, #3
 800490c:	d1b8      	bne.n	8004880 <HALL_TIMx_CC_IRQHandler+0xc0>
          pHandle->Direction = NEGATIVE;
 800490e:	33fc      	adds	r3, #252	; 0xfc
 8004910:	7013      	strb	r3, [r2, #0]
          pHandle->MeasuredElAngle = ( int16_t )( pHandle->PhaseShift + S16_120_PHASE_SHIFT );
 8004912:	8c63      	ldrh	r3, [r4, #34]	; 0x22
 8004914:	4979      	ldr	r1, [pc, #484]	; (8004afc <HALL_TIMx_CC_IRQHandler+0x33c>)
 8004916:	e7e4      	b.n	80048e2 <HALL_TIMx_CC_IRQHandler+0x122>
        if ( bPrevHallState == STATE_1 )
 8004918:	2b01      	cmp	r3, #1
 800491a:	d103      	bne.n	8004924 <HALL_TIMx_CC_IRQHandler+0x164>
          pHandle->Direction = POSITIVE;
 800491c:	7013      	strb	r3, [r2, #0]
          pHandle->MeasuredElAngle = ( int16_t )( pHandle->PhaseShift + S16_120_PHASE_SHIFT );
 800491e:	8c63      	ldrh	r3, [r4, #34]	; 0x22
 8004920:	4976      	ldr	r1, [pc, #472]	; (8004afc <HALL_TIMx_CC_IRQHandler+0x33c>)
 8004922:	e7ec      	b.n	80048fe <HALL_TIMx_CC_IRQHandler+0x13e>
        else if ( bPrevHallState == STATE_2 )
 8004924:	2b02      	cmp	r3, #2
 8004926:	d1ab      	bne.n	8004880 <HALL_TIMx_CC_IRQHandler+0xc0>
          pHandle->Direction = NEGATIVE;
 8004928:	33fd      	adds	r3, #253	; 0xfd
 800492a:	7013      	strb	r3, [r2, #0]
          pHandle->MeasuredElAngle = ( int16_t )( pHandle->PhaseShift + S16_120_PHASE_SHIFT +
 800492c:	8c63      	ldrh	r3, [r4, #34]	; 0x22
 800492e:	4974      	ldr	r1, [pc, #464]	; (8004b00 <HALL_TIMx_CC_IRQHandler+0x340>)
 8004930:	e7d7      	b.n	80048e2 <HALL_TIMx_CC_IRQHandler+0x122>
        if ( bPrevHallState == STATE_3 )
 8004932:	2b03      	cmp	r3, #3
 8004934:	d104      	bne.n	8004940 <HALL_TIMx_CC_IRQHandler+0x180>
          pHandle->Direction = POSITIVE;
 8004936:	3b02      	subs	r3, #2
 8004938:	7013      	strb	r3, [r2, #0]
                                                  + S16_60_PHASE_SHIFT );
 800493a:	8c63      	ldrh	r3, [r4, #34]	; 0x22
 800493c:	4970      	ldr	r1, [pc, #448]	; (8004b00 <HALL_TIMx_CC_IRQHandler+0x340>)
 800493e:	e7de      	b.n	80048fe <HALL_TIMx_CC_IRQHandler+0x13e>
        else if ( bPrevHallState == STATE_6 )
 8004940:	2b06      	cmp	r3, #6
 8004942:	d19d      	bne.n	8004880 <HALL_TIMx_CC_IRQHandler+0xc0>
          pHandle->Direction = NEGATIVE;
 8004944:	33f9      	adds	r3, #249	; 0xf9
 8004946:	7013      	strb	r3, [r2, #0]
          pHandle->MeasuredElAngle = ( int16_t )( pHandle->PhaseShift - S16_120_PHASE_SHIFT );
 8004948:	8c63      	ldrh	r3, [r4, #34]	; 0x22
 800494a:	496e      	ldr	r1, [pc, #440]	; (8004b04 <HALL_TIMx_CC_IRQHandler+0x344>)
 800494c:	e7c9      	b.n	80048e2 <HALL_TIMx_CC_IRQHandler+0x122>
        if ( bPrevHallState == STATE_2 )
 800494e:	2b02      	cmp	r3, #2
 8004950:	d104      	bne.n	800495c <HALL_TIMx_CC_IRQHandler+0x19c>
          pHandle->Direction = POSITIVE;
 8004952:	3b01      	subs	r3, #1
 8004954:	7013      	strb	r3, [r2, #0]
          pHandle->MeasuredElAngle = ( int16_t )( pHandle->PhaseShift - S16_120_PHASE_SHIFT );
 8004956:	8c63      	ldrh	r3, [r4, #34]	; 0x22
 8004958:	496a      	ldr	r1, [pc, #424]	; (8004b04 <HALL_TIMx_CC_IRQHandler+0x344>)
 800495a:	e7d0      	b.n	80048fe <HALL_TIMx_CC_IRQHandler+0x13e>
        else if ( bPrevHallState == STATE_4 )
 800495c:	2b04      	cmp	r3, #4
 800495e:	d000      	beq.n	8004962 <HALL_TIMx_CC_IRQHandler+0x1a2>
 8004960:	e78e      	b.n	8004880 <HALL_TIMx_CC_IRQHandler+0xc0>
          pHandle->Direction = NEGATIVE;
 8004962:	33fb      	adds	r3, #251	; 0xfb
 8004964:	7013      	strb	r3, [r2, #0]
          pHandle->MeasuredElAngle = ( int16_t )( pHandle->PhaseShift - S16_60_PHASE_SHIFT );
 8004966:	8c63      	ldrh	r3, [r4, #34]	; 0x22
 8004968:	4967      	ldr	r1, [pc, #412]	; (8004b08 <HALL_TIMx_CC_IRQHandler+0x348>)
 800496a:	e7ba      	b.n	80048e2 <HALL_TIMx_CC_IRQHandler+0x122>
        if ( bPrevHallState == STATE_6 )
 800496c:	2b06      	cmp	r3, #6
 800496e:	d104      	bne.n	800497a <HALL_TIMx_CC_IRQHandler+0x1ba>
          pHandle->Direction = POSITIVE;
 8004970:	3b05      	subs	r3, #5
 8004972:	7013      	strb	r3, [r2, #0]
          pHandle->MeasuredElAngle = ( int16_t )( pHandle->PhaseShift - S16_60_PHASE_SHIFT );
 8004974:	8c63      	ldrh	r3, [r4, #34]	; 0x22
 8004976:	4964      	ldr	r1, [pc, #400]	; (8004b08 <HALL_TIMx_CC_IRQHandler+0x348>)
 8004978:	e7c1      	b.n	80048fe <HALL_TIMx_CC_IRQHandler+0x13e>
        else if ( bPrevHallState == STATE_5 )
 800497a:	2b05      	cmp	r3, #5
 800497c:	d000      	beq.n	8004980 <HALL_TIMx_CC_IRQHandler+0x1c0>
 800497e:	e77f      	b.n	8004880 <HALL_TIMx_CC_IRQHandler+0xc0>
          pHandle->Direction = NEGATIVE;
 8004980:	33fa      	adds	r3, #250	; 0xfa
 8004982:	7013      	strb	r3, [r2, #0]
          pHandle->MeasuredElAngle = ( int16_t )( pHandle->PhaseShift );
 8004984:	0023      	movs	r3, r4
 8004986:	8c61      	ldrh	r1, [r4, #34]	; 0x22
 8004988:	33ac      	adds	r3, #172	; 0xac
 800498a:	8019      	strh	r1, [r3, #0]
		  pHandle->HallStateCounter--;
 800498c:	0021      	movs	r1, r4
 800498e:	31a7      	adds	r1, #167	; 0xa7
 8004990:	e7ac      	b.n	80048ec <HALL_TIMx_CC_IRQHandler+0x12c>
        pHandle->SensorIsReliable = false;
 8004992:	0023      	movs	r3, r4
 8004994:	2100      	movs	r1, #0
 8004996:	3349      	adds	r3, #73	; 0x49
 8004998:	7019      	strb	r1, [r3, #0]
        break;
 800499a:	e771      	b.n	8004880 <HALL_TIMx_CC_IRQHandler+0xc0>
    else if(pHandle->Direction == NEGATIVE && (pHandle->HallStateCounter == 0 || pHandle->HallStateCounter == 255))
 800499c:	1c6b      	adds	r3, r5, #1
 800499e:	d000      	beq.n	80049a2 <HALL_TIMx_CC_IRQHandler+0x1e2>
 80049a0:	e77a      	b.n	8004898 <HALL_TIMx_CC_IRQHandler+0xd8>
 80049a2:	0022      	movs	r2, r4
 80049a4:	32a7      	adds	r2, #167	; 0xa7
 80049a6:	7813      	ldrb	r3, [r2, #0]
 80049a8:	3b01      	subs	r3, #1
 80049aa:	b2db      	uxtb	r3, r3
 80049ac:	2bfd      	cmp	r3, #253	; 0xfd
 80049ae:	d800      	bhi.n	80049b2 <HALL_TIMx_CC_IRQHandler+0x1f2>
 80049b0:	e772      	b.n	8004898 <HALL_TIMx_CC_IRQHandler+0xd8>
  	  pHandle->HallStateCounter = 71;
 80049b2:	2347      	movs	r3, #71	; 0x47
 80049b4:	7013      	strb	r3, [r2, #0]
 80049b6:	e76f      	b.n	8004898 <HALL_TIMx_CC_IRQHandler+0xd8>
      if ( pHandle->BufferFilled < pHandle->SpeedBufferSize )
 80049b8:	0022      	movs	r2, r4
 80049ba:	1de1      	adds	r1, r4, #7
 80049bc:	324d      	adds	r2, #77	; 0x4d
 80049be:	7813      	ldrb	r3, [r2, #0]
 80049c0:	7fc9      	ldrb	r1, [r1, #31]
 80049c2:	428b      	cmp	r3, r1
 80049c4:	d203      	bcs.n	80049ce <HALL_TIMx_CC_IRQHandler+0x20e>
        pHandle->BufferFilled++;
 80049c6:	7813      	ldrb	r3, [r2, #0]
 80049c8:	3301      	adds	r3, #1
 80049ca:	b2db      	uxtb	r3, r3
 80049cc:	7013      	strb	r3, [r2, #0]
 80049ce:	6b73      	ldr	r3, [r6, #52]	; 0x34
      wCaptBuf += ( uint32_t )pHandle->OVFCounter * 0x10000uL;
 80049d0:	4668      	mov	r0, sp
 80049d2:	9300      	str	r3, [sp, #0]
 80049d4:	234e      	movs	r3, #78	; 0x4e
 80049d6:	469c      	mov	ip, r3
 80049d8:	44a4      	add	ip, r4
 80049da:	4663      	mov	r3, ip
  return (uint32_t)(READ_REG(TIMx->PSC));
 80049dc:	6ab2      	ldr	r2, [r6, #40]	; 0x28
 80049de:	781b      	ldrb	r3, [r3, #0]
 80049e0:	8800      	ldrh	r0, [r0, #0]
 80049e2:	041b      	lsls	r3, r3, #16
 80049e4:	18c0      	adds	r0, r0, r3
      if ( pHandle->OVFCounter != 0u )
 80049e6:	4663      	mov	r3, ip
 80049e8:	781b      	ldrb	r3, [r3, #0]
      hPrscBuf =  LL_TIM_GetPrescaler ( TIMx );
 80049ea:	b292      	uxth	r2, r2
      if ( pHandle->OVFCounter != 0u )
 80049ec:	b2df      	uxtb	r7, r3
 80049ee:	2b00      	cmp	r3, #0
 80049f0:	d04e      	beq.n	8004a90 <HALL_TIMx_CC_IRQHandler+0x2d0>
        hAux = hPrscBuf + 1u;
 80049f2:	3201      	adds	r2, #1
        wCaptBuf *= hAux;
 80049f4:	b293      	uxth	r3, r2
        if ( pHandle->RatioInc )
 80049f6:	0022      	movs	r2, r4
 80049f8:	324b      	adds	r2, #75	; 0x4b
        wCaptBuf *= hAux;
 80049fa:	4343      	muls	r3, r0
        if ( pHandle->RatioInc )
 80049fc:	7810      	ldrb	r0, [r2, #0]
 80049fe:	2800      	cmp	r0, #0
 8004a00:	d03b      	beq.n	8004a7a <HALL_TIMx_CC_IRQHandler+0x2ba>
          pHandle->RatioInc = false;  /* Previous capture caused overflow */
 8004a02:	2000      	movs	r0, #0
            pHandle->RatioInc = true;   /* new prsc value updated at next capture only */
 8004a04:	7010      	strb	r0, [r2, #0]
        if ( wCaptBuf < pHandle->MinPeriod )
 8004a06:	0022      	movs	r2, r4
 8004a08:	32bc      	adds	r2, #188	; 0xbc
 8004a0a:	6812      	ldr	r2, [r2, #0]
 8004a0c:	429a      	cmp	r2, r3
 8004a0e:	d830      	bhi.n	8004a72 <HALL_TIMx_CC_IRQHandler+0x2b2>
          pHandle->ElPeriodSum -= pHandle->SensorPeriod[pHandle->SpeedFIFOIdx]; /* value we gonna removed from the accumulator */
 8004a10:	2298      	movs	r2, #152	; 0x98
 8004a12:	4694      	mov	ip, r2
 8004a14:	44a4      	add	ip, r4
 8004a16:	4662      	mov	r2, ip
 8004a18:	0020      	movs	r0, r4
 8004a1a:	7812      	ldrb	r2, [r2, #0]
 8004a1c:	309c      	adds	r0, #156	; 0x9c
 8004a1e:	0096      	lsls	r6, r2, #2
 8004a20:	19a6      	adds	r6, r4, r6
 8004a22:	6d37      	ldr	r7, [r6, #80]	; 0x50
 8004a24:	9200      	str	r2, [sp, #0]
 8004a26:	6802      	ldr	r2, [r0, #0]
 8004a28:	1bd2      	subs	r2, r2, r7
          if ( wCaptBuf >= pHandle->MaxPeriod )
 8004a2a:	0027      	movs	r7, r4
 8004a2c:	37b8      	adds	r7, #184	; 0xb8
 8004a2e:	683f      	ldr	r7, [r7, #0]
          pHandle->ElPeriodSum -= pHandle->SensorPeriod[pHandle->SpeedFIFOIdx]; /* value we gonna removed from the accumulator */
 8004a30:	6002      	str	r2, [r0, #0]
          if ( wCaptBuf >= pHandle->MaxPeriod )
 8004a32:	429f      	cmp	r7, r3
 8004a34:	d84c      	bhi.n	8004ad0 <HALL_TIMx_CC_IRQHandler+0x310>
            pHandle->SensorPeriod[pHandle->SpeedFIFOIdx] = pHandle->MaxPeriod*pHandle->Direction; 
 8004a36:	436f      	muls	r7, r5
 8004a38:	6537      	str	r7, [r6, #80]	; 0x50
          pHandle->SpeedFIFOIdx++;
 8004a3a:	9a00      	ldr	r2, [sp, #0]
 8004a3c:	3201      	adds	r2, #1
 8004a3e:	b2d2      	uxtb	r2, r2
          if ( pHandle->SpeedFIFOIdx == pHandle->SpeedBufferSize )
 8004a40:	4291      	cmp	r1, r2
 8004a42:	d04b      	beq.n	8004adc <HALL_TIMx_CC_IRQHandler+0x31c>
            pHandle->SpeedFIFOIdx = 0u;
 8004a44:	4666      	mov	r6, ip
 8004a46:	7032      	strb	r2, [r6, #0]
          if ( pHandle->SensorIsReliable) 
 8004a48:	0022      	movs	r2, r4
 8004a4a:	0026      	movs	r6, r4
 8004a4c:	3249      	adds	r2, #73	; 0x49
 8004a4e:	7812      	ldrb	r2, [r2, #0]
 8004a50:	36a4      	adds	r6, #164	; 0xa4
 8004a52:	2a00      	cmp	r2, #0
 8004a54:	d04d      	beq.n	8004af2 <HALL_TIMx_CC_IRQHandler+0x332>
            if ( pHandle->BufferFilled < pHandle->SpeedBufferSize )
 8004a56:	0022      	movs	r2, r4
              pHandle->AvrElSpeedDpp = ( int16_t ) (( pHandle->PseudoFreqConv / wCaptBuf )*pHandle->Direction);
 8004a58:	0027      	movs	r7, r4
            if ( pHandle->BufferFilled < pHandle->SpeedBufferSize )
 8004a5a:	324d      	adds	r2, #77	; 0x4d
 8004a5c:	7812      	ldrb	r2, [r2, #0]
              pHandle->AvrElSpeedDpp = ( int16_t ) (( pHandle->PseudoFreqConv / wCaptBuf )*pHandle->Direction);
 8004a5e:	37b4      	adds	r7, #180	; 0xb4
 8004a60:	683f      	ldr	r7, [r7, #0]
            if ( pHandle->BufferFilled < pHandle->SpeedBufferSize )
 8004a62:	4291      	cmp	r1, r2
 8004a64:	d93c      	bls.n	8004ae0 <HALL_TIMx_CC_IRQHandler+0x320>
              pHandle->AvrElSpeedDpp = ( int16_t ) (( pHandle->PseudoFreqConv / wCaptBuf )*pHandle->Direction);
 8004a66:	0019      	movs	r1, r3
 8004a68:	0038      	movs	r0, r7
 8004a6a:	f7fb fb75 	bl	8000158 <__udivsi3>
 8004a6e:	4345      	muls	r5, r0
 8004a70:	8035      	strh	r5, [r6, #0]
      pHandle->OVFCounter = 0u;
 8004a72:	2300      	movs	r3, #0
 8004a74:	344e      	adds	r4, #78	; 0x4e
 8004a76:	7023      	strb	r3, [r4, #0]
 8004a78:	e72b      	b.n	80048d2 <HALL_TIMx_CC_IRQHandler+0x112>
          if ( LL_TIM_GetPrescaler ( TIMx ) < pHandle->HALLMaxRatio ) /* Avoid OVF w/ very low freq */
 8004a7a:	0027      	movs	r7, r4
 8004a7c:	37b0      	adds	r7, #176	; 0xb0
 8004a7e:	6ab0      	ldr	r0, [r6, #40]	; 0x28
 8004a80:	883f      	ldrh	r7, [r7, #0]
 8004a82:	4287      	cmp	r7, r0
 8004a84:	d9bf      	bls.n	8004a06 <HALL_TIMx_CC_IRQHandler+0x246>
 8004a86:	6ab0      	ldr	r0, [r6, #40]	; 0x28
            LL_TIM_SetPrescaler ( TIMx, LL_TIM_GetPrescaler ( TIMx ) + 1 ); /* To avoid OVF during speed decrease */
 8004a88:	3001      	adds	r0, #1
  WRITE_REG(TIMx->PSC, Prescaler);
 8004a8a:	62b0      	str	r0, [r6, #40]	; 0x28
            pHandle->RatioInc = true;   /* new prsc value updated at next capture only */
 8004a8c:	2001      	movs	r0, #1
 8004a8e:	e7b9      	b.n	8004a04 <HALL_TIMx_CC_IRQHandler+0x244>
        if ( pHandle->RatioDec ) /* and don't decrease it again */
 8004a90:	234a      	movs	r3, #74	; 0x4a
 8004a92:	469c      	mov	ip, r3
 8004a94:	44a4      	add	ip, r4
 8004a96:	4663      	mov	r3, ip
 8004a98:	781b      	ldrb	r3, [r3, #0]
 8004a9a:	2b00      	cmp	r3, #0
 8004a9c:	d005      	beq.n	8004aaa <HALL_TIMx_CC_IRQHandler+0x2ea>
          hAux = hPrscBuf + 2u;
 8004a9e:	3202      	adds	r2, #2
          wCaptBuf *= hAux;
 8004aa0:	b293      	uxth	r3, r2
 8004aa2:	4343      	muls	r3, r0
          pHandle->RatioDec = false;
 8004aa4:	4662      	mov	r2, ip
 8004aa6:	0038      	movs	r0, r7
 8004aa8:	e7ac      	b.n	8004a04 <HALL_TIMx_CC_IRQHandler+0x244>
          uint16_t hAux = hPrscBuf + 1u;
 8004aaa:	3201      	adds	r2, #1
          wCaptBuf *= hAux;
 8004aac:	b293      	uxth	r3, r2
 8004aae:	4343      	muls	r3, r0
          if ( hHighSpeedCapture < LOW_RES_THRESHOLD ) /* If capture range correct */
 8004ab0:	4668      	mov	r0, sp
 8004ab2:	22aa      	movs	r2, #170	; 0xaa
 8004ab4:	8807      	ldrh	r7, [r0, #0]
 8004ab6:	01d2      	lsls	r2, r2, #7
 8004ab8:	4297      	cmp	r7, r2
 8004aba:	d2a4      	bcs.n	8004a06 <HALL_TIMx_CC_IRQHandler+0x246>
  return (uint32_t)(READ_REG(TIMx->PSC));
 8004abc:	6ab2      	ldr	r2, [r6, #40]	; 0x28
            if ( LL_TIM_GetPrescaler ( TIMx ) > 0u ) /* or prescaler cannot be further reduced */
 8004abe:	2a00      	cmp	r2, #0
 8004ac0:	d0a1      	beq.n	8004a06 <HALL_TIMx_CC_IRQHandler+0x246>
 8004ac2:	6ab2      	ldr	r2, [r6, #40]	; 0x28
              pHandle->RatioDec = true;
 8004ac4:	4660      	mov	r0, ip
              LL_TIM_SetPrescaler ( TIMx, LL_TIM_GetPrescaler ( TIMx ) - 1 ); /* Increase accuracy by decreasing prsc */
 8004ac6:	3a01      	subs	r2, #1
  WRITE_REG(TIMx->PSC, Prescaler);
 8004ac8:	62b2      	str	r2, [r6, #40]	; 0x28
              pHandle->RatioDec = true;
 8004aca:	2201      	movs	r2, #1
 8004acc:	7002      	strb	r2, [r0, #0]
 8004ace:	e79a      	b.n	8004a06 <HALL_TIMx_CC_IRQHandler+0x246>
            pHandle->SensorPeriod[pHandle->SpeedFIFOIdx] *= pHandle->Direction;
 8004ad0:	002f      	movs	r7, r5
 8004ad2:	435f      	muls	r7, r3
            pHandle->ElPeriodSum += pHandle->SensorPeriod[pHandle->SpeedFIFOIdx];
 8004ad4:	19d2      	adds	r2, r2, r7
            pHandle->SensorPeriod[pHandle->SpeedFIFOIdx] *= pHandle->Direction;
 8004ad6:	6537      	str	r7, [r6, #80]	; 0x50
            pHandle->ElPeriodSum += pHandle->SensorPeriod[pHandle->SpeedFIFOIdx];
 8004ad8:	6002      	str	r2, [r0, #0]
 8004ada:	e7ae      	b.n	8004a3a <HALL_TIMx_CC_IRQHandler+0x27a>
            pHandle->SpeedFIFOIdx = 0u;
 8004adc:	2200      	movs	r2, #0
 8004ade:	e7b1      	b.n	8004a44 <HALL_TIMx_CC_IRQHandler+0x284>
              pHandle->AvrElSpeedDpp = ( int16_t )((int32_t) pHandle->PseudoFreqConv / ( pHandle->ElPeriodSum / pHandle->SpeedBufferSize )); /* Average value */
 8004ae0:	6800      	ldr	r0, [r0, #0]
 8004ae2:	f7fb fbc3 	bl	800026c <__divsi3>
 8004ae6:	0001      	movs	r1, r0
 8004ae8:	0038      	movs	r0, r7
 8004aea:	f7fb fbbf 	bl	800026c <__divsi3>
 8004aee:	8030      	strh	r0, [r6, #0]
 8004af0:	e7bf      	b.n	8004a72 <HALL_TIMx_CC_IRQHandler+0x2b2>
            pHandle->AvrElSpeedDpp = 0;
 8004af2:	8032      	strh	r2, [r6, #0]
 8004af4:	e7bd      	b.n	8004a72 <HALL_TIMx_CC_IRQHandler+0x2b2>
 8004af6:	46c0      	nop			; (mov r8, r8)
 8004af8:	00002aaa 	.word	0x00002aaa
 8004afc:	00005555 	.word	0x00005555
 8004b00:	00007fff 	.word	0x00007fff
 8004b04:	ffffaaab 	.word	0xffffaaab
 8004b08:	ffffd556 	.word	0xffffd556

08004b0c <HALL_TIMx_UP_IRQHandler>:
  if ( pHandle->SensorIsReliable )
 8004b0c:	0003      	movs	r3, r0
{
 8004b0e:	b570      	push	{r4, r5, r6, lr}
  if ( pHandle->SensorIsReliable )
 8004b10:	3349      	adds	r3, #73	; 0x49
 8004b12:	781b      	ldrb	r3, [r3, #0]
{
 8004b14:	0004      	movs	r4, r0
  if ( pHandle->SensorIsReliable )
 8004b16:	2b00      	cmp	r3, #0
 8004b18:	d036      	beq.n	8004b88 <HALL_TIMx_UP_IRQHandler+0x7c>
    pHandle->OVFCounter++;
 8004b1a:	0005      	movs	r5, r0
 8004b1c:	354e      	adds	r5, #78	; 0x4e
 8004b1e:	782b      	ldrb	r3, [r5, #0]
  TIM_TypeDef * TIMx = pHandle->TIMx;
 8004b20:	6ac2      	ldr	r2, [r0, #44]	; 0x2c
    pHandle->OVFCounter++;
 8004b22:	3301      	adds	r3, #1
 8004b24:	b2db      	uxtb	r3, r3
 8004b26:	702b      	strb	r3, [r5, #0]
  return (uint32_t)(READ_REG(TIMx->PSC));
 8004b28:	6a91      	ldr	r1, [r2, #40]	; 0x28
    hMaxTimerOverflow = ( uint16_t )( ( ( uint32_t )pHandle->HallTimeout * pHandle->OvfFreq )
 8004b2a:	0003      	movs	r3, r0
 8004b2c:	0002      	movs	r2, r0
 8004b2e:	33c0      	adds	r3, #192	; 0xc0
 8004b30:	32c2      	adds	r2, #194	; 0xc2
 8004b32:	881b      	ldrh	r3, [r3, #0]
 8004b34:	8810      	ldrh	r0, [r2, #0]
    if ( pHandle->OVFCounter >= hMaxTimerOverflow )
 8004b36:	782e      	ldrb	r6, [r5, #0]
    hMaxTimerOverflow = ( uint16_t )( ( ( uint32_t )pHandle->HallTimeout * pHandle->OvfFreq )
 8004b38:	4358      	muls	r0, r3
                                      / ( ( LL_TIM_GetPrescaler ( TIMx ) + 1 ) * 1000u ) );
 8004b3a:	1c4b      	adds	r3, r1, #1
 8004b3c:	21fa      	movs	r1, #250	; 0xfa
 8004b3e:	0089      	lsls	r1, r1, #2
 8004b40:	4359      	muls	r1, r3
 8004b42:	f7fb fb09 	bl	8000158 <__udivsi3>
    if ( pHandle->OVFCounter >= hMaxTimerOverflow )
 8004b46:	b2f6      	uxtb	r6, r6
 8004b48:	b280      	uxth	r0, r0
 8004b4a:	4286      	cmp	r6, r0
 8004b4c:	d31c      	bcc.n	8004b88 <HALL_TIMx_UP_IRQHandler+0x7c>
      pHandle->_Super.hElSpeedDpp = 0;
 8004b4e:	2600      	movs	r6, #0
      HALL_Init_Electrical_Angle( pHandle );
 8004b50:	0020      	movs	r0, r4
      pHandle->_Super.hElSpeedDpp = 0;
 8004b52:	81e6      	strh	r6, [r4, #14]
      HALL_Init_Electrical_Angle( pHandle );
 8004b54:	f7ff fc9e 	bl	8004494 <HALL_Init_Electrical_Angle>
      pHandle->FirstCapt = 0u;
 8004b58:	0023      	movs	r3, r4
 8004b5a:	0022      	movs	r2, r4
 8004b5c:	334c      	adds	r3, #76	; 0x4c
      pHandle->OVFCounter = 0u;
 8004b5e:	702e      	strb	r6, [r5, #0]
      pHandle->FirstCapt = 0u;
 8004b60:	701e      	strb	r6, [r3, #0]
      for ( bIndex = 0u; bIndex < pHandle->SpeedBufferSize; bIndex++ )
 8004b62:	1de3      	adds	r3, r4, #7
 8004b64:	7fdb      	ldrb	r3, [r3, #31]
        pHandle->SensorPeriod[bIndex]  = pHandle->MaxPeriod;
 8004b66:	356a      	adds	r5, #106	; 0x6a
 8004b68:	0099      	lsls	r1, r3, #2
 8004b6a:	1909      	adds	r1, r1, r4
 8004b6c:	6828      	ldr	r0, [r5, #0]
      for ( bIndex = 0u; bIndex < pHandle->SpeedBufferSize; bIndex++ )
 8004b6e:	428a      	cmp	r2, r1
 8004b70:	d10c      	bne.n	8004b8c <HALL_TIMx_UP_IRQHandler+0x80>
      pHandle->BufferFilled = 0 ;
 8004b72:	0021      	movs	r1, r4
 8004b74:	2200      	movs	r2, #0
      pHandle->ElPeriodSum =pHandle->MaxPeriod * pHandle->SpeedBufferSize;
 8004b76:	4343      	muls	r3, r0
      pHandle->BufferFilled = 0 ;
 8004b78:	314d      	adds	r1, #77	; 0x4d
 8004b7a:	700a      	strb	r2, [r1, #0]
      pHandle->AvrElSpeedDpp = 0;
 8004b7c:	3157      	adds	r1, #87	; 0x57
 8004b7e:	800a      	strh	r2, [r1, #0]
      pHandle->ElPeriodSum =pHandle->MaxPeriod * pHandle->SpeedBufferSize;
 8004b80:	349c      	adds	r4, #156	; 0x9c
      pHandle->SpeedFIFOIdx = 0;
 8004b82:	390c      	subs	r1, #12
 8004b84:	700a      	strb	r2, [r1, #0]
      pHandle->ElPeriodSum =pHandle->MaxPeriod * pHandle->SpeedBufferSize;
 8004b86:	6023      	str	r3, [r4, #0]
}
 8004b88:	2000      	movs	r0, #0
 8004b8a:	bd70      	pop	{r4, r5, r6, pc}
        pHandle->SensorPeriod[bIndex]  = pHandle->MaxPeriod;
 8004b8c:	6510      	str	r0, [r2, #80]	; 0x50
      for ( bIndex = 0u; bIndex < pHandle->SpeedBufferSize; bIndex++ )
 8004b8e:	3204      	adds	r2, #4
 8004b90:	e7ec      	b.n	8004b6c <HALL_TIMx_UP_IRQHandler+0x60>

08004b92 <MPM_Clear>:
__weak void MPM_Clear( MotorPowMeas_Handle_t * pHandle )
{
  uint16_t i;
  for ( i = 0u; i < MPM_BUFFER_LENGHT; i++ )
  {
    pHandle->hMeasBuffer[i] = 0;
 8004b92:	2280      	movs	r2, #128	; 0x80
{
 8004b94:	b510      	push	{r4, lr}
    pHandle->hMeasBuffer[i] = 0;
 8004b96:	2100      	movs	r1, #0
{
 8004b98:	0004      	movs	r4, r0
    pHandle->hMeasBuffer[i] = 0;
 8004b9a:	0052      	lsls	r2, r2, #1
 8004b9c:	f001 f935 	bl	8005e0a <memset>
  }
  pHandle->hNextMeasBufferIndex = 0u;
 8004ba0:	2300      	movs	r3, #0
 8004ba2:	34fe      	adds	r4, #254	; 0xfe
 8004ba4:	8063      	strh	r3, [r4, #2]
  pHandle->hLastMeasBufferIndex = 0u;
 8004ba6:	80a3      	strh	r3, [r4, #4]

}
 8004ba8:	bd10      	pop	{r4, pc}

08004baa <MPM_CalcElMotorPower>:
  *         motor power.
  * @param pHandle pointer on the related component instance.
  * @retval int16_t The measured motor power expressed in watt.
  */
__weak int16_t MPM_CalcElMotorPower( MotorPowMeas_Handle_t * pHandle, int16_t CurrentMotorPower )
{
 8004baa:	0003      	movs	r3, r0
 8004bac:	b570      	push	{r4, r5, r6, lr}
  uint16_t i;
  int32_t wAux = 0;

  /* Store the measured values in the buffer.*/
  pHandle->hMeasBuffer[pHandle->hNextMeasBufferIndex] = CurrentMotorPower;
 8004bae:	001c      	movs	r4, r3
{
 8004bb0:	0008      	movs	r0, r1
  pHandle->hMeasBuffer[pHandle->hNextMeasBufferIndex] = CurrentMotorPower;
 8004bb2:	34fe      	adds	r4, #254	; 0xfe
 8004bb4:	8862      	ldrh	r2, [r4, #2]
 8004bb6:	0051      	lsls	r1, r2, #1
 8004bb8:	52c8      	strh	r0, [r1, r3]
  pHandle->hLastMeasBufferIndex = pHandle->hNextMeasBufferIndex;
 8004bba:	80a2      	strh	r2, [r4, #4]
  pHandle->hNextMeasBufferIndex++;
 8004bbc:	3201      	adds	r2, #1
 8004bbe:	b292      	uxth	r2, r2
  if ( pHandle->hNextMeasBufferIndex >= MPM_BUFFER_LENGHT )
 8004bc0:	2a7f      	cmp	r2, #127	; 0x7f
 8004bc2:	d810      	bhi.n	8004be6 <MPM_CalcElMotorPower+0x3c>
  {
    pHandle->hNextMeasBufferIndex = 0u;
 8004bc4:	8062      	strh	r2, [r4, #2]
  int32_t wAux = 0;
 8004bc6:	2200      	movs	r2, #0
 8004bc8:	1c59      	adds	r1, r3, #1
 8004bca:	31ff      	adds	r1, #255	; 0xff
  }
  /* Compute the average measured motor power */
  for ( i = 0u; i < MPM_BUFFER_LENGHT; i++ )
  {
    wAux += ( int32_t )( pHandle->hMeasBuffer[i] );
 8004bcc:	2600      	movs	r6, #0
 8004bce:	5f9d      	ldrsh	r5, [r3, r6]
  for ( i = 0u; i < MPM_BUFFER_LENGHT; i++ )
 8004bd0:	3302      	adds	r3, #2
    wAux += ( int32_t )( pHandle->hMeasBuffer[i] );
 8004bd2:	1952      	adds	r2, r2, r5
  for ( i = 0u; i < MPM_BUFFER_LENGHT; i++ )
 8004bd4:	428b      	cmp	r3, r1
 8004bd6:	d1f9      	bne.n	8004bcc <MPM_CalcElMotorPower+0x22>
  }
  wAux /= ( int32_t )MPM_BUFFER_LENGHT;
 8004bd8:	217f      	movs	r1, #127	; 0x7f
 8004bda:	17d3      	asrs	r3, r2, #31
 8004bdc:	400b      	ands	r3, r1
 8004bde:	189b      	adds	r3, r3, r2
 8004be0:	11db      	asrs	r3, r3, #7
  pHandle->hAvrgElMotorPowerW = ( int16_t )( wAux );
 8004be2:	80e3      	strh	r3, [r4, #6]
  /* Return the last measured motor power */
  return CurrentMotorPower;
}
 8004be4:	bd70      	pop	{r4, r5, r6, pc}
    pHandle->hNextMeasBufferIndex = 0u;
 8004be6:	2200      	movs	r2, #0
 8004be8:	e7ec      	b.n	8004bc4 <MPM_CalcElMotorPower+0x1a>

08004bea <MPM_GetAvrgElMotorPowerW>:
  * @param pHandle pointer on the related component instance.
  * @retval int16_t The average measured motor power expressed in watt.
  */
__weak int16_t MPM_GetAvrgElMotorPowerW( MotorPowMeas_Handle_t * pHandle )
{
  return ( pHandle->hAvrgElMotorPowerW );
 8004bea:	30fe      	adds	r0, #254	; 0xfe
 8004bec:	2306      	movs	r3, #6
 8004bee:	5ec0      	ldrsh	r0, [r0, r3]
}
 8004bf0:	4770      	bx	lr

08004bf2 <NTC_SetFaultState>:
  */
__weak uint16_t NTC_SetFaultState( NTC_Handle_t * pHandle )
{
  uint16_t hFault;

  if ( pHandle->hAvTemp_d > pHandle->hOverTempThreshold )
 8004bf2:	8a02      	ldrh	r2, [r0, #16]
 8004bf4:	8b41      	ldrh	r1, [r0, #26]
{
 8004bf6:	0003      	movs	r3, r0
  {
    hFault = MC_OVER_TEMP;
 8004bf8:	2008      	movs	r0, #8
  if ( pHandle->hAvTemp_d > pHandle->hOverTempThreshold )
 8004bfa:	4291      	cmp	r1, r2
 8004bfc:	d304      	bcc.n	8004c08 <NTC_SetFaultState+0x16>
  }
  else if ( pHandle->hAvTemp_d < pHandle->hOverTempDeactThreshold )
 8004bfe:	8b99      	ldrh	r1, [r3, #28]
  {
    hFault = MC_NO_ERROR;
 8004c00:	2000      	movs	r0, #0
  else if ( pHandle->hAvTemp_d < pHandle->hOverTempDeactThreshold )
 8004c02:	4291      	cmp	r1, r2
 8004c04:	d800      	bhi.n	8004c08 <NTC_SetFaultState+0x16>
  }
  else
  {
    hFault = pHandle->hFaultState;
 8004c06:	8ad8      	ldrh	r0, [r3, #22]
  }
  return hFault;
}
 8004c08:	4770      	bx	lr

08004c0a <NTC_Clear>:
 *
 *  @p pHandle : Pointer on Handle structure of TemperatureSensor component
 */
__weak void NTC_Clear( NTC_Handle_t * pHandle )
{
  pHandle->hAvTemp_d = 0u;
 8004c0a:	2300      	movs	r3, #0
 8004c0c:	8203      	strh	r3, [r0, #16]
}
 8004c0e:	4770      	bx	lr

08004c10 <NTC_Init>:
  if ( pHandle->bSensorType == REAL_SENSOR )
 8004c10:	7803      	ldrb	r3, [r0, #0]
{
 8004c12:	b510      	push	{r4, lr}
 8004c14:	0004      	movs	r4, r0
  if ( pHandle->bSensorType == REAL_SENSOR )
 8004c16:	2b00      	cmp	r3, #0
 8004c18:	d108      	bne.n	8004c2c <NTC_Init+0x1c>
    pHandle->convHandle = RCM_RegisterRegConv(&pHandle->TempRegConv);
 8004c1a:	3004      	adds	r0, #4
 8004c1c:	f7fc ffd8 	bl	8001bd0 <RCM_RegisterRegConv>
 8004c20:	1de3      	adds	r3, r4, #7
 8004c22:	77d8      	strb	r0, [r3, #31]
    NTC_Clear( pHandle );
 8004c24:	0020      	movs	r0, r4
 8004c26:	f7ff fff0 	bl	8004c0a <NTC_Clear>
}
 8004c2a:	bd10      	pop	{r4, pc}
    pHandle->hFaultState = MC_NO_ERROR;
 8004c2c:	2300      	movs	r3, #0
 8004c2e:	82c3      	strh	r3, [r0, #22]
    pHandle->hAvTemp_d = pHandle->hExpectedTemp_d;
 8004c30:	8a43      	ldrh	r3, [r0, #18]
 8004c32:	8203      	strh	r3, [r0, #16]
}
 8004c34:	e7f9      	b.n	8004c2a <NTC_Init+0x1a>
	...

08004c38 <NTC_CalcAvTemp>:
__weak uint16_t NTC_CalcAvTemp( NTC_Handle_t * pHandle )
{
  uint32_t wtemp;
  uint16_t hAux;

  if ( pHandle->bSensorType == REAL_SENSOR )
 8004c38:	7803      	ldrb	r3, [r0, #0]
{
 8004c3a:	b510      	push	{r4, lr}
 8004c3c:	0004      	movs	r4, r0
  if ( pHandle->bSensorType == REAL_SENSOR )
 8004c3e:	2b00      	cmp	r3, #0
 8004c40:	d114      	bne.n	8004c6c <NTC_CalcAvTemp+0x34>
  {
    hAux = RCM_ExecRegularConv(pHandle->convHandle);
 8004c42:	1dc3      	adds	r3, r0, #7
 8004c44:	7fd8      	ldrb	r0, [r3, #31]
 8004c46:	f7fd f80b 	bl	8001c60 <RCM_ExecRegularConv>

    if ( hAux != 0xFFFFu )
 8004c4a:	4b0a      	ldr	r3, [pc, #40]	; (8004c74 <NTC_CalcAvTemp+0x3c>)
 8004c4c:	4298      	cmp	r0, r3
 8004c4e:	d007      	beq.n	8004c60 <NTC_CalcAvTemp+0x28>
    {
      wtemp =  ( uint32_t )( pHandle->hLowPassFilterBW ) - 1u;
 8004c50:	8b21      	ldrh	r1, [r4, #24]
      wtemp *= ( uint32_t ) ( pHandle->hAvTemp_d );
 8004c52:	8a22      	ldrh	r2, [r4, #16]
      wtemp =  ( uint32_t )( pHandle->hLowPassFilterBW ) - 1u;
 8004c54:	1e4b      	subs	r3, r1, #1
      wtemp *= ( uint32_t ) ( pHandle->hAvTemp_d );
 8004c56:	4353      	muls	r3, r2
      wtemp += hAux;
 8004c58:	18c0      	adds	r0, r0, r3
      wtemp /= ( uint32_t )( pHandle->hLowPassFilterBW );
 8004c5a:	f7fb fa7d 	bl	8000158 <__udivsi3>

      pHandle->hAvTemp_d = ( uint16_t ) wtemp;
 8004c5e:	8220      	strh	r0, [r4, #16]
    }

    pHandle->hFaultState = NTC_SetFaultState( pHandle );
 8004c60:	0020      	movs	r0, r4
 8004c62:	f7ff ffc6 	bl	8004bf2 <NTC_SetFaultState>
 8004c66:	82e0      	strh	r0, [r4, #22]
  else  /* case VIRTUAL_SENSOR */
  {
    pHandle->hFaultState = MC_NO_ERROR;
  }

  return ( pHandle->hFaultState );
 8004c68:	8ae0      	ldrh	r0, [r4, #22]
}
 8004c6a:	bd10      	pop	{r4, pc}
    pHandle->hFaultState = MC_NO_ERROR;
 8004c6c:	2300      	movs	r3, #0
 8004c6e:	82c3      	strh	r3, [r0, #22]
 8004c70:	e7fa      	b.n	8004c68 <NTC_CalcAvTemp+0x30>
 8004c72:	46c0      	nop			; (mov r8, r8)
 8004c74:	0000ffff 	.word	0x0000ffff

08004c78 <NTC_GetAvTemp_C>:
  */
__weak int16_t NTC_GetAvTemp_C( NTC_Handle_t * pHandle )
{
  int32_t wTemp;

  if ( pHandle->bSensorType == REAL_SENSOR )
 8004c78:	7803      	ldrb	r3, [r0, #0]
 8004c7a:	2b00      	cmp	r3, #0
 8004c7c:	d10d      	bne.n	8004c9a <NTC_GetAvTemp_C+0x22>
  {
    wTemp = ( int32_t )( pHandle->hAvTemp_d );
    wTemp -= ( int32_t )( pHandle->wV0 );
 8004c7e:	6a02      	ldr	r2, [r0, #32]
    wTemp = ( int32_t )( pHandle->hAvTemp_d );
 8004c80:	8a03      	ldrh	r3, [r0, #16]
    wTemp -= ( int32_t )( pHandle->wV0 );
 8004c82:	1a9b      	subs	r3, r3, r2
    wTemp *= pHandle->hSensitivity;
 8004c84:	221e      	movs	r2, #30
 8004c86:	5e81      	ldrsh	r1, [r0, r2]
    wTemp = wTemp / 65536 + ( int32_t )( pHandle->hT0 );
 8004c88:	8c80      	ldrh	r0, [r0, #36]	; 0x24
    wTemp *= pHandle->hSensitivity;
 8004c8a:	4359      	muls	r1, r3
    wTemp = wTemp / 65536 + ( int32_t )( pHandle->hT0 );
 8004c8c:	17cb      	asrs	r3, r1, #31
 8004c8e:	b29b      	uxth	r3, r3
 8004c90:	185b      	adds	r3, r3, r1
 8004c92:	141b      	asrs	r3, r3, #16
 8004c94:	18c0      	adds	r0, r0, r3
  }
  else
  {
    wTemp = pHandle->hExpectedTemp_C;
  }
  return ( ( int16_t )wTemp );
 8004c96:	b200      	sxth	r0, r0
}
 8004c98:	4770      	bx	lr
    wTemp = pHandle->hExpectedTemp_C;
 8004c9a:	8a80      	ldrh	r0, [r0, #20]
 8004c9c:	e7fb      	b.n	8004c96 <NTC_GetAvTemp_C+0x1e>

08004c9e <PID_HandleInit>:
 * @param  pHandle: handler of the current instance of the PID component
 * @retval None
 */
__weak void PID_HandleInit( PID_Handle_t * pHandle )
{
  pHandle->hKpGain =  pHandle->hDefKpGain;
 8004c9e:	6803      	ldr	r3, [r0, #0]
 8004ca0:	6043      	str	r3, [r0, #4]
  pHandle->hKiGain =  pHandle->hDefKiGain;
  pHandle->hKdGain =  pHandle->hDefKdGain;
 8004ca2:	8c03      	ldrh	r3, [r0, #32]
 8004ca4:	8443      	strh	r3, [r0, #34]	; 0x22
  pHandle->wIntegralTerm = 0x00000000UL;
 8004ca6:	2300      	movs	r3, #0
 8004ca8:	6083      	str	r3, [r0, #8]
  pHandle->wPrevProcessVarError = 0x00000000UL;
 8004caa:	6283      	str	r3, [r0, #40]	; 0x28
}
 8004cac:	4770      	bx	lr

08004cae <PID_SetKP>:
 * @param  hKpGain: new Kp gain
 * @retval None
 */
__weak void PID_SetKP( PID_Handle_t * pHandle, int16_t hKpGain )
{
  pHandle->hKpGain = hKpGain;
 8004cae:	8081      	strh	r1, [r0, #4]
}
 8004cb0:	4770      	bx	lr

08004cb2 <PID_SetKI>:
 * @param  hKiGain: new Ki gain
 * @retval None
 */
__weak void PID_SetKI( PID_Handle_t * pHandle, int16_t hKiGain )
{
  pHandle->hKiGain = hKiGain;
 8004cb2:	80c1      	strh	r1, [r0, #6]
}
 8004cb4:	4770      	bx	lr

08004cb6 <PID_GetKP>:
 * @param  pHandle: handler of the current instance of the PID component
 * @retval Kp gain
 */
__weak int16_t PID_GetKP( PID_Handle_t * pHandle )
{
  return ( pHandle->hKpGain );
 8004cb6:	2304      	movs	r3, #4
 8004cb8:	5ec0      	ldrsh	r0, [r0, r3]
}
 8004cba:	4770      	bx	lr

08004cbc <PID_GetKI>:
 * @param  pHandle: handler of the current instance of the PID component
 * @retval Ki gain
 */
__weak int16_t PID_GetKI( PID_Handle_t * pHandle )
{
  return ( pHandle->hKiGain );
 8004cbc:	2306      	movs	r3, #6
 8004cbe:	5ec0      	ldrsh	r0, [r0, r3]
}
 8004cc0:	4770      	bx	lr

08004cc2 <PID_SetIntegralTerm>:
 * @param  wIntegralTermValue: new integral term value
 * @retval None
 */
__weak void PID_SetIntegralTerm( PID_Handle_t * pHandle, int32_t wIntegralTermValue )
{
  pHandle->wIntegralTerm = wIntegralTermValue;
 8004cc2:	6081      	str	r1, [r0, #8]

  return;
}
 8004cc4:	4770      	bx	lr

08004cc6 <PID_GetKPDivisor>:
 * @param  pHandle: handler of the current instance of the PID component
 * @retval Kp gain divisor
 */
__weak uint16_t PID_GetKPDivisor( PID_Handle_t * pHandle )
{
  return ( pHandle->hKpDivisor );
 8004cc6:	8b00      	ldrh	r0, [r0, #24]
}
 8004cc8:	4770      	bx	lr

08004cca <PID_GetKIDivisor>:
 * @param  pHandle: handler of the current instance of the PID component
 * @retval Ki gain divisor
 */
__weak uint16_t PID_GetKIDivisor( PID_Handle_t * pHandle )
{
  return ( pHandle->hKiDivisor );
 8004cca:	8b40      	ldrh	r0, [r0, #26]
}
 8004ccc:	4770      	bx	lr

08004cce <PID_SetKD>:
 * @param  hKdGain: new Kd gain
 * @retval None
 */
__weak void PID_SetKD( PID_Handle_t * pHandle, int16_t hKdGain )
{
  pHandle->hKdGain = hKdGain;
 8004cce:	8441      	strh	r1, [r0, #34]	; 0x22
}
 8004cd0:	4770      	bx	lr

08004cd2 <PID_GetKD>:
 * @param  pHandle: handler of the current instance of the PID component
 * @retval Kd gain
 */
__weak int16_t PID_GetKD( PID_Handle_t * pHandle )
{
  return pHandle->hKdGain;
 8004cd2:	2322      	movs	r3, #34	; 0x22
 8004cd4:	5ec0      	ldrsh	r0, [r0, r3]
}
 8004cd6:	4770      	bx	lr

08004cd8 <PI_Controller>:
 * @param  wProcessVarError: current process variable error, intended as the reference
 *         value minus the present process variable value
 * @retval computed PI output
 */
__weak int16_t PI_Controller( PID_Handle_t * pHandle, int32_t wProcessVarError )
{
 8004cd8:	b570      	push	{r4, r5, r6, lr}
  int32_t wProportional_Term, wIntegral_Term, wOutput_32, wIntegral_sum_temp;
  int32_t wDischarge = 0;
  int16_t hUpperOutputLimit = pHandle->hUpperOutputLimit;
 8004cda:	2314      	movs	r3, #20
 8004cdc:	5ec5      	ldrsh	r5, [r0, r3]
  int16_t hLowerOutputLimit = pHandle->hLowerOutputLimit;
 8004cde:	2316      	movs	r3, #22
 8004ce0:	5ec4      	ldrsh	r4, [r0, r3]

  /* Proportional term computation*/
  wProportional_Term = pHandle->hKpGain * wProcessVarError;
 8004ce2:	2204      	movs	r2, #4
 8004ce4:	5e83      	ldrsh	r3, [r0, r2]

  /* Integral term computation */
  if ( pHandle->hKiGain == 0 )
 8004ce6:	2606      	movs	r6, #6
 8004ce8:	5f82      	ldrsh	r2, [r0, r6]
  wProportional_Term = pHandle->hKpGain * wProcessVarError;
 8004cea:	434b      	muls	r3, r1
  if ( pHandle->hKiGain == 0 )
 8004cec:	2a00      	cmp	r2, #0
 8004cee:	d101      	bne.n	8004cf4 <PI_Controller+0x1c>
    {
      pHandle->wIntegralTerm = pHandle->wLowerIntegralLimit;
    }
    else
    {
      pHandle->wIntegralTerm = wIntegral_sum_temp;
 8004cf0:	6082      	str	r2, [r0, #8]
 8004cf2:	e00c      	b.n	8004d0e <PI_Controller+0x36>
    wIntegral_Term = pHandle->hKiGain * wProcessVarError;
 8004cf4:	4351      	muls	r1, r2
    wIntegral_sum_temp = pHandle->wIntegralTerm + wIntegral_Term;
 8004cf6:	6886      	ldr	r6, [r0, #8]
    if ( wIntegral_sum_temp < 0 )
 8004cf8:	1872      	adds	r2, r6, r1
 8004cfa:	d517      	bpl.n	8004d2c <PI_Controller+0x54>
      if ( pHandle->wIntegralTerm > 0 )
 8004cfc:	2e00      	cmp	r6, #0
 8004cfe:	dd02      	ble.n	8004d06 <PI_Controller+0x2e>
        if ( wIntegral_Term > 0 )
 8004d00:	2900      	cmp	r1, #0
 8004d02:	dd00      	ble.n	8004d06 <PI_Controller+0x2e>
          wIntegral_sum_temp = INT32_MAX;
 8004d04:	4a11      	ldr	r2, [pc, #68]	; (8004d4c <PI_Controller+0x74>)
    if ( wIntegral_sum_temp > pHandle->wUpperIntegralLimit )
 8004d06:	68c1      	ldr	r1, [r0, #12]
 8004d08:	4291      	cmp	r1, r2
 8004d0a:	da15      	bge.n	8004d38 <PI_Controller+0x60>
      pHandle->wIntegralTerm = pHandle->wLowerIntegralLimit;
 8004d0c:	6081      	str	r1, [r0, #8]
#else
  /* WARNING: the below instruction is not MISRA compliant, user should verify
             that Cortex-M3 assembly instruction ASR (arithmetic shift right)
             is used by the compiler to perform the shifts (instead of LSR
             logical shift right)*/
  wOutput_32 = ( wProportional_Term >> pHandle->hKpDivisorPOW2 ) + ( pHandle->wIntegralTerm >> pHandle->hKiDivisorPOW2 );
 8004d0e:	6882      	ldr	r2, [r0, #8]
 8004d10:	8b81      	ldrh	r1, [r0, #28]
 8004d12:	0016      	movs	r6, r2
 8004d14:	410b      	asrs	r3, r1
 8004d16:	8bc1      	ldrh	r1, [r0, #30]
 8004d18:	410e      	asrs	r6, r1
 8004d1a:	199b      	adds	r3, r3, r6
#endif

  if ( wOutput_32 > hUpperOutputLimit )
 8004d1c:	429d      	cmp	r5, r3
 8004d1e:	da0f      	bge.n	8004d40 <PI_Controller+0x68>
  {

    wDischarge = hUpperOutputLimit - wOutput_32;
 8004d20:	1ae9      	subs	r1, r5, r3
    wOutput_32 = hUpperOutputLimit;
 8004d22:	002b      	movs	r3, r5
    wDischarge = hLowerOutputLimit - wOutput_32;
    wOutput_32 = hLowerOutputLimit;
  }
  else { /* Nothing to do here */ }

  pHandle->wIntegralTerm += wDischarge;
 8004d24:	1852      	adds	r2, r2, r1
 8004d26:	6082      	str	r2, [r0, #8]

  return ( ( int16_t )( wOutput_32 ) );
 8004d28:	b218      	sxth	r0, r3
}
 8004d2a:	bd70      	pop	{r4, r5, r6, pc}
      if ( pHandle->wIntegralTerm < 0 )
 8004d2c:	2e00      	cmp	r6, #0
 8004d2e:	daea      	bge.n	8004d06 <PI_Controller+0x2e>
        if ( wIntegral_Term < 0 )
 8004d30:	2900      	cmp	r1, #0
 8004d32:	dae8      	bge.n	8004d06 <PI_Controller+0x2e>
          wIntegral_sum_temp = -INT32_MAX;
 8004d34:	4a06      	ldr	r2, [pc, #24]	; (8004d50 <PI_Controller+0x78>)
 8004d36:	e7e6      	b.n	8004d06 <PI_Controller+0x2e>
    else if ( wIntegral_sum_temp < pHandle->wLowerIntegralLimit )
 8004d38:	6901      	ldr	r1, [r0, #16]
 8004d3a:	4291      	cmp	r1, r2
 8004d3c:	ddd8      	ble.n	8004cf0 <PI_Controller+0x18>
 8004d3e:	e7e5      	b.n	8004d0c <PI_Controller+0x34>
  int32_t wDischarge = 0;
 8004d40:	2100      	movs	r1, #0
  else if ( wOutput_32 < hLowerOutputLimit )
 8004d42:	429c      	cmp	r4, r3
 8004d44:	ddee      	ble.n	8004d24 <PI_Controller+0x4c>
    wDischarge = hLowerOutputLimit - wOutput_32;
 8004d46:	1ae1      	subs	r1, r4, r3
    wOutput_32 = hLowerOutputLimit;
 8004d48:	0023      	movs	r3, r4
 8004d4a:	e7eb      	b.n	8004d24 <PI_Controller+0x4c>
 8004d4c:	7fffffff 	.word	0x7fffffff
 8004d50:	80000001 	.word	0x80000001

08004d54 <PQD_CalcElMotorPower>:
  */
__weak void PQD_CalcElMotorPower( PQD_MotorPowMeas_Handle_t * pHandle )
{

  int32_t wAux, wAux2, wAux3;
  qd_t Iqd = pHandle->pFOCVars->Iqd;
 8004d54:	0002      	movs	r2, r0
{
 8004d56:	b570      	push	{r4, r5, r6, lr}
  qd_t Iqd = pHandle->pFOCVars->Iqd;
 8004d58:	32fc      	adds	r2, #252	; 0xfc
 8004d5a:	6913      	ldr	r3, [r2, #16]
{
 8004d5c:	0005      	movs	r5, r0
  qd_t Vqd = pHandle->pFOCVars->Vqd;
  wAux = ( ( int32_t )Iqd.q * ( int32_t )Vqd.q ) +
 8004d5e:	210c      	movs	r1, #12
 8004d60:	5e5e      	ldrsh	r6, [r3, r1]
 8004d62:	2116      	movs	r1, #22
 8004d64:	5e5c      	ldrsh	r4, [r3, r1]
 8004d66:	4374      	muls	r4, r6
         ( ( int32_t )Iqd.d * ( int32_t )Vqd.d );
 8004d68:	210e      	movs	r1, #14
 8004d6a:	5e5e      	ldrsh	r6, [r3, r1]
 8004d6c:	2018      	movs	r0, #24
 8004d6e:	5e18      	ldrsh	r0, [r3, r0]
 8004d70:	4346      	muls	r6, r0
  wAux /= 65536;

  wAux2 = pHandle->wConvFact * ( int32_t )VBS_GetAvBusVoltage_V( pHandle->pVBS );
 8004d72:	6950      	ldr	r0, [r2, #20]
  wAux = ( ( int32_t )Iqd.q * ( int32_t )Vqd.q ) +
 8004d74:	19a6      	adds	r6, r4, r6
  wAux2 = pHandle->wConvFact * ( int32_t )VBS_GetAvBusVoltage_V( pHandle->pVBS );
 8004d76:	68d4      	ldr	r4, [r2, #12]
 8004d78:	f7ff fb22 	bl	80043c0 <VBS_GetAvBusVoltage_V>
  wAux2 /= 600; /* 600 is max bus voltage expressed in volt.*/
 8004d7c:	2196      	movs	r1, #150	; 0x96
  wAux2 = pHandle->wConvFact * ( int32_t )VBS_GetAvBusVoltage_V( pHandle->pVBS );
 8004d7e:	4360      	muls	r0, r4
  wAux2 /= 600; /* 600 is max bus voltage expressed in volt.*/
 8004d80:	0089      	lsls	r1, r1, #2
 8004d82:	f7fb fa73 	bl	800026c <__divsi3>
  wAux /= 65536;
 8004d86:	17f4      	asrs	r4, r6, #31
 8004d88:	b2a4      	uxth	r4, r4
 8004d8a:	19a4      	adds	r4, r4, r6
 8004d8c:	1424      	asrs	r4, r4, #16

  wAux3 = wAux * wAux2;
 8004d8e:	4344      	muls	r4, r0
  wAux3 *= 6; /* 6 is max bus voltage expressed in thousend of volt.*/
  wAux3 /= 10;
  wAux3 /= 65536;
 8004d90:	21a0      	movs	r1, #160	; 0xa0
  wAux3 *= 6; /* 6 is max bus voltage expressed in thousend of volt.*/
 8004d92:	2006      	movs	r0, #6
  wAux3 /= 65536;
 8004d94:	0309      	lsls	r1, r1, #12
  wAux3 *= 6; /* 6 is max bus voltage expressed in thousend of volt.*/
 8004d96:	4360      	muls	r0, r4
  wAux3 /= 65536;
 8004d98:	f7fb fa68 	bl	800026c <__divsi3>

  MPM_CalcElMotorPower( &pHandle->_super, wAux3 );
 8004d9c:	b201      	sxth	r1, r0
 8004d9e:	0028      	movs	r0, r5
 8004da0:	f7ff ff03 	bl	8004baa <MPM_CalcElMotorPower>

}
 8004da4:	bd70      	pop	{r4, r5, r6, pc}

08004da6 <waitForPolarizationEnd>:
 *         repCnt: repetition counter value
 *         cnt: polarization counter value
 * @retval none
 */
__weak void waitForPolarizationEnd( TIM_TypeDef*  TIMx, uint16_t  *SWerror, uint8_t repCnt, volatile uint8_t *cnt )
{
 8004da6:	b5f0      	push	{r4, r5, r6, r7, lr}
  counter_mode = (uint32_t)(READ_BIT(TIMx->CR1, TIM_CR1_CMS));
 8004da8:	6805      	ldr	r5, [r0, #0]
 8004daa:	2460      	movs	r4, #96	; 0x60
 8004dac:	002e      	movs	r6, r5
  uint16_t hCalibrationPeriodCounter;
  uint16_t hMaxPeriodsNumber;

  if ( (LL_TIM_GetCounterMode(TIMx) & LL_TIM_COUNTERMODE_CENTER_UP_DOWN) == LL_TIM_COUNTERMODE_CENTER_UP_DOWN)
  {
    hMaxPeriodsNumber=(2*NB_CONVERSIONS)*(((uint16_t)repCnt+1u));
 8004dae:	3201      	adds	r2, #1
 8004db0:	4026      	ands	r6, r4
  if (counter_mode == 0U)
 8004db2:	4225      	tst	r5, r4
 8004db4:	d102      	bne.n	8004dbc <waitForPolarizationEnd+0x16>
    counter_mode = (uint32_t)(READ_BIT(TIMx->CR1, TIM_CR1_DIR));
 8004db6:	6804      	ldr	r4, [r0, #0]
  }
  else
  {
	hMaxPeriodsNumber=(2*NB_CONVERSIONS)*(((uint16_t)repCnt+1u)>>1);
 8004db8:	0852      	lsrs	r2, r2, #1
 8004dba:	e001      	b.n	8004dc0 <waitForPolarizationEnd+0x1a>
  if ( (LL_TIM_GetCounterMode(TIMx) & LL_TIM_COUNTERMODE_CENTER_UP_DOWN) == LL_TIM_COUNTERMODE_CENTER_UP_DOWN)
 8004dbc:	2e60      	cmp	r6, #96	; 0x60
 8004dbe:	d1fb      	bne.n	8004db8 <waitForPolarizationEnd+0x12>
  WRITE_REG(TIMx->SR, ~(TIM_SR_CC1IF));
 8004dc0:	2503      	movs	r5, #3
  }

  /* Wait for NB_CONVERSIONS to be executed */
  LL_TIM_ClearFlag_CC1(TIMx);
  hCalibrationPeriodCounter = 0u;
 8004dc2:	2400      	movs	r4, #0
  return ((READ_BIT(TIMx->SR, TIM_SR_CC1IF) == (TIM_SR_CC1IF)) ? 1UL : 0UL);
 8004dc4:	2702      	movs	r7, #2
  WRITE_REG(TIMx->SR, ~(TIM_SR_CC1IF));
 8004dc6:	426d      	negs	r5, r5
	hMaxPeriodsNumber=(2*NB_CONVERSIONS)*(((uint16_t)repCnt+1u)>>1);
 8004dc8:	0152      	lsls	r2, r2, #5
 8004dca:	6105      	str	r5, [r0, #16]
  while (*cnt < NB_CONVERSIONS)
 8004dcc:	781e      	ldrb	r6, [r3, #0]
 8004dce:	2e0f      	cmp	r6, #15
 8004dd0:	d80c      	bhi.n	8004dec <waitForPolarizationEnd+0x46>
  return ((READ_BIT(TIMx->SR, TIM_SR_CC1IF) == (TIM_SR_CC1IF)) ? 1UL : 0UL);
 8004dd2:	6906      	ldr	r6, [r0, #16]
 8004dd4:	423e      	tst	r6, r7
 8004dd6:	d0f9      	beq.n	8004dcc <waitForPolarizationEnd+0x26>
  {
    if (LL_TIM_IsActiveFlag_CC1(TIMx))
    {
      LL_TIM_ClearFlag_CC1(TIMx);
      hCalibrationPeriodCounter++;
 8004dd8:	3401      	adds	r4, #1
 8004dda:	b2a4      	uxth	r4, r4
  WRITE_REG(TIMx->SR, ~(TIM_SR_CC1IF));
 8004ddc:	6105      	str	r5, [r0, #16]
      if (hCalibrationPeriodCounter >= hMaxPeriodsNumber)
 8004dde:	42a2      	cmp	r2, r4
 8004de0:	d8f4      	bhi.n	8004dcc <waitForPolarizationEnd+0x26>
      {
        if (*cnt < NB_CONVERSIONS)
 8004de2:	781e      	ldrb	r6, [r3, #0]
 8004de4:	2e0f      	cmp	r6, #15
 8004de6:	d8f1      	bhi.n	8004dcc <waitForPolarizationEnd+0x26>
        {
          *SWerror = 1u;
 8004de8:	2301      	movs	r3, #1
 8004dea:	800b      	strh	r3, [r1, #0]
          break;
        }
      }
    }
  }
}
 8004dec:	bdf0      	pop	{r4, r5, r6, r7, pc}

08004dee <PWMC_GetPhaseCurrents>:
  * @param  pHandle handle on the target PWMC component
  * @param  pStator_Currents Pointer to the structure that will receive motor current
  *         of phase A and B in ElectricalValue format.
*/
__weak void PWMC_GetPhaseCurrents( PWMC_Handle_t * pHandle, ab_t * Iab )
{
 8004dee:	b510      	push	{r4, lr}
  pHandle->pFctGetPhaseCurrents( pHandle, Iab );
 8004df0:	6843      	ldr	r3, [r0, #4]
 8004df2:	4798      	blx	r3
}
 8004df4:	bd10      	pop	{r4, pc}

08004df6 <PWMC_SetPhaseVoltage>:
__weak uint16_t PWMC_SetPhaseVoltage( PWMC_Handle_t * pHandle, alphabeta_t Valfa_beta )
{
  int32_t wX, wY, wZ, wUAlpha, wUBeta, wTimePhA, wTimePhB, wTimePhC;

  wUAlpha = Valfa_beta.alpha * ( int32_t )pHandle->hT_Sqrt3;
  wUBeta = -( Valfa_beta.beta * ( int32_t )( pHandle->PWMperiod ) ) * 2;
 8004df6:	0003      	movs	r3, r0
{
 8004df8:	b5f7      	push	{r0, r1, r2, r4, r5, r6, r7, lr}
 8004dfa:	000d      	movs	r5, r1
 8004dfc:	0002      	movs	r2, r0
 8004dfe:	9101      	str	r1, [sp, #4]
  wUAlpha = Valfa_beta.alpha * ( int32_t )pHandle->hT_Sqrt3;
 8004e00:	8e06      	ldrh	r6, [r0, #48]	; 0x30
 8004e02:	b209      	sxth	r1, r1
  wUBeta = -( Valfa_beta.beta * ( int32_t )( pHandle->PWMperiod ) ) * 2;
 8004e04:	3350      	adds	r3, #80	; 0x50
  wUAlpha = Valfa_beta.alpha * ( int32_t )pHandle->hT_Sqrt3;
 8004e06:	434e      	muls	r6, r1
  wUBeta = -( Valfa_beta.beta * ( int32_t )( pHandle->PWMperiod ) ) * 2;
 8004e08:	8819      	ldrh	r1, [r3, #0]
 8004e0a:	142d      	asrs	r5, r5, #16
 8004e0c:	434d      	muls	r5, r1
 8004e0e:	006d      	lsls	r5, r5, #1
 8004e10:	426f      	negs	r7, r5

  wX = wUBeta;
  wY = ( wUBeta + wUAlpha ) / 2;
 8004e12:	1b75      	subs	r5, r6, r5
 8004e14:	0feb      	lsrs	r3, r5, #31
  wZ = ( wUBeta - wUAlpha ) / 2;
 8004e16:	1bbe      	subs	r6, r7, r6
  wY = ( wUBeta + wUAlpha ) / 2;
 8004e18:	195b      	adds	r3, r3, r5
 8004e1a:	105b      	asrs	r3, r3, #1
  wZ = ( wUBeta - wUAlpha ) / 2;
 8004e1c:	0ff4      	lsrs	r4, r6, #31
  wY = ( wUBeta + wUAlpha ) / 2;
 8004e1e:	9300      	str	r3, [sp, #0]
  wZ = ( wUBeta - wUAlpha ) / 2;
 8004e20:	19a4      	adds	r4, r4, r6
 8004e22:	1c83      	adds	r3, r0, #2
 8004e24:	469c      	mov	ip, r3
 8004e26:	1064      	asrs	r4, r4, #1
  if ( wY < 0 )
  {
    if ( wZ < 0 )
    {
      pHandle->Sector = SECTOR_5;
      wTimePhA = ( int32_t )( pHandle->PWMperiod ) / 4 + ( ( wY - wZ ) / ( int32_t )262144 );
 8004e28:	0889      	lsrs	r1, r1, #2
 8004e2a:	323a      	adds	r2, #58	; 0x3a
  if ( wY < 0 )
 8004e2c:	1c6b      	adds	r3, r5, #1
 8004e2e:	db00      	blt.n	8004e32 <PWMC_SetPhaseVoltage+0x3c>
 8004e30:	e083      	b.n	8004f3a <PWMC_SetPhaseVoltage+0x144>
    if ( wZ < 0 )
 8004e32:	1c73      	adds	r3, r6, #1
 8004e34:	da1a      	bge.n	8004e6c <PWMC_SetPhaseVoltage+0x76>
      pHandle->Sector = SECTOR_5;
 8004e36:	2704      	movs	r7, #4
      wTimePhA = ( int32_t )( pHandle->PWMperiod ) / 4 + ( ( wY - wZ ) / ( int32_t )262144 );
 8004e38:	9b00      	ldr	r3, [sp, #0]
      pHandle->Sector = SECTOR_5;
 8004e3a:	7017      	strb	r7, [r2, #0]
      wTimePhA = ( int32_t )( pHandle->PWMperiod ) / 4 + ( ( wY - wZ ) / ( int32_t )262144 );
 8004e3c:	1b1b      	subs	r3, r3, r4
 8004e3e:	17da      	asrs	r2, r3, #31
 8004e40:	0392      	lsls	r2, r2, #14
 8004e42:	0b94      	lsrs	r4, r2, #14
 8004e44:	18e4      	adds	r4, r4, r3
      wTimePhB = wTimePhA + wZ / 131072;
      wTimePhC = wTimePhA - wY / 131072;
 8004e46:	17eb      	asrs	r3, r5, #31
      wTimePhB = wTimePhA + wZ / 131072;
 8004e48:	17f2      	asrs	r2, r6, #31
      wTimePhC = wTimePhA - wY / 131072;
 8004e4a:	039b      	lsls	r3, r3, #14
      wTimePhB = wTimePhA + wZ / 131072;
 8004e4c:	0392      	lsls	r2, r2, #14
      wTimePhC = wTimePhA - wY / 131072;
 8004e4e:	0b9b      	lsrs	r3, r3, #14
      wTimePhA = ( int32_t )( pHandle->PWMperiod ) / 4 + ( ( wY - wZ ) / ( int32_t )262144 );
 8004e50:	14a4      	asrs	r4, r4, #18
      wTimePhB = wTimePhA + wZ / 131072;
 8004e52:	0b92      	lsrs	r2, r2, #14
      wTimePhC = wTimePhA - wY / 131072;
 8004e54:	195b      	adds	r3, r3, r5
      wTimePhA = ( int32_t )( pHandle->PWMperiod ) / 4 + ( ( wY - wZ ) / ( int32_t )262144 );
 8004e56:	1861      	adds	r1, r4, r1
      wTimePhB = wTimePhA + wZ / 131072;
 8004e58:	1992      	adds	r2, r2, r6
      wTimePhC = wTimePhA - wY / 131072;
 8004e5a:	149b      	asrs	r3, r3, #18
      wTimePhB = wTimePhA + wZ / 131072;
 8004e5c:	1492      	asrs	r2, r2, #18
      wTimePhC = wTimePhA - wY / 131072;
 8004e5e:	1acb      	subs	r3, r1, r3
      wTimePhB = wTimePhA + wZ / 131072;
 8004e60:	1852      	adds	r2, r2, r1
      pHandle->lowDuty = wTimePhC;
 8004e62:	8783      	strh	r3, [r0, #60]	; 0x3c
      pHandle->midDuty = wTimePhA;
 8004e64:	87c1      	strh	r1, [r0, #62]	; 0x3e
        wTimePhA = ( int32_t )( pHandle->PWMperiod ) / 4 + ( ( wY - wX ) / ( int32_t )262144 );
        wTimePhC = wTimePhA - wY / 131072;
        wTimePhB = wTimePhC + wX / 131072;
        pHandle->lowDuty = wTimePhA;
        pHandle->midDuty = wTimePhC;
        pHandle->highDuty = wTimePhB;
 8004e66:	4664      	mov	r4, ip
 8004e68:	87e2      	strh	r2, [r4, #62]	; 0x3e
 8004e6a:	e01a      	b.n	8004ea2 <PWMC_SetPhaseVoltage+0xac>
      if ( wX <= 0 )
 8004e6c:	2f00      	cmp	r7, #0
 8004e6e:	dc4f      	bgt.n	8004f10 <PWMC_SetPhaseVoltage+0x11a>
        pHandle->Sector = SECTOR_4;
 8004e70:	2303      	movs	r3, #3
 8004e72:	7013      	strb	r3, [r2, #0]
        wTimePhA = ( int32_t )( pHandle->PWMperiod ) / 4 + ( ( wX - wZ ) / ( int32_t )262144 );
 8004e74:	1b3a      	subs	r2, r7, r4
 8004e76:	17d3      	asrs	r3, r2, #31
 8004e78:	039b      	lsls	r3, r3, #14
 8004e7a:	0b9c      	lsrs	r4, r3, #14
 8004e7c:	18a4      	adds	r4, r4, r2
        wTimePhB = wTimePhA + wZ / 131072;
 8004e7e:	17f2      	asrs	r2, r6, #31
 8004e80:	0392      	lsls	r2, r2, #14
        wTimePhC = wTimePhB - wX / 131072;
 8004e82:	17fb      	asrs	r3, r7, #31
        wTimePhB = wTimePhA + wZ / 131072;
 8004e84:	0b92      	lsrs	r2, r2, #14
        wTimePhC = wTimePhB - wX / 131072;
 8004e86:	03db      	lsls	r3, r3, #15
        wTimePhA = ( int32_t )( pHandle->PWMperiod ) / 4 + ( ( wX - wZ ) / ( int32_t )262144 );
 8004e88:	14a4      	asrs	r4, r4, #18
        wTimePhB = wTimePhA + wZ / 131072;
 8004e8a:	1992      	adds	r2, r2, r6
        wTimePhC = wTimePhB - wX / 131072;
 8004e8c:	0bdb      	lsrs	r3, r3, #15
        wTimePhA = ( int32_t )( pHandle->PWMperiod ) / 4 + ( ( wX - wZ ) / ( int32_t )262144 );
 8004e8e:	1861      	adds	r1, r4, r1
        wTimePhB = wTimePhA + wZ / 131072;
 8004e90:	1492      	asrs	r2, r2, #18
        wTimePhC = wTimePhB - wX / 131072;
 8004e92:	19db      	adds	r3, r3, r7
        wTimePhB = wTimePhA + wZ / 131072;
 8004e94:	1852      	adds	r2, r2, r1
        wTimePhC = wTimePhB - wX / 131072;
 8004e96:	145b      	asrs	r3, r3, #17
 8004e98:	1ad3      	subs	r3, r2, r3
        pHandle->lowDuty = wTimePhC;
 8004e9a:	8783      	strh	r3, [r0, #60]	; 0x3c
        pHandle->midDuty = wTimePhB;
 8004e9c:	87c2      	strh	r2, [r0, #62]	; 0x3e
        pHandle->highDuty = wTimePhA;
 8004e9e:	4664      	mov	r4, ip
 8004ea0:	87e1      	strh	r1, [r4, #62]	; 0x3e
        pHandle->midDuty = wTimePhB;
        pHandle->highDuty = wTimePhC;
      }
  }

  pHandle->CntPhA = (uint16_t)(MAX(wTimePhA,0));
 8004ea2:	43cc      	mvns	r4, r1
 8004ea4:	17e4      	asrs	r4, r4, #31
 8004ea6:	4021      	ands	r1, r4
 8004ea8:	43d4      	mvns	r4, r2
 8004eaa:	17e4      	asrs	r4, r4, #31
 8004eac:	4022      	ands	r2, r4
 8004eae:	43dc      	mvns	r4, r3
 8004eb0:	17e4      	asrs	r4, r4, #31
 8004eb2:	4023      	ands	r3, r4
  pHandle->CntPhB = (uint16_t)(MAX(wTimePhB,0));
  pHandle->CntPhC = (uint16_t)(MAX(wTimePhC,0));
  
  if ( pHandle->DTTest == 1u )
 8004eb4:	0004      	movs	r4, r0
 8004eb6:	b289      	uxth	r1, r1
 8004eb8:	b292      	uxth	r2, r2
 8004eba:	b29b      	uxth	r3, r3
  pHandle->CntPhA = (uint16_t)(MAX(wTimePhA,0));
 8004ebc:	8641      	strh	r1, [r0, #50]	; 0x32
  pHandle->CntPhB = (uint16_t)(MAX(wTimePhB,0));
 8004ebe:	8682      	strh	r2, [r0, #52]	; 0x34
  pHandle->CntPhC = (uint16_t)(MAX(wTimePhC,0));
 8004ec0:	86c3      	strh	r3, [r0, #54]	; 0x36
  if ( pHandle->DTTest == 1u )
 8004ec2:	344e      	adds	r4, #78	; 0x4e
 8004ec4:	8824      	ldrh	r4, [r4, #0]
 8004ec6:	2c01      	cmp	r4, #1
 8004ec8:	d11f      	bne.n	8004f0a <PWMC_SetPhaseVoltage+0x114>
  {
    /* Dead time compensation */
    if ( pHandle->Ia > 0 )
 8004eca:	0005      	movs	r5, r0
    {
      pHandle->CntPhA += pHandle->DTCompCnt;
 8004ecc:	0004      	movs	r4, r0
    if ( pHandle->Ia > 0 )
 8004ece:	3548      	adds	r5, #72	; 0x48
 8004ed0:	2600      	movs	r6, #0
 8004ed2:	5fad      	ldrsh	r5, [r5, r6]
      pHandle->CntPhA += pHandle->DTCompCnt;
 8004ed4:	3454      	adds	r4, #84	; 0x54
 8004ed6:	8824      	ldrh	r4, [r4, #0]
    if ( pHandle->Ia > 0 )
 8004ed8:	2d00      	cmp	r5, #0
 8004eda:	dc00      	bgt.n	8004ede <PWMC_SetPhaseVoltage+0xe8>
 8004edc:	e07d      	b.n	8004fda <PWMC_SetPhaseVoltage+0x1e4>
      pHandle->CntPhA += pHandle->DTCompCnt;
 8004ede:	1909      	adds	r1, r1, r4
    }
    else
    {
      pHandle->CntPhA -= pHandle->DTCompCnt;
 8004ee0:	b289      	uxth	r1, r1
 8004ee2:	8641      	strh	r1, [r0, #50]	; 0x32
    }

    if ( pHandle->Ib > 0 )
 8004ee4:	0001      	movs	r1, r0
 8004ee6:	314a      	adds	r1, #74	; 0x4a
 8004ee8:	2500      	movs	r5, #0
 8004eea:	5f49      	ldrsh	r1, [r1, r5]
 8004eec:	2900      	cmp	r1, #0
 8004eee:	dc00      	bgt.n	8004ef2 <PWMC_SetPhaseVoltage+0xfc>
 8004ef0:	e075      	b.n	8004fde <PWMC_SetPhaseVoltage+0x1e8>
    {
      pHandle->CntPhB += pHandle->DTCompCnt;
 8004ef2:	1912      	adds	r2, r2, r4
    }
    else
    {
      pHandle->CntPhB -= pHandle->DTCompCnt;
 8004ef4:	b292      	uxth	r2, r2
 8004ef6:	8682      	strh	r2, [r0, #52]	; 0x34
    }

    if ( pHandle->Ic > 0 )
 8004ef8:	0002      	movs	r2, r0
 8004efa:	324c      	adds	r2, #76	; 0x4c
 8004efc:	2100      	movs	r1, #0
 8004efe:	5e52      	ldrsh	r2, [r2, r1]
 8004f00:	2a00      	cmp	r2, #0
 8004f02:	dc00      	bgt.n	8004f06 <PWMC_SetPhaseVoltage+0x110>
 8004f04:	e06d      	b.n	8004fe2 <PWMC_SetPhaseVoltage+0x1ec>
    {
      pHandle->CntPhC += pHandle->DTCompCnt;
 8004f06:	191b      	adds	r3, r3, r4
    }
    else
    {
      pHandle->CntPhC -= pHandle->DTCompCnt;
 8004f08:	86c3      	strh	r3, [r0, #54]	; 0x36
    }
  }

  return ( pHandle->pFctSetADCSampPointSectX( pHandle ) );
 8004f0a:	6983      	ldr	r3, [r0, #24]
 8004f0c:	4798      	blx	r3
}
 8004f0e:	bdfe      	pop	{r1, r2, r3, r4, r5, r6, r7, pc}
        pHandle->Sector = SECTOR_3;
 8004f10:	2402      	movs	r4, #2
        wTimePhA = ( int32_t )( pHandle->PWMperiod ) / 4 + ( ( wY - wX ) / ( int32_t )262144 );
 8004f12:	9b00      	ldr	r3, [sp, #0]
        pHandle->Sector = SECTOR_3;
 8004f14:	7014      	strb	r4, [r2, #0]
        wTimePhA = ( int32_t )( pHandle->PWMperiod ) / 4 + ( ( wY - wX ) / ( int32_t )262144 );
 8004f16:	1bdc      	subs	r4, r3, r7
 8004f18:	17e2      	asrs	r2, r4, #31
 8004f1a:	0392      	lsls	r2, r2, #14
 8004f1c:	0b93      	lsrs	r3, r2, #14
 8004f1e:	191b      	adds	r3, r3, r4
 8004f20:	149b      	asrs	r3, r3, #18
 8004f22:	1859      	adds	r1, r3, r1
        wTimePhC = wTimePhA - wY / 131072;
 8004f24:	17eb      	asrs	r3, r5, #31
 8004f26:	039b      	lsls	r3, r3, #14
 8004f28:	0b9b      	lsrs	r3, r3, #14
 8004f2a:	195b      	adds	r3, r3, r5
 8004f2c:	149b      	asrs	r3, r3, #18
 8004f2e:	1acb      	subs	r3, r1, r3
        wTimePhB = wTimePhC + wX / 131072;
 8004f30:	147a      	asrs	r2, r7, #17
 8004f32:	18d2      	adds	r2, r2, r3
        pHandle->lowDuty = wTimePhB;
 8004f34:	8782      	strh	r2, [r0, #60]	; 0x3c
        pHandle->midDuty = wTimePhC;
 8004f36:	87c3      	strh	r3, [r0, #62]	; 0x3e
 8004f38:	e7b1      	b.n	8004e9e <PWMC_SetPhaseVoltage+0xa8>
    if ( wZ >= 0 )
 8004f3a:	1c73      	adds	r3, r6, #1
 8004f3c:	db1a      	blt.n	8004f74 <PWMC_SetPhaseVoltage+0x17e>
      pHandle->Sector = SECTOR_2;
 8004f3e:	2701      	movs	r7, #1
      wTimePhA = ( int32_t )( pHandle->PWMperiod ) / 4 + ( ( wY - wZ ) / ( int32_t )262144 );
 8004f40:	9b00      	ldr	r3, [sp, #0]
      pHandle->Sector = SECTOR_2;
 8004f42:	7017      	strb	r7, [r2, #0]
      wTimePhA = ( int32_t )( pHandle->PWMperiod ) / 4 + ( ( wY - wZ ) / ( int32_t )262144 );
 8004f44:	1b1b      	subs	r3, r3, r4
 8004f46:	17da      	asrs	r2, r3, #31
 8004f48:	0392      	lsls	r2, r2, #14
 8004f4a:	0b94      	lsrs	r4, r2, #14
      wTimePhB = wTimePhA + wZ / 131072;
 8004f4c:	17f2      	asrs	r2, r6, #31
      wTimePhA = ( int32_t )( pHandle->PWMperiod ) / 4 + ( ( wY - wZ ) / ( int32_t )262144 );
 8004f4e:	18e4      	adds	r4, r4, r3
      wTimePhB = wTimePhA + wZ / 131072;
 8004f50:	0392      	lsls	r2, r2, #14
      wTimePhC = wTimePhA - wY / 131072;
 8004f52:	17eb      	asrs	r3, r5, #31
      wTimePhB = wTimePhA + wZ / 131072;
 8004f54:	0b92      	lsrs	r2, r2, #14
      wTimePhC = wTimePhA - wY / 131072;
 8004f56:	039b      	lsls	r3, r3, #14
      wTimePhA = ( int32_t )( pHandle->PWMperiod ) / 4 + ( ( wY - wZ ) / ( int32_t )262144 );
 8004f58:	14a4      	asrs	r4, r4, #18
      wTimePhB = wTimePhA + wZ / 131072;
 8004f5a:	1992      	adds	r2, r2, r6
      wTimePhC = wTimePhA - wY / 131072;
 8004f5c:	0b9b      	lsrs	r3, r3, #14
      wTimePhA = ( int32_t )( pHandle->PWMperiod ) / 4 + ( ( wY - wZ ) / ( int32_t )262144 );
 8004f5e:	1861      	adds	r1, r4, r1
      wTimePhB = wTimePhA + wZ / 131072;
 8004f60:	1492      	asrs	r2, r2, #18
      wTimePhC = wTimePhA - wY / 131072;
 8004f62:	195b      	adds	r3, r3, r5
      wTimePhB = wTimePhA + wZ / 131072;
 8004f64:	1852      	adds	r2, r2, r1
      wTimePhC = wTimePhA - wY / 131072;
 8004f66:	149b      	asrs	r3, r3, #18
 8004f68:	1acb      	subs	r3, r1, r3
      pHandle->lowDuty = wTimePhB;
 8004f6a:	8782      	strh	r2, [r0, #60]	; 0x3c
      pHandle->midDuty = wTimePhA;
 8004f6c:	87c1      	strh	r1, [r0, #62]	; 0x3e
        pHandle->highDuty = wTimePhC;
 8004f6e:	4664      	mov	r4, ip
 8004f70:	87e3      	strh	r3, [r4, #62]	; 0x3e
 8004f72:	e796      	b.n	8004ea2 <PWMC_SetPhaseVoltage+0xac>
      if ( wX <= 0 )
 8004f74:	2f00      	cmp	r7, #0
 8004f76:	dc18      	bgt.n	8004faa <PWMC_SetPhaseVoltage+0x1b4>
        pHandle->Sector = SECTOR_6;
 8004f78:	2405      	movs	r4, #5
        wTimePhA = ( int32_t )( pHandle->PWMperiod ) / 4 + ( ( wY - wX ) / ( int32_t )262144 );
 8004f7a:	9b00      	ldr	r3, [sp, #0]
        pHandle->Sector = SECTOR_6;
 8004f7c:	7014      	strb	r4, [r2, #0]
        wTimePhA = ( int32_t )( pHandle->PWMperiod ) / 4 + ( ( wY - wX ) / ( int32_t )262144 );
 8004f7e:	1bdc      	subs	r4, r3, r7
 8004f80:	17e2      	asrs	r2, r4, #31
 8004f82:	0392      	lsls	r2, r2, #14
 8004f84:	0b93      	lsrs	r3, r2, #14
 8004f86:	191b      	adds	r3, r3, r4
 8004f88:	149b      	asrs	r3, r3, #18
 8004f8a:	1859      	adds	r1, r3, r1
        wTimePhC = wTimePhA - wY / 131072;
 8004f8c:	17eb      	asrs	r3, r5, #31
 8004f8e:	039b      	lsls	r3, r3, #14
        wTimePhB = wTimePhC + wX / 131072;
 8004f90:	17fa      	asrs	r2, r7, #31
        wTimePhC = wTimePhA - wY / 131072;
 8004f92:	0b9b      	lsrs	r3, r3, #14
        wTimePhB = wTimePhC + wX / 131072;
 8004f94:	03d2      	lsls	r2, r2, #15
        wTimePhC = wTimePhA - wY / 131072;
 8004f96:	195b      	adds	r3, r3, r5
        wTimePhB = wTimePhC + wX / 131072;
 8004f98:	0bd2      	lsrs	r2, r2, #15
        wTimePhC = wTimePhA - wY / 131072;
 8004f9a:	149b      	asrs	r3, r3, #18
        wTimePhB = wTimePhC + wX / 131072;
 8004f9c:	19d2      	adds	r2, r2, r7
        wTimePhC = wTimePhA - wY / 131072;
 8004f9e:	1acb      	subs	r3, r1, r3
        wTimePhB = wTimePhC + wX / 131072;
 8004fa0:	1452      	asrs	r2, r2, #17
 8004fa2:	18d2      	adds	r2, r2, r3
        pHandle->lowDuty = wTimePhA;
 8004fa4:	8781      	strh	r1, [r0, #60]	; 0x3c
        pHandle->midDuty = wTimePhC;
 8004fa6:	87c3      	strh	r3, [r0, #62]	; 0x3e
 8004fa8:	e75d      	b.n	8004e66 <PWMC_SetPhaseVoltage+0x70>
        pHandle->Sector = SECTOR_1;
 8004faa:	2300      	movs	r3, #0
 8004fac:	7013      	strb	r3, [r2, #0]
        wTimePhA = ( int32_t )( pHandle->PWMperiod ) / 4 + ( ( wX - wZ ) / ( int32_t )262144 );
 8004fae:	1b3a      	subs	r2, r7, r4
 8004fb0:	17d3      	asrs	r3, r2, #31
 8004fb2:	039b      	lsls	r3, r3, #14
 8004fb4:	0b9c      	lsrs	r4, r3, #14
 8004fb6:	18a4      	adds	r4, r4, r2
        wTimePhB = wTimePhA + wZ / 131072;
 8004fb8:	17f2      	asrs	r2, r6, #31
 8004fba:	0392      	lsls	r2, r2, #14
        wTimePhC = wTimePhB - wX / 131072;
 8004fbc:	17fb      	asrs	r3, r7, #31
        wTimePhB = wTimePhA + wZ / 131072;
 8004fbe:	0b92      	lsrs	r2, r2, #14
        wTimePhC = wTimePhB - wX / 131072;
 8004fc0:	03db      	lsls	r3, r3, #15
        wTimePhA = ( int32_t )( pHandle->PWMperiod ) / 4 + ( ( wX - wZ ) / ( int32_t )262144 );
 8004fc2:	14a4      	asrs	r4, r4, #18
        wTimePhB = wTimePhA + wZ / 131072;
 8004fc4:	1992      	adds	r2, r2, r6
        wTimePhC = wTimePhB - wX / 131072;
 8004fc6:	0bdb      	lsrs	r3, r3, #15
        wTimePhA = ( int32_t )( pHandle->PWMperiod ) / 4 + ( ( wX - wZ ) / ( int32_t )262144 );
 8004fc8:	1861      	adds	r1, r4, r1
        wTimePhB = wTimePhA + wZ / 131072;
 8004fca:	1492      	asrs	r2, r2, #18
        wTimePhC = wTimePhB - wX / 131072;
 8004fcc:	19db      	adds	r3, r3, r7
        wTimePhB = wTimePhA + wZ / 131072;
 8004fce:	1852      	adds	r2, r2, r1
        wTimePhC = wTimePhB - wX / 131072;
 8004fd0:	145b      	asrs	r3, r3, #17
 8004fd2:	1ad3      	subs	r3, r2, r3
        pHandle->lowDuty = wTimePhA;
 8004fd4:	8781      	strh	r1, [r0, #60]	; 0x3c
        pHandle->midDuty = wTimePhB;
 8004fd6:	87c2      	strh	r2, [r0, #62]	; 0x3e
 8004fd8:	e7c9      	b.n	8004f6e <PWMC_SetPhaseVoltage+0x178>
      pHandle->CntPhA -= pHandle->DTCompCnt;
 8004fda:	1b09      	subs	r1, r1, r4
 8004fdc:	e780      	b.n	8004ee0 <PWMC_SetPhaseVoltage+0xea>
      pHandle->CntPhB -= pHandle->DTCompCnt;
 8004fde:	1b12      	subs	r2, r2, r4
 8004fe0:	e788      	b.n	8004ef4 <PWMC_SetPhaseVoltage+0xfe>
      pHandle->CntPhC -= pHandle->DTCompCnt;
 8004fe2:	1b1b      	subs	r3, r3, r4
 8004fe4:	e790      	b.n	8004f08 <PWMC_SetPhaseVoltage+0x112>

08004fe6 <PWMC_SwitchOffPWM>:
/**
  * @brief  Switches PWM generation off, inactivating the outputs.
  * @param  pHandle Handle on the target instance of the PWMC component
  */
__weak void PWMC_SwitchOffPWM( PWMC_Handle_t * pHandle )
{
 8004fe6:	b510      	push	{r4, lr}
  pHandle->pFctSwitchOffPwm( pHandle );
 8004fe8:	6883      	ldr	r3, [r0, #8]
 8004fea:	4798      	blx	r3
}
 8004fec:	bd10      	pop	{r4, pc}

08004fee <PWMC_CurrentReadingCalibr>:
  *         #CRC_EXEC to execute the offset calibration.
  * @retval true if the current calibration has been completed, false if it is
  *         still ongoing.
  */
__weak bool PWMC_CurrentReadingCalibr( PWMC_Handle_t * pHandle, CRCAction_t action )
{
 8004fee:	b570      	push	{r4, r5, r6, lr}
 8004ff0:	0004      	movs	r4, r0
 8004ff2:	1e0d      	subs	r5, r1, #0
  bool retVal = false;
  if ( action == CRC_START )
 8004ff4:	d110      	bne.n	8005018 <PWMC_CurrentReadingCalibr+0x2a>
  {
    PWMC_SwitchOffPWM( pHandle );
 8004ff6:	f7ff fff6 	bl	8004fe6 <PWMC_SwitchOffPWM>
    pHandle->OffCalibrWaitTimeCounter = pHandle->OffCalibrWaitTicks;
 8004ffa:	0023      	movs	r3, r4
 8004ffc:	3352      	adds	r3, #82	; 0x52
 8004ffe:	881b      	ldrh	r3, [r3, #0]
 8005000:	1da2      	adds	r2, r4, #6
 8005002:	87d3      	strh	r3, [r2, #62]	; 0x3e
    if ( pHandle->OffCalibrWaitTicks == 0u )
 8005004:	2b00      	cmp	r3, #0
 8005006:	d002      	beq.n	800500e <PWMC_CurrentReadingCalibr+0x20>
  bool retVal = false;
 8005008:	2500      	movs	r5, #0
  }
  else
  {
  }
  return retVal;
}
 800500a:	0028      	movs	r0, r5
 800500c:	bd70      	pop	{r4, r5, r6, pc}
      pHandle->pFctCurrReadingCalib( pHandle );
 800500e:	0020      	movs	r0, r4
 8005010:	6923      	ldr	r3, [r4, #16]
 8005012:	4798      	blx	r3
      retVal = true;
 8005014:	2501      	movs	r5, #1
 8005016:	e7f8      	b.n	800500a <PWMC_CurrentReadingCalibr+0x1c>
  else if ( action == CRC_EXEC )
 8005018:	2901      	cmp	r1, #1
 800501a:	d1f5      	bne.n	8005008 <PWMC_CurrentReadingCalibr+0x1a>
    if ( pHandle->OffCalibrWaitTimeCounter > 0u )
 800501c:	1d82      	adds	r2, r0, #6
 800501e:	8fd3      	ldrh	r3, [r2, #62]	; 0x3e
 8005020:	2b00      	cmp	r3, #0
 8005022:	d0f2      	beq.n	800500a <PWMC_CurrentReadingCalibr+0x1c>
      pHandle->OffCalibrWaitTimeCounter--;
 8005024:	3b01      	subs	r3, #1
 8005026:	b29b      	uxth	r3, r3
 8005028:	87d3      	strh	r3, [r2, #62]	; 0x3e
      if ( pHandle->OffCalibrWaitTimeCounter == 0u )
 800502a:	2b00      	cmp	r3, #0
 800502c:	d1ec      	bne.n	8005008 <PWMC_CurrentReadingCalibr+0x1a>
        pHandle->pFctCurrReadingCalib( pHandle );
 800502e:	6903      	ldr	r3, [r0, #16]
 8005030:	4798      	blx	r3
        retVal = true;
 8005032:	e7ea      	b.n	800500a <PWMC_CurrentReadingCalibr+0x1c>

08005034 <PWMC_CheckOverCurrent>:

/** @brief Returns #MC_BREAK_IN if an over current condition was detected on the power stage
 *         controlled by the PWMC component pointed by  @p pHandle, since the last call to this function;
 *         returns #MC_NO_FAULTS otherwise. */
__weak uint16_t PWMC_CheckOverCurrent( PWMC_Handle_t * pHandle )
{
 8005034:	b510      	push	{r4, lr}
  return pHandle->pFctIsOverCurrentOccurred( pHandle );
 8005036:	69c3      	ldr	r3, [r0, #28]
 8005038:	4798      	blx	r3
}
 800503a:	bd10      	pop	{r4, pc}

0800503c <R3_1_GetPhaseCurrents>:
 * @brief  It computes and return latest converted motor phase currents
 * @param  pHdl: handler of the current instance of the PWM component
 * @retval ab_t Ia and Ib current in ab_t format
 */
__weak void R3_1_GetPhaseCurrents( PWMC_Handle_t * pHdl, ab_t * pStator_Currents )
{
 800503c:	b530      	push	{r4, r5, lr}
  MODIFY_REG(TIMx->CR2, TIM_CR2_MMS, TimerSynchronization);
 800503e:	2470      	movs	r4, #112	; 0x70
 8005040:	0003      	movs	r3, r0
 8005042:	483c      	ldr	r0, [pc, #240]	; (8005134 <R3_1_GetPhaseCurrents+0xf8>)
  MODIFY_REG(ADCx->CFGR1, ADC_CFGR1_SCANDIR, ScanDirection);
 8005044:	2504      	movs	r5, #4
 8005046:	6842      	ldr	r2, [r0, #4]
 8005048:	43a2      	bics	r2, r4
 800504a:	6042      	str	r2, [r0, #4]
  uint8_t bSector;

  /* disable ADC trigger source */
  LL_TIM_SetTriggerOutput(TIM1, LL_TIM_TRGO_RESET);

  bSector = ( uint8_t ) pHandle->_Super.Sector;
 800504c:	001a      	movs	r2, r3
 800504e:	4c3a      	ldr	r4, [pc, #232]	; (8005138 <R3_1_GetPhaseCurrents+0xfc>)
 8005050:	323a      	adds	r2, #58	; 0x3a
 8005052:	7810      	ldrb	r0, [r2, #0]
 8005054:	68e2      	ldr	r2, [r4, #12]
 8005056:	43aa      	bics	r2, r5
 8005058:	60e2      	str	r2, [r4, #12]

  LL_ADC_REG_SetSequencerScanDirection(ADC1, LL_ADC_REG_SEQ_SCAN_DIR_FORWARD);
  hReg1 = *pHandle->pParams_str->ADCDataReg1[bSector];
 800505a:	6f9c      	ldr	r4, [r3, #120]	; 0x78
 800505c:	0082      	lsls	r2, r0, #2
 800505e:	18a2      	adds	r2, r4, r2
 8005060:	6b54      	ldr	r4, [r2, #52]	; 0x34
  hReg2 = *pHandle->pParams_str->ADCDataReg2[bSector];
 8005062:	6cd2      	ldr	r2, [r2, #76]	; 0x4c
  hReg1 = *pHandle->pParams_str->ADCDataReg1[bSector];
 8005064:	8825      	ldrh	r5, [r4, #0]
  hReg2 = *pHandle->pParams_str->ADCDataReg2[bSector];
 8005066:	8812      	ldrh	r2, [r2, #0]
  hReg1 = *pHandle->pParams_str->ADCDataReg1[bSector];
 8005068:	b2ad      	uxth	r5, r5
  hReg2 = *pHandle->pParams_str->ADCDataReg2[bSector];
 800506a:	b292      	uxth	r2, r2
  
  switch ( bSector )
 800506c:	2805      	cmp	r0, #5
 800506e:	d80f      	bhi.n	8005090 <R3_1_GetPhaseCurrents+0x54>
 8005070:	4c32      	ldr	r4, [pc, #200]	; (800513c <R3_1_GetPhaseCurrents+0x100>)
 8005072:	f7fb f853 	bl	800011c <__gnu_thumb1_case_uqi>
 8005076:	462a      	.short	0x462a
 8005078:	2a030346 	.word	0x2a030346
    case SECTOR_4:
    case SECTOR_5:
      /* Current on Phase C is not accessible     */
      /* Ia = PhaseAOffset - ADC converted value) ------------------------------*/

      wAux = ( int32_t )( pHandle->PhaseAOffset ) - ( int32_t )( hReg1 );
 800507c:	6dd8      	ldr	r0, [r3, #92]	; 0x5c
 800507e:	1b40      	subs	r0, r0, r5

      /* Saturation of Ia */
      if ( wAux < -INT16_MAX )
 8005080:	42a0      	cmp	r0, r4
 8005082:	da14      	bge.n	80050ae <R3_1_GetPhaseCurrents+0x72>
      {
        pStator_Currents->a = -INT16_MAX;
 8005084:	800c      	strh	r4, [r1, #0]
        pStator_Currents->a = ( int16_t )wAux;
      }

      /* Ib = PhaseBOffset - ADC converted value) ------------------------------*/

      wAux = ( int32_t )( pHandle->PhaseBOffset ) - ( int32_t )( hReg2 );
 8005086:	6e18      	ldr	r0, [r3, #96]	; 0x60
 8005088:	1a82      	subs	r2, r0, r2

      /* Saturation of Ib */
      if ( wAux < -INT16_MAX )
 800508a:	42a2      	cmp	r2, r4
 800508c:	da16      	bge.n	80050bc <R3_1_GetPhaseCurrents+0x80>
      {
        pStator_Currents->b = -INT16_MAX;
 800508e:	804c      	strh	r4, [r1, #2]

    default:
      break;
  }

  pHandle->_Super.Ia = pStator_Currents->a;
 8005090:	2000      	movs	r0, #0
 8005092:	5e0a      	ldrsh	r2, [r1, r0]
 8005094:	0018      	movs	r0, r3
 8005096:	3048      	adds	r0, #72	; 0x48
 8005098:	8002      	strh	r2, [r0, #0]
  pHandle->_Super.Ib = pStator_Currents->b;
 800509a:	2002      	movs	r0, #2
 800509c:	5e09      	ldrsh	r1, [r1, r0]
 800509e:	0018      	movs	r0, r3
  pHandle->_Super.Ic = -pStator_Currents->a - pStator_Currents->b;
 80050a0:	1852      	adds	r2, r2, r1
  pHandle->_Super.Ib = pStator_Currents->b;
 80050a2:	304a      	adds	r0, #74	; 0x4a
  pHandle->_Super.Ic = -pStator_Currents->a - pStator_Currents->b;
 80050a4:	4252      	negs	r2, r2
 80050a6:	334c      	adds	r3, #76	; 0x4c
  pHandle->_Super.Ib = pStator_Currents->b;
 80050a8:	8001      	strh	r1, [r0, #0]
  pHandle->_Super.Ic = -pStator_Currents->a - pStator_Currents->b;
 80050aa:	801a      	strh	r2, [r3, #0]
}
 80050ac:	bd30      	pop	{r4, r5, pc}
      else  if ( wAux > INT16_MAX )
 80050ae:	2580      	movs	r5, #128	; 0x80
 80050b0:	022d      	lsls	r5, r5, #8
 80050b2:	42a8      	cmp	r0, r5
 80050b4:	db00      	blt.n	80050b8 <R3_1_GetPhaseCurrents+0x7c>
        pStator_Currents->a = INT16_MAX;
 80050b6:	4822      	ldr	r0, [pc, #136]	; (8005140 <R3_1_GetPhaseCurrents+0x104>)
        pStator_Currents->a = ( int16_t )wAux;
 80050b8:	8008      	strh	r0, [r1, #0]
 80050ba:	e7e4      	b.n	8005086 <R3_1_GetPhaseCurrents+0x4a>
      else  if ( wAux > INT16_MAX )
 80050bc:	2080      	movs	r0, #128	; 0x80
 80050be:	0200      	lsls	r0, r0, #8
 80050c0:	4282      	cmp	r2, r0
 80050c2:	db00      	blt.n	80050c6 <R3_1_GetPhaseCurrents+0x8a>
        pStator_Currents->b = INT16_MAX;
 80050c4:	4a1e      	ldr	r2, [pc, #120]	; (8005140 <R3_1_GetPhaseCurrents+0x104>)
        pStator_Currents->b = ( int16_t )wAux;
 80050c6:	804a      	strh	r2, [r1, #2]
 80050c8:	e7e2      	b.n	8005090 <R3_1_GetPhaseCurrents+0x54>
      wAux = ( int32_t )( pHandle->PhaseBOffset ) - ( int32_t )( hReg1 );
 80050ca:	6e18      	ldr	r0, [r3, #96]	; 0x60
 80050cc:	1b40      	subs	r0, r0, r5
      if ( wAux < -INT16_MAX )
 80050ce:	42a0      	cmp	r0, r4
 80050d0:	da0c      	bge.n	80050ec <R3_1_GetPhaseCurrents+0xb0>
        pStator_Currents->b = -INT16_MAX;
 80050d2:	804c      	strh	r4, [r1, #2]
      wAux = -wAux - ( int32_t )pStator_Currents->b;
 80050d4:	6e58      	ldr	r0, [r3, #100]	; 0x64
 80050d6:	1a12      	subs	r2, r2, r0
 80050d8:	2502      	movs	r5, #2
 80050da:	5f48      	ldrsh	r0, [r1, r5]
 80050dc:	1a12      	subs	r2, r2, r0
      if ( wAux > INT16_MAX )
 80050de:	2080      	movs	r0, #128	; 0x80
 80050e0:	0200      	lsls	r0, r0, #8
 80050e2:	4282      	cmp	r2, r0
 80050e4:	db09      	blt.n	80050fa <R3_1_GetPhaseCurrents+0xbe>
        pStator_Currents->a = INT16_MAX;
 80050e6:	4a16      	ldr	r2, [pc, #88]	; (8005140 <R3_1_GetPhaseCurrents+0x104>)
        pStator_Currents->a = ( int16_t )wAux;
 80050e8:	800a      	strh	r2, [r1, #0]
 80050ea:	e7d1      	b.n	8005090 <R3_1_GetPhaseCurrents+0x54>
      else  if ( wAux > INT16_MAX )
 80050ec:	2580      	movs	r5, #128	; 0x80
 80050ee:	022d      	lsls	r5, r5, #8
 80050f0:	42a8      	cmp	r0, r5
 80050f2:	db00      	blt.n	80050f6 <R3_1_GetPhaseCurrents+0xba>
        pStator_Currents->b = INT16_MAX;
 80050f4:	4812      	ldr	r0, [pc, #72]	; (8005140 <R3_1_GetPhaseCurrents+0x104>)
        pStator_Currents->b = ( int16_t )wAux;
 80050f6:	8048      	strh	r0, [r1, #2]
 80050f8:	e7ec      	b.n	80050d4 <R3_1_GetPhaseCurrents+0x98>
      else  if ( wAux < -INT16_MAX )
 80050fa:	42a2      	cmp	r2, r4
 80050fc:	daf4      	bge.n	80050e8 <R3_1_GetPhaseCurrents+0xac>
        pStator_Currents->a = -INT16_MAX;
 80050fe:	800c      	strh	r4, [r1, #0]
 8005100:	e7c6      	b.n	8005090 <R3_1_GetPhaseCurrents+0x54>
      wAux = ( int32_t )( pHandle->PhaseAOffset ) - ( int32_t )( hReg1 );
 8005102:	6dd8      	ldr	r0, [r3, #92]	; 0x5c
 8005104:	1b40      	subs	r0, r0, r5
      if ( wAux < -INT16_MAX )
 8005106:	42a0      	cmp	r0, r4
 8005108:	da0c      	bge.n	8005124 <R3_1_GetPhaseCurrents+0xe8>
        pStator_Currents->a = -INT16_MAX;
 800510a:	800c      	strh	r4, [r1, #0]
      wAux = -wAux -  ( int32_t )pStator_Currents->a;         /* Ib  */
 800510c:	6e58      	ldr	r0, [r3, #100]	; 0x64
 800510e:	1a12      	subs	r2, r2, r0
 8005110:	2500      	movs	r5, #0
 8005112:	5f48      	ldrsh	r0, [r1, r5]
 8005114:	1a12      	subs	r2, r2, r0
      if ( wAux > INT16_MAX )
 8005116:	2080      	movs	r0, #128	; 0x80
 8005118:	0200      	lsls	r0, r0, #8
 800511a:	4282      	cmp	r2, r0
 800511c:	dad2      	bge.n	80050c4 <R3_1_GetPhaseCurrents+0x88>
      else  if ( wAux < -INT16_MAX )
 800511e:	42a2      	cmp	r2, r4
 8005120:	dbb5      	blt.n	800508e <R3_1_GetPhaseCurrents+0x52>
 8005122:	e7d0      	b.n	80050c6 <R3_1_GetPhaseCurrents+0x8a>
      else  if ( wAux > INT16_MAX )
 8005124:	2580      	movs	r5, #128	; 0x80
 8005126:	022d      	lsls	r5, r5, #8
 8005128:	42a8      	cmp	r0, r5
 800512a:	db00      	blt.n	800512e <R3_1_GetPhaseCurrents+0xf2>
        pStator_Currents->a = INT16_MAX;
 800512c:	4804      	ldr	r0, [pc, #16]	; (8005140 <R3_1_GetPhaseCurrents+0x104>)
        pStator_Currents->a = ( int16_t )wAux;
 800512e:	8008      	strh	r0, [r1, #0]
 8005130:	e7ec      	b.n	800510c <R3_1_GetPhaseCurrents+0xd0>
 8005132:	46c0      	nop			; (mov r8, r8)
 8005134:	40012c00 	.word	0x40012c00
 8005138:	40012400 	.word	0x40012400
 800513c:	ffff8001 	.word	0xffff8001
 8005140:	00007fff 	.word	0x00007fff

08005144 <R3_1_HFCurrentsCalibrationAB>:
*         the offset computation.
* @param  pHandle Pointer on the target component instance.
* @retval It always returns {0,0} in ab_t format
*/
__weak void R3_1_HFCurrentsCalibrationAB( PWMC_Handle_t * pHdl, ab_t * pStator_Currents )
{
 8005144:	b530      	push	{r4, r5, lr}
  PWMC_R3_1_Handle_t * pHandle = ( PWMC_R3_1_Handle_t * )pHdl;
#if defined (__ICCARM__)
#pragma cstat_restore = "MISRAC2012-Rule-11.3"
#endif
  TIM_TypeDef * TIMx = TIM1;
  uint8_t bSector = pHandle->CalibSector;
 8005146:	0003      	movs	r3, r0
 8005148:	2570      	movs	r5, #112	; 0x70
 800514a:	4c10      	ldr	r4, [pc, #64]	; (800518c <R3_1_HFCurrentsCalibrationAB+0x48>)
 800514c:	3373      	adds	r3, #115	; 0x73
 800514e:	6862      	ldr	r2, [r4, #4]
 8005150:	781b      	ldrb	r3, [r3, #0]
 8005152:	43aa      	bics	r2, r5
 8005154:	6062      	str	r2, [r4, #4]

  /* disable ADC trigger source */
  LL_TIM_SetTriggerOutput(TIMx, LL_TIM_TRGO_RESET);

  if ( pHandle->PolarizationCounter < NB_CONVERSIONS )
 8005156:	0002      	movs	r2, r0
 8005158:	3272      	adds	r2, #114	; 0x72
 800515a:	7814      	ldrb	r4, [r2, #0]
 800515c:	2c0f      	cmp	r4, #15
 800515e:	d810      	bhi.n	8005182 <R3_1_HFCurrentsCalibrationAB+0x3e>
  {
    pHandle->PhaseAOffset += *pHandle->pParams_str->ADCDataReg1[bSector];
 8005160:	6f84      	ldr	r4, [r0, #120]	; 0x78
 8005162:	009b      	lsls	r3, r3, #2
 8005164:	18e3      	adds	r3, r4, r3
 8005166:	6b5c      	ldr	r4, [r3, #52]	; 0x34
 8005168:	6dc5      	ldr	r5, [r0, #92]	; 0x5c
 800516a:	8824      	ldrh	r4, [r4, #0]
    pHandle->PhaseBOffset += *pHandle->pParams_str->ADCDataReg2[bSector];
 800516c:	6cdb      	ldr	r3, [r3, #76]	; 0x4c
    pHandle->PhaseAOffset += *pHandle->pParams_str->ADCDataReg1[bSector];
 800516e:	192c      	adds	r4, r5, r4
    pHandle->PhaseBOffset += *pHandle->pParams_str->ADCDataReg2[bSector];
 8005170:	881b      	ldrh	r3, [r3, #0]
    pHandle->PhaseAOffset += *pHandle->pParams_str->ADCDataReg1[bSector];
 8005172:	65c4      	str	r4, [r0, #92]	; 0x5c
    pHandle->PhaseBOffset += *pHandle->pParams_str->ADCDataReg2[bSector];
 8005174:	6e04      	ldr	r4, [r0, #96]	; 0x60
 8005176:	18e3      	adds	r3, r4, r3
 8005178:	6603      	str	r3, [r0, #96]	; 0x60
    pHandle->PolarizationCounter++;
 800517a:	7813      	ldrb	r3, [r2, #0]
 800517c:	3301      	adds	r3, #1
 800517e:	b2db      	uxtb	r3, r3
 8005180:	7013      	strb	r3, [r2, #0]
  }

  /* during offset calibration no current is flowing in the phases */
  pStator_Currents->a = 0;
 8005182:	2300      	movs	r3, #0
 8005184:	800b      	strh	r3, [r1, #0]
  pStator_Currents->b = 0;
 8005186:	804b      	strh	r3, [r1, #2]
}
 8005188:	bd30      	pop	{r4, r5, pc}
 800518a:	46c0      	nop			; (mov r8, r8)
 800518c:	40012c00 	.word	0x40012c00

08005190 <R3_1_HFCurrentsCalibrationC>:
*         the offset computation.
* @param  pHandle Pointer on the target component instance.
* @retval It always returns {0,0} in ab_t format
*/
__weak void R3_1_HFCurrentsCalibrationC( PWMC_Handle_t * pHdl, ab_t * pStator_Currents )
{
 8005190:	b530      	push	{r4, r5, lr}
  PWMC_R3_1_Handle_t * pHandle = ( PWMC_R3_1_Handle_t * )pHdl;
#if defined (__ICCARM__)
#pragma cstat_restore = "MISRAC2012-Rule-11.3"
#endif
  TIM_TypeDef * TIMx = TIM1;
  uint8_t bSector = pHandle->CalibSector;
 8005192:	0003      	movs	r3, r0
 8005194:	2570      	movs	r5, #112	; 0x70
 8005196:	4c0f      	ldr	r4, [pc, #60]	; (80051d4 <R3_1_HFCurrentsCalibrationC+0x44>)
 8005198:	3373      	adds	r3, #115	; 0x73
 800519a:	6862      	ldr	r2, [r4, #4]
 800519c:	781b      	ldrb	r3, [r3, #0]
 800519e:	43aa      	bics	r2, r5
 80051a0:	6062      	str	r2, [r4, #4]

  /* disable ADC trigger source */
  LL_TIM_SetTriggerOutput(TIMx, LL_TIM_TRGO_RESET);
  
  pHandle->_Super.Sector = SECTOR_1;
 80051a2:	0002      	movs	r2, r0
 80051a4:	2400      	movs	r4, #0
 80051a6:	323a      	adds	r2, #58	; 0x3a
 80051a8:	7014      	strb	r4, [r2, #0]
  if ( pHandle->PolarizationCounter < NB_CONVERSIONS )
 80051aa:	3238      	adds	r2, #56	; 0x38
 80051ac:	7814      	ldrb	r4, [r2, #0]
 80051ae:	2c0f      	cmp	r4, #15
 80051b0:	d80c      	bhi.n	80051cc <R3_1_HFCurrentsCalibrationC+0x3c>
  {
    pHandle->PhaseCOffset += *pHandle->pParams_str->ADCDataReg2[bSector];
 80051b2:	6f84      	ldr	r4, [r0, #120]	; 0x78
 80051b4:	3312      	adds	r3, #18
 80051b6:	009b      	lsls	r3, r3, #2
 80051b8:	18e3      	adds	r3, r4, r3
 80051ba:	685b      	ldr	r3, [r3, #4]
 80051bc:	6e44      	ldr	r4, [r0, #100]	; 0x64
 80051be:	881b      	ldrh	r3, [r3, #0]
 80051c0:	18e3      	adds	r3, r4, r3
 80051c2:	6643      	str	r3, [r0, #100]	; 0x64
    pHandle->PolarizationCounter++;
 80051c4:	7813      	ldrb	r3, [r2, #0]
 80051c6:	3301      	adds	r3, #1
 80051c8:	b2db      	uxtb	r3, r3
 80051ca:	7013      	strb	r3, [r2, #0]
  }

  /* during offset calibration no current is flowing in the phases */
  pStator_Currents->a = 0;
 80051cc:	2300      	movs	r3, #0
 80051ce:	800b      	strh	r3, [r1, #0]
  pStator_Currents->b = 0;
 80051d0:	804b      	strh	r3, [r1, #2]
}
 80051d2:	bd30      	pop	{r4, r5, pc}
 80051d4:	40012c00 	.word	0x40012c00

080051d8 <R3_1_Init>:
{
 80051d8:	b5f7      	push	{r0, r1, r2, r4, r5, r6, r7, lr}
  * @param  ADCx ADC instance
  * @retval None
  */
__STATIC_INLINE void LL_ADC_DisableIT_EOC(ADC_TypeDef *ADCx)
{
  CLEAR_BIT(ADCx->IER, LL_ADC_IT_EOC);
 80051da:	2504      	movs	r5, #4
  * @param  ADCx ADC instance
  * @retval None
  */
__STATIC_INLINE void LL_ADC_DisableIT_EOS(ADC_TypeDef *ADCx)
{
  CLEAR_BIT(ADCx->IER, LL_ADC_IT_EOS);
 80051dc:	2108      	movs	r1, #8
  CLEAR_BIT(ADCx->IER, LL_ADC_IT_EOC);
 80051de:	4b37      	ldr	r3, [pc, #220]	; (80052bc <R3_1_Init+0xe4>)
  MODIFY_REG(ADCx->CR,
 80051e0:	4f37      	ldr	r7, [pc, #220]	; (80052c0 <R3_1_Init+0xe8>)
  CLEAR_BIT(ADCx->IER, LL_ADC_IT_EOC);
 80051e2:	685a      	ldr	r2, [r3, #4]
 80051e4:	43aa      	bics	r2, r5
 80051e6:	605a      	str	r2, [r3, #4]
  WRITE_REG(ADCx->ISR, LL_ADC_FLAG_EOC);
 80051e8:	601d      	str	r5, [r3, #0]
  CLEAR_BIT(ADCx->IER, LL_ADC_IT_EOS);
 80051ea:	685a      	ldr	r2, [r3, #4]
 80051ec:	438a      	bics	r2, r1
 80051ee:	605a      	str	r2, [r3, #4]
  * @rmtoll CR           CSSON         LL_RCC_HSE_EnableCSS
  * @retval None
  */
__STATIC_INLINE void LL_RCC_HSE_EnableCSS(void)
{
  SET_BIT(RCC->CR, RCC_CR_CSSON);
 80051f0:	2280      	movs	r2, #128	; 0x80
  WRITE_REG(ADCx->ISR, LL_ADC_FLAG_EOS);
 80051f2:	6019      	str	r1, [r3, #0]
 80051f4:	4933      	ldr	r1, [pc, #204]	; (80052c4 <R3_1_Init+0xec>)
 80051f6:	0312      	lsls	r2, r2, #12
 80051f8:	680c      	ldr	r4, [r1, #0]
 80051fa:	4322      	orrs	r2, r4
  WRITE_REG(TIMx->SR, ~(TIM_SR_BIF));
 80051fc:	2481      	movs	r4, #129	; 0x81
 80051fe:	600a      	str	r2, [r1, #0]
 8005200:	4a31      	ldr	r2, [pc, #196]	; (80052c8 <R3_1_Init+0xf0>)
 8005202:	4264      	negs	r4, r4
 8005204:	6114      	str	r4, [r2, #16]
  SET_BIT(TIMx->DIER, TIM_DIER_BIE);
 8005206:	68d6      	ldr	r6, [r2, #12]
 8005208:	3402      	adds	r4, #2
 800520a:	34ff      	adds	r4, #255	; 0xff
 800520c:	4334      	orrs	r4, r6
 800520e:	60d4      	str	r4, [r2, #12]
    LL_TIM_SetCounter( TIM1, ( uint32_t )( pHandle->Half_PWMPeriod ) - 1u );
 8005210:	0004      	movs	r4, r0
  * @retval None
*/
__STATIC_INLINE void LL_APB1_GRP2_EnableClock(uint32_t Periphs)
{
  __IO uint32_t tmpreg;
  SET_BIT(RCC->APB2ENR, Periphs);
 8005212:	2680      	movs	r6, #128	; 0x80
 8005214:	346c      	adds	r4, #108	; 0x6c
 8005216:	8824      	ldrh	r4, [r4, #0]
 8005218:	03f6      	lsls	r6, r6, #15
 800521a:	3c01      	subs	r4, #1
  WRITE_REG(TIMx->CNT, Counter);
 800521c:	6254      	str	r4, [r2, #36]	; 0x24
 800521e:	698c      	ldr	r4, [r1, #24]
 8005220:	4334      	orrs	r4, r6
 8005222:	618c      	str	r4, [r1, #24]
  /* Delay after an RCC peripheral clock enabling */
  tmpreg = READ_BIT(RCC->APB2ENR, Periphs);
 8005224:	6989      	ldr	r1, [r1, #24]
  *         (*) value not defined in all devices
  * @retval None
  */
__STATIC_INLINE void LL_DBGMCU_APB1_GRP2_FreezePeriph(uint32_t Periphs)
{
  SET_BIT(DBGMCU->APB2FZ, Periphs);
 8005226:	4c29      	ldr	r4, [pc, #164]	; (80052cc <R3_1_Init+0xf4>)
 8005228:	4031      	ands	r1, r6
 800522a:	9101      	str	r1, [sp, #4]
  (void)tmpreg;
 800522c:	9901      	ldr	r1, [sp, #4]
 800522e:	2180      	movs	r1, #128	; 0x80
 8005230:	68e6      	ldr	r6, [r4, #12]
 8005232:	0109      	lsls	r1, r1, #4
 8005234:	4331      	orrs	r1, r6
 8005236:	60e1      	str	r1, [r4, #12]
  MODIFY_REG(ADCx->CR,
 8005238:	2180      	movs	r1, #128	; 0x80
 800523a:	689e      	ldr	r6, [r3, #8]
 800523c:	0609      	lsls	r1, r1, #24
 800523e:	403e      	ands	r6, r7
 8005240:	4331      	orrs	r1, r6
 8005242:	6099      	str	r1, [r3, #8]
  return (READ_BIT(ADCx->CR, ADC_CR_ADSTP) == (ADC_CR_ADSTP));
 8005244:	2610      	movs	r6, #16
  return (READ_BIT(ADCx->CR, ADC_CR_ADDIS) == (ADC_CR_ADDIS));
 8005246:	2102      	movs	r1, #2
  return (READ_BIT(ADCx->CR, ADC_CR_ADCAL) == (ADC_CR_ADCAL));
 8005248:	689c      	ldr	r4, [r3, #8]
    while ((LL_ADC_IsCalibrationOnGoing(ADC1) == SET) ||
 800524a:	2c00      	cmp	r4, #0
 800524c:	dbfc      	blt.n	8005248 <R3_1_Init+0x70>
  return (READ_BIT(ADCx->CR, ADC_CR_ADSTART) == (ADC_CR_ADSTART));
 800524e:	689c      	ldr	r4, [r3, #8]
 8005250:	422c      	tst	r4, r5
 8005252:	d1f9      	bne.n	8005248 <R3_1_Init+0x70>
  return (READ_BIT(ADCx->CR, ADC_CR_ADSTP) == (ADC_CR_ADSTP));
 8005254:	689c      	ldr	r4, [r3, #8]
           (LL_ADC_REG_IsConversionOngoing(ADC1) == SET) ||
 8005256:	4234      	tst	r4, r6
 8005258:	d1f6      	bne.n	8005248 <R3_1_Init+0x70>
  return (READ_BIT(ADCx->CR, ADC_CR_ADDIS) == (ADC_CR_ADDIS));
 800525a:	689c      	ldr	r4, [r3, #8]
           (LL_ADC_REG_IsStopConversionOngoing(ADC1) == SET) ||
 800525c:	420c      	tst	r4, r1
 800525e:	d1f3      	bne.n	8005248 <R3_1_Init+0x70>
  MODIFY_REG(ADCx->CR,
 8005260:	2101      	movs	r1, #1
 8005262:	689c      	ldr	r4, [r3, #8]
 8005264:	403c      	ands	r4, r7
 8005266:	430c      	orrs	r4, r1
 8005268:	609c      	str	r4, [r3, #8]
  return (READ_BIT(ADCx->ISR, LL_ADC_FLAG_ADRDY) == (LL_ADC_FLAG_ADRDY));
 800526a:	681c      	ldr	r4, [r3, #0]
    while ( LL_ADC_IsActiveFlag_ADRDY( ADC1 ) == RESET )
 800526c:	420c      	tst	r4, r1
 800526e:	d0fc      	beq.n	800526a <R3_1_Init+0x92>
    LL_DMA_SetMemoryAddress( DMA1, LL_DMA_CHANNEL_1, ( uint32_t )pHandle->ADC1_DMA_converted );
 8005270:	0004      	movs	r4, r0
  MODIFY_REG(((DMA_Channel_TypeDef *)((uint32_t)((uint32_t)DMAx + CHANNEL_OFFSET_TAB[Channel - 1U])))->CNDTR,
 8005272:	2503      	movs	r5, #3
  WRITE_REG(((DMA_Channel_TypeDef *)((uint32_t)((uint32_t)DMAx + CHANNEL_OFFSET_TAB[Channel - 1U])))->CMAR, MemoryAddress);
 8005274:	4b16      	ldr	r3, [pc, #88]	; (80052d0 <R3_1_Init+0xf8>)
 8005276:	346e      	adds	r4, #110	; 0x6e
 8005278:	60dc      	str	r4, [r3, #12]
  WRITE_REG(((DMA_Channel_TypeDef *)((uint32_t)((uint32_t)DMAx + CHANNEL_OFFSET_TAB[Channel - 1U])))->CPAR, PeriphAddress);
 800527a:	4c16      	ldr	r4, [pc, #88]	; (80052d4 <R3_1_Init+0xfc>)
 800527c:	609c      	str	r4, [r3, #8]
  MODIFY_REG(((DMA_Channel_TypeDef *)((uint32_t)((uint32_t)DMAx + CHANNEL_OFFSET_TAB[Channel - 1U])))->CNDTR,
 800527e:	685c      	ldr	r4, [r3, #4]
 8005280:	0c24      	lsrs	r4, r4, #16
 8005282:	0424      	lsls	r4, r4, #16
 8005284:	432c      	orrs	r4, r5
 8005286:	605c      	str	r4, [r3, #4]
  SET_BIT(((DMA_Channel_TypeDef *)((uint32_t)((uint32_t)DMAx + CHANNEL_OFFSET_TAB[Channel - 1U])))->CCR, DMA_CCR_EN);
 8005288:	681c      	ldr	r4, [r3, #0]
 800528a:	430c      	orrs	r4, r1
 800528c:	601c      	str	r4, [r3, #0]
  MODIFY_REG(TIMx->CR2, TIM_CR2_MMS, TimerSynchronization);
 800528e:	2470      	movs	r4, #112	; 0x70
 8005290:	6853      	ldr	r3, [r2, #4]
 8005292:	43a3      	bics	r3, r4
 8005294:	6053      	str	r3, [r2, #4]
  SET_BIT(TIMx->CCER, Channels);
 8005296:	6a14      	ldr	r4, [r2, #32]
 8005298:	4b0f      	ldr	r3, [pc, #60]	; (80052d8 <R3_1_Init+0x100>)
 800529a:	4323      	orrs	r3, r4
 800529c:	6213      	str	r3, [r2, #32]
    pHandle->ADCTriggerEdge = LL_ADC_REG_TRIG_EXT_RISING;
 800529e:	2380      	movs	r3, #128	; 0x80
    pHandle->OverCurrentFlag = false;
 80052a0:	0004      	movs	r4, r0
    pHandle->ADCTriggerEdge = LL_ADC_REG_TRIG_EXT_RISING;
 80052a2:	00db      	lsls	r3, r3, #3
 80052a4:	6683      	str	r3, [r0, #104]	; 0x68
    pHandle->OverCurrentFlag = false;
 80052a6:	2300      	movs	r3, #0
 80052a8:	3474      	adds	r4, #116	; 0x74
    pHandle->_Super.DTTest = 0u;
 80052aa:	304e      	adds	r0, #78	; 0x4e
    pHandle->OverCurrentFlag = false;
 80052ac:	8023      	strh	r3, [r4, #0]
    pHandle->ADCRegularLocked=false; 
 80052ae:	70e3      	strb	r3, [r4, #3]
    pHandle->_Super.DTTest = 0u;
 80052b0:	8003      	strh	r3, [r0, #0]
  SET_BIT(TIMx->CR1, TIM_CR1_CEN);
 80052b2:	6813      	ldr	r3, [r2, #0]
 80052b4:	4319      	orrs	r1, r3
 80052b6:	6011      	str	r1, [r2, #0]
}
 80052b8:	bdf7      	pop	{r0, r1, r2, r4, r5, r6, r7, pc}
 80052ba:	46c0      	nop			; (mov r8, r8)
 80052bc:	40012400 	.word	0x40012400
 80052c0:	7fffffe8 	.word	0x7fffffe8
 80052c4:	40021000 	.word	0x40021000
 80052c8:	40012c00 	.word	0x40012c00
 80052cc:	40015800 	.word	0x40015800
 80052d0:	40020008 	.word	0x40020008
 80052d4:	40012440 	.word	0x40012440
 80052d8:	00000555 	.word	0x00000555

080052dc <R3_1_WriteTIMRegisters>:
{
 80052dc:	0003      	movs	r3, r0
  TIM_TypeDef * TIMx = pHandle->pParams_str->TIMx;
 80052de:	6f82      	ldr	r2, [r0, #120]	; 0x78
  LL_TIM_OC_SetCompareCH1 ( TIMx, (uint32_t)pHandle->_Super.CntPhA );
 80052e0:	8e40      	ldrh	r0, [r0, #50]	; 0x32
  TIM_TypeDef * TIMx = pHandle->pParams_str->TIMx;
 80052e2:	6812      	ldr	r2, [r2, #0]
  WRITE_REG(TIMx->CCR1, CompareValue);
 80052e4:	6350      	str	r0, [r2, #52]	; 0x34
  LL_TIM_OC_SetCompareCH2 ( TIMx, (uint32_t)pHandle->_Super.CntPhB );
 80052e6:	8e98      	ldrh	r0, [r3, #52]	; 0x34
  WRITE_REG(TIMx->CCR2, CompareValue);
 80052e8:	6390      	str	r0, [r2, #56]	; 0x38
  LL_TIM_OC_SetCompareCH3 ( TIMx, (uint32_t)pHandle->_Super.CntPhC );
 80052ea:	8ed8      	ldrh	r0, [r3, #54]	; 0x36
  WRITE_REG(TIMx->CCR3, CompareValue);
 80052ec:	63d0      	str	r0, [r2, #60]	; 0x3c
  WRITE_REG(TIMx->CCR4, CompareValue);
 80052ee:	6411      	str	r1, [r2, #64]	; 0x40
  if ( pHandle->_Super.SWerror == 1u )
 80052f0:	8f18      	ldrh	r0, [r3, #56]	; 0x38
  if (((TIMx->CR2) & TIM_CR2_MMS_Msk) != LL_TIM_TRGO_RESET )
 80052f2:	6852      	ldr	r2, [r2, #4]
  if ( pHandle->_Super.SWerror == 1u )
 80052f4:	2801      	cmp	r0, #1
 80052f6:	d005      	beq.n	8005304 <R3_1_WriteTIMRegisters+0x28>
  if (((TIMx->CR2) & TIM_CR2_MMS_Msk) != LL_TIM_TRGO_RESET )
 80052f8:	2070      	movs	r0, #112	; 0x70
 80052fa:	4002      	ands	r2, r0
 80052fc:	1e53      	subs	r3, r2, #1
 80052fe:	419a      	sbcs	r2, r3
    hAux = MC_FOC_DURATION;
 8005300:	b290      	uxth	r0, r2
}
 8005302:	4770      	bx	lr
    pHandle->_Super.SWerror = 0u;
 8005304:	2200      	movs	r2, #0
 8005306:	871a      	strh	r2, [r3, #56]	; 0x38
 8005308:	e7fb      	b.n	8005302 <R3_1_WriteTIMRegisters+0x26>

0800530a <R3_1_SetADCSampPointCalibration>:
  pHandle->ADCTriggerEdge = LL_ADC_REG_TRIG_EXT_RISING;
 800530a:	2380      	movs	r3, #128	; 0x80
 800530c:	00db      	lsls	r3, r3, #3
{
 800530e:	b510      	push	{r4, lr}
  pHandle->ADCTriggerEdge = LL_ADC_REG_TRIG_EXT_RISING;
 8005310:	6683      	str	r3, [r0, #104]	; 0x68
  pHandle->_Super.Sector = pHandle->CalibSector;
 8005312:	0003      	movs	r3, r0
 8005314:	0002      	movs	r2, r0
 8005316:	333a      	adds	r3, #58	; 0x3a
  return R3_1_WriteTIMRegisters( pHdl,  ( uint16_t )( pHandle->Half_PWMPeriod ) - 1u);
 8005318:	8e59      	ldrh	r1, [r3, #50]	; 0x32
  pHandle->_Super.Sector = pHandle->CalibSector;
 800531a:	3273      	adds	r2, #115	; 0x73
 800531c:	7812      	ldrb	r2, [r2, #0]
  return R3_1_WriteTIMRegisters( pHdl,  ( uint16_t )( pHandle->Half_PWMPeriod ) - 1u);
 800531e:	3901      	subs	r1, #1
  pHandle->_Super.Sector = pHandle->CalibSector;
 8005320:	701a      	strb	r2, [r3, #0]
  return R3_1_WriteTIMRegisters( pHdl,  ( uint16_t )( pHandle->Half_PWMPeriod ) - 1u);
 8005322:	b289      	uxth	r1, r1
 8005324:	f7ff ffda 	bl	80052dc <R3_1_WriteTIMRegisters>
}
 8005328:	bd10      	pop	{r4, pc}

0800532a <R3_1_SetADCSampPointSectX>:
{
 800532a:	b570      	push	{r4, r5, r6, lr}
  if ( ( uint16_t )( pHandle->Half_PWMPeriod - lowDuty ) > pHandle->pParams_str->hTafter )
 800532c:	0003      	movs	r3, r0
 800532e:	6f86      	ldr	r6, [r0, #120]	; 0x78
 8005330:	336c      	adds	r3, #108	; 0x6c
 8005332:	0031      	movs	r1, r6
  register uint16_t lowDuty = pHdl->lowDuty;
 8005334:	8f85      	ldrh	r5, [r0, #60]	; 0x3c
  if ( ( uint16_t )( pHandle->Half_PWMPeriod - lowDuty ) > pHandle->pParams_str->hTafter )
 8005336:	881b      	ldrh	r3, [r3, #0]
 8005338:	3166      	adds	r1, #102	; 0x66
 800533a:	1b5a      	subs	r2, r3, r5
 800533c:	8809      	ldrh	r1, [r1, #0]
 800533e:	b292      	uxth	r2, r2
 8005340:	428a      	cmp	r2, r1
 8005342:	d908      	bls.n	8005356 <R3_1_SetADCSampPointSectX+0x2c>
    pHandle->_Super.Sector = SECTOR_5;
 8005344:	0002      	movs	r2, r0
 8005346:	2104      	movs	r1, #4
 8005348:	323a      	adds	r2, #58	; 0x3a
    hCntSmp = ( uint32_t )( pHandle->Half_PWMPeriod ) - 1u;
 800534a:	3b01      	subs	r3, #1
    pHandle->_Super.Sector = SECTOR_5;
 800534c:	7011      	strb	r1, [r2, #0]
    hCntSmp = ( uint32_t )( pHandle->Half_PWMPeriod ) - 1u;
 800534e:	b299      	uxth	r1, r3
  return R3_1_WriteTIMRegisters( &pHandle->_Super, hCntSmp );
 8005350:	f7ff ffc4 	bl	80052dc <R3_1_WriteTIMRegisters>
}
 8005354:	bd70      	pop	{r4, r5, r6, pc}
    hDeltaDuty = ( uint16_t )( lowDuty - midDuty );
 8005356:	8fc4      	ldrh	r4, [r0, #62]	; 0x3e
    if ( hDeltaDuty > ( uint16_t )( pHandle->Half_PWMPeriod - lowDuty ) * 2u )
 8005358:	0052      	lsls	r2, r2, #1
    hDeltaDuty = ( uint16_t )( lowDuty - midDuty );
 800535a:	1b2c      	subs	r4, r5, r4
    if ( hDeltaDuty > ( uint16_t )( pHandle->Half_PWMPeriod - lowDuty ) * 2u )
 800535c:	b2a4      	uxth	r4, r4
 800535e:	4294      	cmp	r4, r2
 8005360:	d904      	bls.n	800536c <R3_1_SetADCSampPointSectX+0x42>
      hCntSmp = lowDuty - pHandle->pParams_str->hTbefore;
 8005362:	3668      	adds	r6, #104	; 0x68
 8005364:	8831      	ldrh	r1, [r6, #0]
 8005366:	1a69      	subs	r1, r5, r1
        hCntSmp = ( 2u * pHandle->Half_PWMPeriod ) - hCntSmp - 1u;
 8005368:	b289      	uxth	r1, r1
 800536a:	e7f1      	b.n	8005350 <R3_1_SetADCSampPointSectX+0x26>
      hCntSmp = lowDuty + pHandle->pParams_str->hTafter;
 800536c:	1949      	adds	r1, r1, r5
 800536e:	b289      	uxth	r1, r1
      if ( hCntSmp >= pHandle->Half_PWMPeriod )
 8005370:	428b      	cmp	r3, r1
 8005372:	d8ed      	bhi.n	8005350 <R3_1_SetADCSampPointSectX+0x26>
        pHandle->ADCTriggerEdge = LL_ADC_REG_TRIG_EXT_FALLING;
 8005374:	2280      	movs	r2, #128	; 0x80
        hCntSmp = ( 2u * pHandle->Half_PWMPeriod ) - hCntSmp - 1u;
 8005376:	005b      	lsls	r3, r3, #1
        pHandle->ADCTriggerEdge = LL_ADC_REG_TRIG_EXT_FALLING;
 8005378:	0112      	lsls	r2, r2, #4
        hCntSmp = ( 2u * pHandle->Half_PWMPeriod ) - hCntSmp - 1u;
 800537a:	3b01      	subs	r3, #1
        pHandle->ADCTriggerEdge = LL_ADC_REG_TRIG_EXT_FALLING;
 800537c:	6682      	str	r2, [r0, #104]	; 0x68
        hCntSmp = ( 2u * pHandle->Half_PWMPeriod ) - hCntSmp - 1u;
 800537e:	1a59      	subs	r1, r3, r1
 8005380:	e7f2      	b.n	8005368 <R3_1_SetADCSampPointSectX+0x3e>
	...

08005384 <R3_1_TurnOnLowSides>:
#if defined (__ICCARM__)
#pragma cstat_restore = "MISRAC2012-Rule-11.3"
#endif
  TIM_TypeDef * TIMx = TIM1;

  pHandle->_Super.TurnOnLowSidesAction = true;
 8005384:	0003      	movs	r3, r0
 8005386:	2101      	movs	r1, #1
  WRITE_REG(TIMx->SR, ~(TIM_SR_UIF));
 8005388:	2202      	movs	r2, #2
 800538a:	3342      	adds	r3, #66	; 0x42
 800538c:	7019      	strb	r1, [r3, #0]
 800538e:	4b0f      	ldr	r3, [pc, #60]	; (80053cc <R3_1_TurnOnLowSides+0x48>)
 8005390:	4252      	negs	r2, r2
 8005392:	611a      	str	r2, [r3, #16]
  WRITE_REG(TIMx->CCR1, CompareValue);
 8005394:	2200      	movs	r2, #0
 8005396:	635a      	str	r2, [r3, #52]	; 0x34
  WRITE_REG(TIMx->CCR2, CompareValue);
 8005398:	639a      	str	r2, [r3, #56]	; 0x38
  WRITE_REG(TIMx->CCR3, CompareValue);
 800539a:	63da      	str	r2, [r3, #60]	; 0x3c
  return ((READ_BIT(TIMx->SR, TIM_SR_UIF) == (TIM_SR_UIF)) ? 1UL : 0UL);
 800539c:	691a      	ldr	r2, [r3, #16]
  LL_TIM_OC_SetCompareCH1(TIMx, 0u);
  LL_TIM_OC_SetCompareCH2(TIMx, 0u);
  LL_TIM_OC_SetCompareCH3(TIMx, 0u);

  /* Wait until next update */
  while ( LL_TIM_IsActiveFlag_UPDATE( TIMx ) == RESET )
 800539e:	420a      	tst	r2, r1
 80053a0:	d0fc      	beq.n	800539c <R3_1_TurnOnLowSides+0x18>
  SET_BIT(TIMx->BDTR, TIM_BDTR_MOE);
 80053a2:	2280      	movs	r2, #128	; 0x80
 80053a4:	6c59      	ldr	r1, [r3, #68]	; 0x44
 80053a6:	0212      	lsls	r2, r2, #8
 80053a8:	430a      	orrs	r2, r1
 80053aa:	645a      	str	r2, [r3, #68]	; 0x44
  {}

  /* Main PWM Output Enable */
  LL_TIM_EnableAllOutputs(TIMx);

  if ( ( pHandle->pParams_str->LowSideOutputs ) == ES_GPIO )
 80053ac:	6f83      	ldr	r3, [r0, #120]	; 0x78
 80053ae:	001a      	movs	r2, r3
 80053b0:	3272      	adds	r2, #114	; 0x72
 80053b2:	7812      	ldrb	r2, [r2, #0]
 80053b4:	2a02      	cmp	r2, #2
 80053b6:	d108      	bne.n	80053ca <R3_1_TurnOnLowSides+0x46>
  {
    /* Enable signals activation */
    LL_GPIO_SetOutputPin( pHandle->pParams_str->pwm_en_u_port, pHandle->pParams_str->pwm_en_u_pin );
 80053b8:	685a      	ldr	r2, [r3, #4]
  *         @arg @ref LL_GPIO_PIN_ALL
  * @retval None
  */
__STATIC_INLINE void LL_GPIO_SetOutputPin(GPIO_TypeDef *GPIOx, uint32_t PinMask)
{
  WRITE_REG(GPIOx->BSRR, PinMask);
 80053ba:	6919      	ldr	r1, [r3, #16]
 80053bc:	6191      	str	r1, [r2, #24]
    LL_GPIO_SetOutputPin( pHandle->pParams_str->pwm_en_v_port, pHandle->pParams_str->pwm_en_v_pin );
 80053be:	689a      	ldr	r2, [r3, #8]
 80053c0:	6959      	ldr	r1, [r3, #20]
 80053c2:	6191      	str	r1, [r2, #24]
    LL_GPIO_SetOutputPin( pHandle->pParams_str->pwm_en_w_port, pHandle->pParams_str->pwm_en_w_pin );
 80053c4:	68da      	ldr	r2, [r3, #12]
 80053c6:	699b      	ldr	r3, [r3, #24]
 80053c8:	6193      	str	r3, [r2, #24]

  }
  return;
}
 80053ca:	4770      	bx	lr
 80053cc:	40012c00 	.word	0x40012c00

080053d0 <R3_1_SwitchOnPWM>:
#if defined (__ICCARM__)
#pragma cstat_restore = "MISRAC2012-Rule-11.3"
#endif
  TIM_TypeDef * TIMx = TIM1;

  pHandle->_Super.TurnOnLowSidesAction = false;
 80053d0:	0003      	movs	r3, r0
{
 80053d2:	b5f7      	push	{r0, r1, r2, r4, r5, r6, r7, lr}
  pHandle->_Super.TurnOnLowSidesAction = false;
 80053d4:	2200      	movs	r2, #0

  /* We forbid ADC usage for regular conversion on Systick*/
  pHandle->ADCRegularLocked=true; 
 80053d6:	2401      	movs	r4, #1
  pHandle->_Super.TurnOnLowSidesAction = false;
 80053d8:	3342      	adds	r3, #66	; 0x42
 80053da:	701a      	strb	r2, [r3, #0]
  pHandle->ADCRegularLocked=true; 
 80053dc:	3335      	adds	r3, #53	; 0x35
 80053de:	701c      	strb	r4, [r3, #0]
  
  /* Set all duty to 50% */
  LL_TIM_OC_SetCompareCH1(TIMx, (uint32_t)(pHandle->Half_PWMPeriod >> 1));
 80053e0:	3b0b      	subs	r3, #11
 80053e2:	881a      	ldrh	r2, [r3, #0]
  WRITE_REG(TIMx->CCR1, CompareValue);
 80053e4:	4b2f      	ldr	r3, [pc, #188]	; (80054a4 <R3_1_SwitchOnPWM+0xd4>)
 80053e6:	0851      	lsrs	r1, r2, #1
  LL_TIM_OC_SetCompareCH2(TIMx, (uint32_t)(pHandle->Half_PWMPeriod >> 1));
  LL_TIM_OC_SetCompareCH3(TIMx, (uint32_t)(pHandle->Half_PWMPeriod >> 1));
  LL_TIM_OC_SetCompareCH4(TIMx, (uint32_t)(pHandle->Half_PWMPeriod - 5u));
 80053e8:	3a05      	subs	r2, #5
 80053ea:	6359      	str	r1, [r3, #52]	; 0x34
  WRITE_REG(TIMx->CCR2, CompareValue);
 80053ec:	6399      	str	r1, [r3, #56]	; 0x38
  WRITE_REG(TIMx->CCR3, CompareValue);
 80053ee:	63d9      	str	r1, [r3, #60]	; 0x3c
  WRITE_REG(TIMx->CCR4, CompareValue);
 80053f0:	641a      	str	r2, [r3, #64]	; 0x40
  WRITE_REG(TIMx->SR, ~(TIM_SR_UIF));
 80053f2:	2202      	movs	r2, #2
 80053f4:	4252      	negs	r2, r2
 80053f6:	611a      	str	r2, [r3, #16]
  return ((READ_BIT(TIMx->SR, TIM_SR_UIF) == (TIM_SR_UIF)) ? 1UL : 0UL);
 80053f8:	6919      	ldr	r1, [r3, #16]

  /* Wait for a new PWM period */
  LL_TIM_ClearFlag_UPDATE( TIMx );
  while ( LL_TIM_IsActiveFlag_UPDATE( TIMx ) == RESET )
 80053fa:	4221      	tst	r1, r4
 80053fc:	d0fc      	beq.n	80053f8 <R3_1_SwitchOnPWM+0x28>
  WRITE_REG(TIMx->SR, ~(TIM_SR_UIF));
 80053fe:	611a      	str	r2, [r3, #16]
  {}
  /* Clear Update Flag */
  LL_TIM_ClearFlag_UPDATE( TIMx );

  /* Main PWM Output Enable */
  TIMx->BDTR |= LL_TIM_OSSI_ENABLE;
 8005400:	2280      	movs	r2, #128	; 0x80
 8005402:	6c59      	ldr	r1, [r3, #68]	; 0x44
 8005404:	00d2      	lsls	r2, r2, #3
 8005406:	430a      	orrs	r2, r1
 8005408:	645a      	str	r2, [r3, #68]	; 0x44
  SET_BIT(TIMx->BDTR, TIM_BDTR_MOE);
 800540a:	2280      	movs	r2, #128	; 0x80
 800540c:	6c59      	ldr	r1, [r3, #68]	; 0x44
 800540e:	0212      	lsls	r2, r2, #8
 8005410:	430a      	orrs	r2, r1
 8005412:	645a      	str	r2, [r3, #68]	; 0x44
  LL_TIM_EnableAllOutputs(TIMx);

  if ( ( pHandle->pParams_str->LowSideOutputs ) == ES_GPIO )
 8005414:	6f82      	ldr	r2, [r0, #120]	; 0x78
 8005416:	0011      	movs	r1, r2
 8005418:	3172      	adds	r1, #114	; 0x72
 800541a:	7809      	ldrb	r1, [r1, #0]
 800541c:	2902      	cmp	r1, #2
 800541e:	d112      	bne.n	8005446 <R3_1_SwitchOnPWM+0x76>
  return ((READ_BIT(TIMx->CCER, Channels) == (Channels)) ? 1UL : 0UL);
 8005420:	6a19      	ldr	r1, [r3, #32]
  {
    if ( LL_TIM_CC_IsEnabledChannel(TIMx, TIMxCCER_MASK_CH123) != 0u )
    {
      LL_GPIO_SetOutputPin( pHandle->pParams_str->pwm_en_u_port, pHandle->pParams_str->pwm_en_u_pin );
 8005422:	6856      	ldr	r6, [r2, #4]
 8005424:	0008      	movs	r0, r1
      LL_GPIO_SetOutputPin( pHandle->pParams_str->pwm_en_v_port, pHandle->pParams_str->pwm_en_v_pin );
      LL_GPIO_SetOutputPin( pHandle->pParams_str->pwm_en_w_port, pHandle->pParams_str->pwm_en_w_pin );
 8005426:	68d1      	ldr	r1, [r2, #12]
      LL_GPIO_SetOutputPin( pHandle->pParams_str->pwm_en_u_port, pHandle->pParams_str->pwm_en_u_pin );
 8005428:	6917      	ldr	r7, [r2, #16]
      LL_GPIO_SetOutputPin( pHandle->pParams_str->pwm_en_w_port, pHandle->pParams_str->pwm_en_w_pin );
 800542a:	9100      	str	r1, [sp, #0]
 800542c:	6991      	ldr	r1, [r2, #24]
      LL_GPIO_SetOutputPin( pHandle->pParams_str->pwm_en_v_port, pHandle->pParams_str->pwm_en_v_pin );
 800542e:	6894      	ldr	r4, [r2, #8]
      LL_GPIO_SetOutputPin( pHandle->pParams_str->pwm_en_w_port, pHandle->pParams_str->pwm_en_w_pin );
 8005430:	9101      	str	r1, [sp, #4]
 8005432:	491d      	ldr	r1, [pc, #116]	; (80054a8 <R3_1_SwitchOnPWM+0xd8>)
      LL_GPIO_SetOutputPin( pHandle->pParams_str->pwm_en_v_port, pHandle->pParams_str->pwm_en_v_pin );
 8005434:	6955      	ldr	r5, [r2, #20]
 8005436:	4008      	ands	r0, r1
 8005438:	4288      	cmp	r0, r1
 800543a:	d12d      	bne.n	8005498 <R3_1_SwitchOnPWM+0xc8>
 800543c:	9901      	ldr	r1, [sp, #4]
 800543e:	9800      	ldr	r0, [sp, #0]
 8005440:	61b7      	str	r7, [r6, #24]
 8005442:	61a5      	str	r5, [r4, #24]
 8005444:	6181      	str	r1, [r0, #24]
  MODIFY_REG(ADCx->SMPR, ADC_SMPR_SMP, SamplingTime);
 8005446:	2407      	movs	r4, #7
  MODIFY_REG(((DMA_Channel_TypeDef *)((uint32_t)((uint32_t)DMAx + CHANNEL_OFFSET_TAB[Channel - 1U])))->CNDTR,
 8005448:	2502      	movs	r5, #2
  WRITE_REG(ADCx->ISR, LL_ADC_FLAG_EOC);
 800544a:	2604      	movs	r6, #4
  MODIFY_REG(ADCx->CFGR1, ADC_CFGR1_DMAEN | ADC_CFGR1_DMACFG, DMATransfer);
 800544c:	2703      	movs	r7, #3
  MODIFY_REG(ADCx->SMPR, ADC_SMPR_SMP, SamplingTime);
 800544e:	4817      	ldr	r0, [pc, #92]	; (80054ac <R3_1_SwitchOnPWM+0xdc>)

	  
    /* Configuration of DMA and ADC to next conversions */
    /* It's possible write the CHSELR resgister because the ADC conversion
       is stopped by the R3_1_SwitchOffPWM function */
    LL_ADC_SetSamplingTimeCommonChannels ( ADC1, pHandle->pParams_str->b_ISamplingTime );
 8005450:	326a      	adds	r2, #106	; 0x6a
 8005452:	6941      	ldr	r1, [r0, #20]
 8005454:	7812      	ldrb	r2, [r2, #0]
 8005456:	43a1      	bics	r1, r4
 8005458:	430a      	orrs	r2, r1
 800545a:	6142      	str	r2, [r0, #20]
  CLEAR_BIT(((DMA_Channel_TypeDef *)((uint32_t)((uint32_t)DMAx + CHANNEL_OFFSET_TAB[Channel - 1U])))->CCR, DMA_CCR_EN);
 800545c:	4a14      	ldr	r2, [pc, #80]	; (80054b0 <R3_1_SwitchOnPWM+0xe0>)
 800545e:	3c06      	subs	r4, #6
 8005460:	6811      	ldr	r1, [r2, #0]
 8005462:	43a1      	bics	r1, r4
 8005464:	6011      	str	r1, [r2, #0]
  MODIFY_REG(((DMA_Channel_TypeDef *)((uint32_t)((uint32_t)DMAx + CHANNEL_OFFSET_TAB[Channel - 1U])))->CNDTR,
 8005466:	6851      	ldr	r1, [r2, #4]
 8005468:	0c09      	lsrs	r1, r1, #16
 800546a:	0409      	lsls	r1, r1, #16
 800546c:	4329      	orrs	r1, r5
 800546e:	6051      	str	r1, [r2, #4]
  SET_BIT(((DMA_Channel_TypeDef *)((uint32_t)((uint32_t)DMAx + CHANNEL_OFFSET_TAB[Channel - 1U])))->CCR, DMA_CCR_EN);
 8005470:	6811      	ldr	r1, [r2, #0]
 8005472:	4321      	orrs	r1, r4
 8005474:	6011      	str	r1, [r2, #0]
  WRITE_REG(ADCx->ISR, LL_ADC_FLAG_EOC);
 8005476:	6006      	str	r6, [r0, #0]
  MODIFY_REG(ADCx->CFGR1, ADC_CFGR1_DMAEN | ADC_CFGR1_DMACFG, DMATransfer);
 8005478:	68c1      	ldr	r1, [r0, #12]
 800547a:	43b9      	bics	r1, r7
 800547c:	4321      	orrs	r1, r4
 800547e:	60c1      	str	r1, [r0, #12]
  * @param  DMAx DMAx Instance
  * @retval None
  */
__STATIC_INLINE void LL_DMA_ClearFlag_HT1(DMA_TypeDef *DMAx)
{
  WRITE_REG(DMAx->IFCR, DMA_IFCR_CHTIF1);
 8005480:	490c      	ldr	r1, [pc, #48]	; (80054b4 <R3_1_SwitchOnPWM+0xe4>)
 8005482:	604e      	str	r6, [r1, #4]
  *         @arg @ref LL_DMA_CHANNEL_7
  * @retval None
  */
__STATIC_INLINE void LL_DMA_EnableIT_TC(DMA_TypeDef *DMAx, uint32_t Channel)
{
  SET_BIT(((DMA_Channel_TypeDef *)((uint32_t)((uint32_t)DMAx + CHANNEL_OFFSET_TAB[Channel - 1U])))->CCR, DMA_CCR_TCIE);
 8005484:	6811      	ldr	r1, [r2, #0]
 8005486:	430d      	orrs	r5, r1
 8005488:	6015      	str	r5, [r2, #0]
  WRITE_REG(TIMx->SR, ~(TIM_SR_UIF));
 800548a:	2202      	movs	r2, #2
 800548c:	4252      	negs	r2, r2
 800548e:	611a      	str	r2, [r3, #16]
  SET_BIT(TIMx->DIER, TIM_DIER_UIE);
 8005490:	68da      	ldr	r2, [r3, #12]
 8005492:	4314      	orrs	r4, r2
 8005494:	60dc      	str	r4, [r3, #12]
    LL_TIM_ClearFlag_UPDATE( TIMx );
    /* Enable Update IRQ */
    LL_TIM_EnableIT_UPDATE( TIMx );
  
  return;
}
 8005496:	bdf7      	pop	{r0, r1, r2, r4, r5, r6, r7, pc}
  *         @arg @ref LL_GPIO_PIN_ALL
  * @retval None
  */
__STATIC_INLINE void LL_GPIO_ResetOutputPin(GPIO_TypeDef *GPIOx, uint32_t PinMask)
{
  WRITE_REG(GPIOx->BRR, PinMask);
 8005498:	9901      	ldr	r1, [sp, #4]
 800549a:	9800      	ldr	r0, [sp, #0]
 800549c:	62b7      	str	r7, [r6, #40]	; 0x28
 800549e:	62a5      	str	r5, [r4, #40]	; 0x28
 80054a0:	6281      	str	r1, [r0, #40]	; 0x28
}
 80054a2:	e7d0      	b.n	8005446 <R3_1_SwitchOnPWM+0x76>
 80054a4:	40012c00 	.word	0x40012c00
 80054a8:	00000555 	.word	0x00000555
 80054ac:	40012400 	.word	0x40012400
 80054b0:	40020008 	.word	0x40020008
 80054b4:	40020000 	.word	0x40020000

080054b8 <R3_1_SwitchOffPWM>:
  CLEAR_BIT(TIMx->DIER, TIM_DIER_UIE);
 80054b8:	2101      	movs	r1, #1
 80054ba:	4a21      	ldr	r2, [pc, #132]	; (8005540 <R3_1_SwitchOffPWM+0x88>)
  *         MOE bit and reset the TIM status
  * @param  pHdl: handler of the current instance of the PWM component
  * @retval none
  */
__weak void R3_1_SwitchOffPWM( PWMC_Handle_t * pHdl )
{
 80054bc:	b530      	push	{r4, r5, lr}
 80054be:	68d3      	ldr	r3, [r2, #12]
 80054c0:	438b      	bics	r3, r1
 80054c2:	60d3      	str	r3, [r2, #12]
  TIM_TypeDef * TIMx = TIM1;

  /* Enable Update IRQ */
  LL_TIM_DisableIT_UPDATE( TIMx );

  pHandle->_Super.TurnOnLowSidesAction = false;
 80054c4:	0003      	movs	r3, r0
 80054c6:	2100      	movs	r1, #0
 80054c8:	3342      	adds	r3, #66	; 0x42
 80054ca:	7019      	strb	r1, [r3, #0]
  CLEAR_BIT(TIMx->BDTR, TIM_BDTR_MOE);
 80054cc:	6c53      	ldr	r3, [r2, #68]	; 0x44
 80054ce:	491d      	ldr	r1, [pc, #116]	; (8005544 <R3_1_SwitchOffPWM+0x8c>)
 80054d0:	400b      	ands	r3, r1
 80054d2:	6453      	str	r3, [r2, #68]	; 0x44

  /* Main PWM Output Disable */
  LL_TIM_DisableAllOutputs(TIMx);
  if ( pHandle->BrakeActionLock == true )
 80054d4:	0003      	movs	r3, r0
 80054d6:	3376      	adds	r3, #118	; 0x76
 80054d8:	781b      	ldrb	r3, [r3, #0]
 80054da:	2b00      	cmp	r3, #0
 80054dc:	d10e      	bne.n	80054fc <R3_1_SwitchOffPWM+0x44>
  {
  }
  else
  {
    if ( ( pHandle->pParams_str->LowSideOutputs ) == ES_GPIO )
 80054de:	6f83      	ldr	r3, [r0, #120]	; 0x78
 80054e0:	0019      	movs	r1, r3
 80054e2:	3172      	adds	r1, #114	; 0x72
 80054e4:	7809      	ldrb	r1, [r1, #0]
 80054e6:	2902      	cmp	r1, #2
 80054e8:	d108      	bne.n	80054fc <R3_1_SwitchOffPWM+0x44>
    {
      LL_GPIO_ResetOutputPin( pHandle->pParams_str->pwm_en_u_port, pHandle->pParams_str->pwm_en_u_pin );
 80054ea:	6859      	ldr	r1, [r3, #4]
  WRITE_REG(GPIOx->BRR, PinMask);
 80054ec:	691c      	ldr	r4, [r3, #16]
 80054ee:	628c      	str	r4, [r1, #40]	; 0x28
      LL_GPIO_ResetOutputPin( pHandle->pParams_str->pwm_en_v_port, pHandle->pParams_str->pwm_en_v_pin );
 80054f0:	6899      	ldr	r1, [r3, #8]
 80054f2:	695c      	ldr	r4, [r3, #20]
 80054f4:	628c      	str	r4, [r1, #40]	; 0x28
      LL_GPIO_ResetOutputPin( pHandle->pParams_str->pwm_en_w_port, pHandle->pParams_str->pwm_en_w_pin );
 80054f6:	68d9      	ldr	r1, [r3, #12]
 80054f8:	699b      	ldr	r3, [r3, #24]
 80054fa:	628b      	str	r3, [r1, #40]	; 0x28
  *         @arg @ref LL_DMA_CHANNEL_7
  * @retval None
  */
__STATIC_INLINE void LL_DMA_DisableIT_TC(DMA_TypeDef *DMAx, uint32_t Channel)
{
  CLEAR_BIT(((DMA_Channel_TypeDef *)((uint32_t)((uint32_t)DMAx + CHANNEL_OFFSET_TAB[Channel - 1U])))->CCR, DMA_CCR_TCIE);
 80054fc:	2502      	movs	r5, #2
 80054fe:	4912      	ldr	r1, [pc, #72]	; (8005548 <R3_1_SwitchOffPWM+0x90>)
  MODIFY_REG(ADCx->CR,
 8005500:	4c12      	ldr	r4, [pc, #72]	; (800554c <R3_1_SwitchOffPWM+0x94>)
 8005502:	680b      	ldr	r3, [r1, #0]

  /* The ADC is not triggered anymore by the PWM timer */
  LL_ADC_REG_SetTriggerSource (ADC1, LL_ADC_REG_TRIG_SOFTWARE);
  
 /* We allow ADC usage for regular conversion on Systick*/
  pHandle->ADCRegularLocked=false; 
 8005504:	3077      	adds	r0, #119	; 0x77
 8005506:	43ab      	bics	r3, r5
 8005508:	600b      	str	r3, [r1, #0]
 800550a:	4b11      	ldr	r3, [pc, #68]	; (8005550 <R3_1_SwitchOffPWM+0x98>)
 800550c:	6899      	ldr	r1, [r3, #8]
 800550e:	400c      	ands	r4, r1
 8005510:	2110      	movs	r1, #16
 8005512:	4321      	orrs	r1, r4
  ADC1->CFGR1 &= ~ADC_CFGR1_DMAEN;
 8005514:	2401      	movs	r4, #1
 8005516:	6099      	str	r1, [r3, #8]
 8005518:	68d9      	ldr	r1, [r3, #12]
 800551a:	43a1      	bics	r1, r4
 800551c:	60d9      	str	r1, [r3, #12]
  WRITE_REG(DMAx->IFCR, DMA_IFCR_CTCIF1);
 800551e:	490d      	ldr	r1, [pc, #52]	; (8005554 <R3_1_SwitchOffPWM+0x9c>)
 8005520:	604d      	str	r5, [r1, #4]
  WRITE_REG(ADCx->ISR, LL_ADC_FLAG_EOC);
 8005522:	2104      	movs	r1, #4
 8005524:	6019      	str	r1, [r3, #0]
  MODIFY_REG(ADCx->CFGR1, ADC_CFGR1_EXTEN | ADC_CFGR1_EXTSEL, TriggerSource);
 8005526:	68d9      	ldr	r1, [r3, #12]
 8005528:	4d0b      	ldr	r5, [pc, #44]	; (8005558 <R3_1_SwitchOffPWM+0xa0>)
 800552a:	4029      	ands	r1, r5
 800552c:	60d9      	str	r1, [r3, #12]
  pHandle->ADCRegularLocked=false; 
 800552e:	2300      	movs	r3, #0
 8005530:	7003      	strb	r3, [r0, #0]
  WRITE_REG(TIMx->SR, ~(TIM_SR_UIF));
 8005532:	3b02      	subs	r3, #2
 8005534:	6113      	str	r3, [r2, #16]
  return ((READ_BIT(TIMx->SR, TIM_SR_UIF) == (TIM_SR_UIF)) ? 1UL : 0UL);
 8005536:	6911      	ldr	r1, [r2, #16]

  /* Wait for a new PWM period */
  LL_TIM_ClearFlag_UPDATE( TIMx );
  while ( LL_TIM_IsActiveFlag_UPDATE( TIMx ) == RESET )
 8005538:	4221      	tst	r1, r4
 800553a:	d0fc      	beq.n	8005536 <R3_1_SwitchOffPWM+0x7e>
  WRITE_REG(TIMx->SR, ~(TIM_SR_UIF));
 800553c:	6113      	str	r3, [r2, #16]
  {}
  /* Clear Update Flag */
  LL_TIM_ClearFlag_UPDATE( TIMx );

  return;
}
 800553e:	bd30      	pop	{r4, r5, pc}
 8005540:	40012c00 	.word	0x40012c00
 8005544:	ffff7fff 	.word	0xffff7fff
 8005548:	40020008 	.word	0x40020008
 800554c:	7fffffe8 	.word	0x7fffffe8
 8005550:	40012400 	.word	0x40012400
 8005554:	40020000 	.word	0x40020000
 8005558:	fffff23f 	.word	0xfffff23f

0800555c <R3_1_CurrentReadingCalibration>:
{
 800555c:	b5f0      	push	{r4, r5, r6, r7, lr}
  pHandle->PolarizationCounter = 0u;
 800555e:	0007      	movs	r7, r0
  pHandle-> PhaseAOffset = 0u;
 8005560:	2600      	movs	r6, #0
  CLEAR_BIT(TIMx->CCER, Channels);
 8005562:	4d39      	ldr	r5, [pc, #228]	; (8005648 <R3_1_CurrentReadingCalibration+0xec>)
  pHandle->PolarizationCounter = 0u;
 8005564:	3772      	adds	r7, #114	; 0x72
  pHandle-> PhaseAOffset = 0u;
 8005566:	65c6      	str	r6, [r0, #92]	; 0x5c
  pHandle-> PhaseBOffset = 0u;
 8005568:	6606      	str	r6, [r0, #96]	; 0x60
  pHandle-> PhaseCOffset = 0u;
 800556a:	6646      	str	r6, [r0, #100]	; 0x64
  pHandle->PolarizationCounter = 0u;
 800556c:	703e      	strb	r6, [r7, #0]
 800556e:	6a2b      	ldr	r3, [r5, #32]
 8005570:	4a36      	ldr	r2, [pc, #216]	; (800564c <R3_1_CurrentReadingCalibration+0xf0>)
{
 8005572:	b085      	sub	sp, #20
 8005574:	4013      	ands	r3, r2
 8005576:	622b      	str	r3, [r5, #32]
  pHandle->_Super.pFctGetPhaseCurrents     = &R3_1_HFCurrentsCalibrationAB;
 8005578:	4b35      	ldr	r3, [pc, #212]	; (8005650 <R3_1_CurrentReadingCalibration+0xf4>)
{
 800557a:	0004      	movs	r4, r0
  pHandle->_Super.pFctGetPhaseCurrents     = &R3_1_HFCurrentsCalibrationAB;
 800557c:	6043      	str	r3, [r0, #4]
  pHandle->_Super.pFctSetADCSampPointSectX = &R3_1_SetADCSampPointCalibration;
 800557e:	4b35      	ldr	r3, [pc, #212]	; (8005654 <R3_1_CurrentReadingCalibration+0xf8>)
 8005580:	6183      	str	r3, [r0, #24]
  pHandle->CalibSector = SECTOR_5;
 8005582:	0003      	movs	r3, r0
 8005584:	3373      	adds	r3, #115	; 0x73
 8005586:	001a      	movs	r2, r3
 8005588:	9303      	str	r3, [sp, #12]
 800558a:	2304      	movs	r3, #4
 800558c:	7013      	strb	r3, [r2, #0]
  pHandle->_Super.Sector = SECTOR_5;
 800558e:	3a39      	subs	r2, #57	; 0x39
 8005590:	7013      	strb	r3, [r2, #0]
 8005592:	9201      	str	r2, [sp, #4]
  R3_1_SwitchOnPWM( &pHandle->_Super );
 8005594:	f7ff ff1c 	bl	80053d0 <R3_1_SwitchOnPWM>
  waitForPolarizationEnd( TIMx,
 8005598:	0022      	movs	r2, r4
 800559a:	3238      	adds	r2, #56	; 0x38
 800559c:	9202      	str	r2, [sp, #8]
 800559e:	6fa2      	ldr	r2, [r4, #120]	; 0x78
 80055a0:	9902      	ldr	r1, [sp, #8]
 80055a2:	326b      	adds	r2, #107	; 0x6b
 80055a4:	003b      	movs	r3, r7
 80055a6:	0028      	movs	r0, r5
 80055a8:	7812      	ldrb	r2, [r2, #0]
 80055aa:	f7ff fbfc 	bl	8004da6 <waitForPolarizationEnd>
  R3_1_SwitchOffPWM( &pHandle->_Super );
 80055ae:	0020      	movs	r0, r4
 80055b0:	f7ff ff82 	bl	80054b8 <R3_1_SwitchOffPWM>
  pHandle->CalibSector = SECTOR_1;
 80055b4:	9a03      	ldr	r2, [sp, #12]
  pHandle->_Super.pFctGetPhaseCurrents = &R3_1_HFCurrentsCalibrationC;
 80055b6:	4b28      	ldr	r3, [pc, #160]	; (8005658 <R3_1_CurrentReadingCalibration+0xfc>)
  R3_1_SwitchOnPWM( &pHandle->_Super );
 80055b8:	0020      	movs	r0, r4
  pHandle->_Super.pFctGetPhaseCurrents = &R3_1_HFCurrentsCalibrationC;
 80055ba:	6063      	str	r3, [r4, #4]
  pHandle->CalibSector = SECTOR_1;
 80055bc:	7016      	strb	r6, [r2, #0]
  pHandle->_Super.Sector = SECTOR_1;
 80055be:	9a01      	ldr	r2, [sp, #4]
 80055c0:	7016      	strb	r6, [r2, #0]
  pHandle->PolarizationCounter = 0;
 80055c2:	703e      	strb	r6, [r7, #0]
  R3_1_SwitchOnPWM( &pHandle->_Super );
 80055c4:	f7ff ff04 	bl	80053d0 <R3_1_SwitchOnPWM>
  waitForPolarizationEnd( TIMx,
 80055c8:	6fa2      	ldr	r2, [r4, #120]	; 0x78
 80055ca:	003b      	movs	r3, r7
 80055cc:	326b      	adds	r2, #107	; 0x6b
 80055ce:	9902      	ldr	r1, [sp, #8]
 80055d0:	0028      	movs	r0, r5
 80055d2:	7812      	ldrb	r2, [r2, #0]
 80055d4:	f7ff fbe7 	bl	8004da6 <waitForPolarizationEnd>
  R3_1_SwitchOffPWM( &pHandle->_Super );
 80055d8:	0020      	movs	r0, r4
 80055da:	f7ff ff6d 	bl	80054b8 <R3_1_SwitchOffPWM>
  pHandle->_Super.Sector = SECTOR_5;
 80055de:	2304      	movs	r3, #4
 80055e0:	9a01      	ldr	r2, [sp, #4]
  CLEAR_BIT(*pReg, (TIM_CCMR1_OC1PE << SHIFT_TAB_OCxx[iChannel]));
 80055e2:	491e      	ldr	r1, [pc, #120]	; (800565c <R3_1_CurrentReadingCalibration+0x100>)
  pHandle->_Super.Sector = SECTOR_5;
 80055e4:	7013      	strb	r3, [r2, #0]
  pHandle->PhaseAOffset = pHandle->PhaseAOffset / NB_CONVERSIONS;
 80055e6:	6de3      	ldr	r3, [r4, #92]	; 0x5c
 80055e8:	091b      	lsrs	r3, r3, #4
 80055ea:	65e3      	str	r3, [r4, #92]	; 0x5c
  pHandle->PhaseBOffset = pHandle->PhaseBOffset / NB_CONVERSIONS;
 80055ec:	6e23      	ldr	r3, [r4, #96]	; 0x60
 80055ee:	091b      	lsrs	r3, r3, #4
 80055f0:	6623      	str	r3, [r4, #96]	; 0x60
  pHandle->PhaseCOffset = pHandle->PhaseCOffset / NB_CONVERSIONS;
 80055f2:	6e63      	ldr	r3, [r4, #100]	; 0x64
 80055f4:	091b      	lsrs	r3, r3, #4
 80055f6:	6663      	str	r3, [r4, #100]	; 0x64
  pHandle->_Super.pFctGetPhaseCurrents     = &R3_1_GetPhaseCurrents;
 80055f8:	4b19      	ldr	r3, [pc, #100]	; (8005660 <R3_1_CurrentReadingCalibration+0x104>)
 80055fa:	6063      	str	r3, [r4, #4]
  pHandle->_Super.pFctSetADCSampPointSectX = &R3_1_SetADCSampPointSectX;
 80055fc:	4b19      	ldr	r3, [pc, #100]	; (8005664 <R3_1_CurrentReadingCalibration+0x108>)
 80055fe:	61a3      	str	r3, [r4, #24]
  CLEAR_BIT(*pReg, (TIM_CCMR1_OC1PE << SHIFT_TAB_OCxx[iChannel]));
 8005600:	4b19      	ldr	r3, [pc, #100]	; (8005668 <R3_1_CurrentReadingCalibration+0x10c>)
 8005602:	681a      	ldr	r2, [r3, #0]
 8005604:	400a      	ands	r2, r1
 8005606:	601a      	str	r2, [r3, #0]
 8005608:	681a      	ldr	r2, [r3, #0]
 800560a:	400a      	ands	r2, r1
 800560c:	601a      	str	r2, [r3, #0]
 800560e:	681a      	ldr	r2, [r3, #0]
 8005610:	400a      	ands	r2, r1
 8005612:	601a      	str	r2, [r3, #0]
  LL_TIM_OC_SetCompareCH1( TIMx, pHandle->Half_PWMPeriod );
 8005614:	0022      	movs	r2, r4
 8005616:	326c      	adds	r2, #108	; 0x6c
 8005618:	8812      	ldrh	r2, [r2, #0]
  pHandle->BrakeActionLock = false;
 800561a:	3476      	adds	r4, #118	; 0x76
  WRITE_REG(TIMx->CCR1, CompareValue);
 800561c:	636a      	str	r2, [r5, #52]	; 0x34
  WRITE_REG(TIMx->CCR2, CompareValue);
 800561e:	63aa      	str	r2, [r5, #56]	; 0x38
  WRITE_REG(TIMx->CCR3, CompareValue);
 8005620:	63ea      	str	r2, [r5, #60]	; 0x3c
  SET_BIT(*pReg, (TIM_CCMR1_OC1PE << SHIFT_TAB_OCxx[iChannel]));
 8005622:	2208      	movs	r2, #8
 8005624:	69a9      	ldr	r1, [r5, #24]
 8005626:	4311      	orrs	r1, r2
 8005628:	61a9      	str	r1, [r5, #24]
 800562a:	2180      	movs	r1, #128	; 0x80
 800562c:	69a8      	ldr	r0, [r5, #24]
 800562e:	0109      	lsls	r1, r1, #4
 8005630:	4301      	orrs	r1, r0
 8005632:	61a9      	str	r1, [r5, #24]
 8005634:	6819      	ldr	r1, [r3, #0]
 8005636:	430a      	orrs	r2, r1
 8005638:	601a      	str	r2, [r3, #0]
  SET_BIT(TIMx->CCER, Channels);
 800563a:	6a2a      	ldr	r2, [r5, #32]
 800563c:	4b0b      	ldr	r3, [pc, #44]	; (800566c <R3_1_CurrentReadingCalibration+0x110>)
 800563e:	4313      	orrs	r3, r2
 8005640:	622b      	str	r3, [r5, #32]
  pHandle->BrakeActionLock = false;
 8005642:	7026      	strb	r6, [r4, #0]
}
 8005644:	b005      	add	sp, #20
 8005646:	bdf0      	pop	{r4, r5, r6, r7, pc}
 8005648:	40012c00 	.word	0x40012c00
 800564c:	fffffaaa 	.word	0xfffffaaa
 8005650:	08005145 	.word	0x08005145
 8005654:	0800530b 	.word	0x0800530b
 8005658:	08005191 	.word	0x08005191
 800565c:	fffff7ff 	.word	0xfffff7ff
 8005660:	0800503d 	.word	0x0800503d
 8005664:	0800532b 	.word	0x0800532b
 8005668:	40012c1c 	.word	0x40012c1c
 800566c:	00000555 	.word	0x00000555

08005670 <R3_1_TIMx_UP_IRQHandler>:
  * @brief  It contains the TIMx Update event interrupt
  * @param  pHandle: handler of the current instance of the PWM component
  * @retval none
  */
void * R3_1_TIMx_UP_IRQHandler( PWMC_R3_1_Handle_t * pHandle )
{
 8005670:	b5f0      	push	{r4, r5, r6, r7, lr}
 8005672:	2580      	movs	r5, #128	; 0x80
  MODIFY_REG(ADCx->CFGR1, ADC_CFGR1_EXTEN, ExternalTriggerEdge);
 8005674:	4b19      	ldr	r3, [pc, #100]	; (80056dc <R3_1_TIMx_UP_IRQHandler+0x6c>)
  
  /* Set the trigger polarity as computed inside SetADCSampPointSectX*/
  LL_ADC_REG_SetTriggerEdge (ADC1, pHandle->ADCTriggerEdge);
 8005676:	6e81      	ldr	r1, [r0, #104]	; 0x68
 8005678:	4c19      	ldr	r4, [pc, #100]	; (80056e0 <R3_1_TIMx_UP_IRQHandler+0x70>)
 800567a:	68da      	ldr	r2, [r3, #12]
  MODIFY_REG(ADCx->CFGR1, ADC_CFGR1_EXTEN | ADC_CFGR1_EXTSEL, TriggerSource);
 800567c:	00ed      	lsls	r5, r5, #3
  MODIFY_REG(ADCx->CFGR1, ADC_CFGR1_EXTEN, ExternalTriggerEdge);
 800567e:	4022      	ands	r2, r4
 8005680:	430a      	orrs	r2, r1
 8005682:	60da      	str	r2, [r3, #12]
  MODIFY_REG(ADCx->CFGR1, ADC_CFGR1_EXTEN | ADC_CFGR1_EXTSEL, TriggerSource);
 8005684:	68da      	ldr	r2, [r3, #12]
 8005686:	4917      	ldr	r1, [pc, #92]	; (80056e4 <R3_1_TIMx_UP_IRQHandler+0x74>)
 8005688:	400a      	ands	r2, r1
 800568a:	432a      	orrs	r2, r5
 800568c:	60da      	str	r2, [r3, #12]
  /* set ADC trigger source */
  LL_ADC_REG_SetTriggerSource(ADC1, LL_ADC_REG_TRIG_EXT_TIM1_TRGO);
  /* Set scan direction according to the sector */  
  LL_ADC_REG_SetSequencerScanDirection(ADC1, pHandle->pParams_str->ADCScandir[pHandle->_Super.Sector]<<ADC_CFGR1_SCANDIR_Pos);
 800568e:	0002      	movs	r2, r0
 8005690:	323a      	adds	r2, #58	; 0x3a
 8005692:	6f81      	ldr	r1, [r0, #120]	; 0x78
 8005694:	7812      	ldrb	r2, [r2, #0]
  MODIFY_REG(ADCx->CFGR1, ADC_CFGR1_SCANDIR, ScanDirection);
 8005696:	68df      	ldr	r7, [r3, #12]
 8005698:	188c      	adds	r4, r1, r2
 800569a:	346c      	adds	r4, #108	; 0x6c
 800569c:	7826      	ldrb	r6, [r4, #0]
 800569e:	2404      	movs	r4, #4
 80056a0:	00b6      	lsls	r6, r6, #2
 80056a2:	43a7      	bics	r7, r4
  /* Configure the ADC scheduler as selected inside SetADCSampPointSectX*/
  ADC1->CHSELR = pHandle->pParams_str->ADCConfig[pHandle->_Super.Sector];
 80056a4:	3206      	adds	r2, #6
 80056a6:	433e      	orrs	r6, r7
 80056a8:	0092      	lsls	r2, r2, #2
 80056aa:	60de      	str	r6, [r3, #12]
 80056ac:	188a      	adds	r2, r1, r2
 80056ae:	6852      	ldr	r2, [r2, #4]
  /* ReConfigure sampling time, as deconfigured by reg_conv_manager */
  LL_ADC_SetSamplingTimeCommonChannels ( ADC1, pHandle->pParams_str->b_ISamplingTime );
 80056b0:	316a      	adds	r1, #106	; 0x6a
  ADC1->CHSELR = pHandle->pParams_str->ADCConfig[pHandle->_Super.Sector];
 80056b2:	629a      	str	r2, [r3, #40]	; 0x28
  LL_ADC_SetSamplingTimeCommonChannels ( ADC1, pHandle->pParams_str->b_ISamplingTime );
 80056b4:	780a      	ldrb	r2, [r1, #0]
  MODIFY_REG(ADCx->SMPR, ADC_SMPR_SMP, SamplingTime);
 80056b6:	2107      	movs	r1, #7
 80056b8:	695e      	ldr	r6, [r3, #20]
 80056ba:	438e      	bics	r6, r1
 80056bc:	4332      	orrs	r2, r6
  MODIFY_REG(TIMx->CR2, TIM_CR2_MMS, TimerSynchronization);
 80056be:	2670      	movs	r6, #112	; 0x70
 80056c0:	4909      	ldr	r1, [pc, #36]	; (80056e8 <R3_1_TIMx_UP_IRQHandler+0x78>)
 80056c2:	615a      	str	r2, [r3, #20]
 80056c4:	684a      	ldr	r2, [r1, #4]
 80056c6:	4332      	orrs	r2, r6
 80056c8:	604a      	str	r2, [r1, #4]
  MODIFY_REG(ADCx->CR,
 80056ca:	689a      	ldr	r2, [r3, #8]
 80056cc:	4907      	ldr	r1, [pc, #28]	; (80056ec <R3_1_TIMx_UP_IRQHandler+0x7c>)
 80056ce:	400a      	ands	r2, r1
 80056d0:	4314      	orrs	r4, r2
 80056d2:	609c      	str	r4, [r3, #8]
  LL_TIM_SetTriggerOutput(TIM1, LL_TIM_TRGO_OC4REF);
  /* ADC needs to be restarted because DMA is configured as limited */
  LL_ADC_REG_StartConversion( ADC1 );

  /* Reset the ADC trigger edge for next conversion */
  pHandle->ADCTriggerEdge = LL_ADC_REG_TRIG_EXT_RISING;
 80056d4:	6685      	str	r5, [r0, #104]	; 0x68

  return &pHandle->_Super.Motor;
 80056d6:	3046      	adds	r0, #70	; 0x46
}
 80056d8:	bdf0      	pop	{r4, r5, r6, r7, pc}
 80056da:	46c0      	nop			; (mov r8, r8)
 80056dc:	40012400 	.word	0x40012400
 80056e0:	fffff3ff 	.word	0xfffff3ff
 80056e4:	fffff23f 	.word	0xfffff23f
 80056e8:	40012c00 	.word	0x40012c00
 80056ec:	7fffffe8 	.word	0x7fffffe8

080056f0 <F0XX_BRK_IRQHandler>:
 * @param  pHandle: handler of the current instance of the PWM component
 * @retval none
 */
__weak void * F0XX_BRK_IRQHandler( PWMC_R3_1_Handle_t * pHandle )
{
  if ( ( pHandle->pParams_str->LowSideOutputs ) == ES_GPIO )
 80056f0:	6f83      	ldr	r3, [r0, #120]	; 0x78
 80056f2:	001a      	movs	r2, r3
 80056f4:	3272      	adds	r2, #114	; 0x72
 80056f6:	7812      	ldrb	r2, [r2, #0]
 80056f8:	2a02      	cmp	r2, #2
 80056fa:	d108      	bne.n	800570e <F0XX_BRK_IRQHandler+0x1e>
  {
    LL_GPIO_ResetOutputPin( pHandle->pParams_str->pwm_en_u_port, pHandle->pParams_str->pwm_en_u_pin );
 80056fc:	685a      	ldr	r2, [r3, #4]
 80056fe:	6919      	ldr	r1, [r3, #16]
 8005700:	6291      	str	r1, [r2, #40]	; 0x28
    LL_GPIO_ResetOutputPin( pHandle->pParams_str->pwm_en_v_port, pHandle->pParams_str->pwm_en_v_pin );
 8005702:	689a      	ldr	r2, [r3, #8]
 8005704:	6959      	ldr	r1, [r3, #20]
 8005706:	6291      	str	r1, [r2, #40]	; 0x28
    LL_GPIO_ResetOutputPin( pHandle->pParams_str->pwm_en_w_port, pHandle->pParams_str->pwm_en_w_pin );
 8005708:	68da      	ldr	r2, [r3, #12]
 800570a:	699b      	ldr	r3, [r3, #24]
 800570c:	6293      	str	r3, [r2, #40]	; 0x28
  }
  pHandle->OverCurrentFlag = true;
 800570e:	2301      	movs	r3, #1
 8005710:	3074      	adds	r0, #116	; 0x74
 8005712:	7003      	strb	r3, [r0, #0]

  return MC_NULL;
}
 8005714:	2000      	movs	r0, #0
 8005716:	4770      	bx	lr

08005718 <R3_1_IsOverCurrentOccurred>:
#pragma cstat_restore = "MISRAC2012-Rule-11.3"
#endif
  uint16_t retVal = MC_NO_FAULTS;


  if ( pHandle->OverVoltageFlag == true )
 8005718:	0002      	movs	r2, r0
{
 800571a:	0003      	movs	r3, r0
 800571c:	2000      	movs	r0, #0
  if ( pHandle->OverVoltageFlag == true )
 800571e:	3275      	adds	r2, #117	; 0x75
 8005720:	7811      	ldrb	r1, [r2, #0]
 8005722:	4281      	cmp	r1, r0
 8005724:	d001      	beq.n	800572a <R3_1_IsOverCurrentOccurred+0x12>
  {
    retVal = MC_OVER_VOLT;
    pHandle->OverVoltageFlag = false;
 8005726:	7010      	strb	r0, [r2, #0]
    retVal = MC_OVER_VOLT;
 8005728:	3002      	adds	r0, #2
  }

  if ( pHandle->OverCurrentFlag == true )
 800572a:	3374      	adds	r3, #116	; 0x74
 800572c:	781a      	ldrb	r2, [r3, #0]
 800572e:	2a00      	cmp	r2, #0
 8005730:	d003      	beq.n	800573a <R3_1_IsOverCurrentOccurred+0x22>
  {
    retVal |= MC_BREAK_IN;
 8005732:	2240      	movs	r2, #64	; 0x40
 8005734:	4310      	orrs	r0, r2
    pHandle->OverCurrentFlag = false;
 8005736:	2200      	movs	r2, #0
 8005738:	701a      	strb	r2, [r3, #0]
  }
  return retVal;
}
 800573a:	4770      	bx	lr

0800573c <RVBS_Clear>:
  *         value
  * @param  pHandle related RDivider_Handle_t
  * @retval none
  */
__weak void RVBS_Clear( RDivider_Handle_t * pHandle )
{
 800573c:	b510      	push	{r4, lr}
  uint16_t aux;
  uint16_t index;

  aux = ( pHandle->OverVoltageThreshold + pHandle->UnderVoltageThreshold ) / 2u;
 800573e:	8b82      	ldrh	r2, [r0, #28]
 8005740:	8b43      	ldrh	r3, [r0, #26]
 8005742:	189b      	adds	r3, r3, r2
  for ( index = 0u; index < pHandle->LowPassFilterBW; index++ )
 8005744:	2200      	movs	r2, #0
  aux = ( pHandle->OverVoltageThreshold + pHandle->UnderVoltageThreshold ) / 2u;
 8005746:	085b      	lsrs	r3, r3, #1
  for ( index = 0u; index < pHandle->LowPassFilterBW; index++ )
 8005748:	8b01      	ldrh	r1, [r0, #24]
 800574a:	4291      	cmp	r1, r2
 800574c:	d805      	bhi.n	800575a <RVBS_Clear+0x1e>
  {
    pHandle->aBuffer[index] = aux;
  }
  pHandle->_Super.LatestConv = aux;
  pHandle->_Super.AvBusVoltage_d = aux;
 800574e:	80c3      	strh	r3, [r0, #6]
  pHandle->_Super.LatestConv = aux;
 8005750:	8083      	strh	r3, [r0, #4]
  pHandle->index = 0;
 8005752:	2300      	movs	r3, #0
 8005754:	3006      	adds	r0, #6
 8005756:	77c3      	strb	r3, [r0, #31]
}
 8005758:	bd10      	pop	{r4, pc}
    pHandle->aBuffer[index] = aux;
 800575a:	6a04      	ldr	r4, [r0, #32]
 800575c:	0051      	lsls	r1, r2, #1
  for ( index = 0u; index < pHandle->LowPassFilterBW; index++ )
 800575e:	3201      	adds	r2, #1
    pHandle->aBuffer[index] = aux;
 8005760:	530b      	strh	r3, [r1, r4]
  for ( index = 0u; index < pHandle->LowPassFilterBW; index++ )
 8005762:	b292      	uxth	r2, r2
 8005764:	e7f0      	b.n	8005748 <RVBS_Clear+0xc>

08005766 <RVBS_Init>:
{
 8005766:	b510      	push	{r4, lr}
 8005768:	0004      	movs	r4, r0
  pHandle->convHandle = RCM_RegisterRegConv(&pHandle->VbusRegConv);
 800576a:	300c      	adds	r0, #12
 800576c:	f7fc fa30 	bl	8001bd0 <RCM_RegisterRegConv>
 8005770:	1de3      	adds	r3, r4, #7
 8005772:	77d8      	strb	r0, [r3, #31]
  RVBS_Clear( pHandle );
 8005774:	0020      	movs	r0, r4
 8005776:	f7ff ffe1 	bl	800573c <RVBS_Clear>
}
 800577a:	bd10      	pop	{r4, pc}

0800577c <RVBS_CheckFaultState>:
  */
__weak uint16_t RVBS_CheckFaultState( RDivider_Handle_t * pHandle )
{
  uint16_t fault;

  if ( pHandle->_Super.AvBusVoltage_d > pHandle->OverVoltageThreshold )
 800577c:	88c3      	ldrh	r3, [r0, #6]
 800577e:	8b41      	ldrh	r1, [r0, #26]
{
 8005780:	0002      	movs	r2, r0
  {
    fault = MC_OVER_VOLT;
 8005782:	2002      	movs	r0, #2
  if ( pHandle->_Super.AvBusVoltage_d > pHandle->OverVoltageThreshold )
 8005784:	4299      	cmp	r1, r3
 8005786:	d304      	bcc.n	8005792 <RVBS_CheckFaultState+0x16>
  }
  else if ( pHandle->_Super.AvBusVoltage_d < pHandle->UnderVoltageThreshold )
 8005788:	8b90      	ldrh	r0, [r2, #28]
  {
    fault = MC_UNDER_VOLT;
  }
  else
  {
    fault = MC_NO_ERROR;
 800578a:	4283      	cmp	r3, r0
 800578c:	4180      	sbcs	r0, r0
 800578e:	4240      	negs	r0, r0
 8005790:	0080      	lsls	r0, r0, #2
  }
  return fault;
}
 8005792:	4770      	bx	lr

08005794 <RVBS_CalcAvVbus>:
{
 8005794:	b5f7      	push	{r0, r1, r2, r4, r5, r6, r7, lr}
  hAux = RCM_ExecRegularConv(pHandle->convHandle);
 8005796:	1dc3      	adds	r3, r0, #7
{
 8005798:	0004      	movs	r4, r0
  hAux = RCM_ExecRegularConv(pHandle->convHandle);
 800579a:	7fd8      	ldrb	r0, [r3, #31]
 800579c:	f7fc fa60 	bl	8001c60 <RCM_ExecRegularConv>
  if ( hAux != 0xFFFF )
 80057a0:	4b14      	ldr	r3, [pc, #80]	; (80057f4 <RVBS_CalcAvVbus+0x60>)
  hAux = RCM_ExecRegularConv(pHandle->convHandle);
 80057a2:	0007      	movs	r7, r0
  if ( hAux != 0xFFFF )
 80057a4:	4298      	cmp	r0, r3
 80057a6:	d015      	beq.n	80057d4 <RVBS_CalcAvVbus+0x40>
    pHandle->aBuffer[pHandle->index] = hAux;
 80057a8:	1da3      	adds	r3, r4, #6
 80057aa:	9301      	str	r3, [sp, #4]
 80057ac:	7fdd      	ldrb	r5, [r3, #31]
 80057ae:	6a22      	ldr	r2, [r4, #32]
 80057b0:	006b      	lsls	r3, r5, #1
 80057b2:	5298      	strh	r0, [r3, r2]
    for ( i = 0; i < pHandle->LowPassFilterBW; i++ )
 80057b4:	2300      	movs	r3, #0
    wtemp = 0;
 80057b6:	0018      	movs	r0, r3
    for ( i = 0; i < pHandle->LowPassFilterBW; i++ )
 80057b8:	8b26      	ldrh	r6, [r4, #24]
 80057ba:	42b3      	cmp	r3, r6
 80057bc:	d30f      	bcc.n	80057de <RVBS_CalcAvVbus+0x4a>
    wtemp /= pHandle->LowPassFilterBW;
 80057be:	0031      	movs	r1, r6
 80057c0:	f7fa fcca 	bl	8000158 <__udivsi3>
    if ( pHandle->index < pHandle->LowPassFilterBW - 1 )
 80057c4:	3e01      	subs	r6, #1
    pHandle->_Super.AvBusVoltage_d = ( uint16_t )wtemp;
 80057c6:	80e0      	strh	r0, [r4, #6]
    pHandle->_Super.LatestConv = hAux;
 80057c8:	80a7      	strh	r7, [r4, #4]
    if ( pHandle->index < pHandle->LowPassFilterBW - 1 )
 80057ca:	42b5      	cmp	r5, r6
 80057cc:	da0d      	bge.n	80057ea <RVBS_CalcAvVbus+0x56>
      pHandle->index++;
 80057ce:	9b01      	ldr	r3, [sp, #4]
 80057d0:	3501      	adds	r5, #1
 80057d2:	77dd      	strb	r5, [r3, #31]
  pHandle->_Super.FaultState = RVBS_CheckFaultState( pHandle );
 80057d4:	0020      	movs	r0, r4
 80057d6:	f7ff ffd1 	bl	800577c <RVBS_CheckFaultState>
 80057da:	8120      	strh	r0, [r4, #8]
}
 80057dc:	bdfe      	pop	{r1, r2, r3, r4, r5, r6, r7, pc}
      wtemp += pHandle->aBuffer[i];
 80057de:	0059      	lsls	r1, r3, #1
 80057e0:	5a89      	ldrh	r1, [r1, r2]
    for ( i = 0; i < pHandle->LowPassFilterBW; i++ )
 80057e2:	3301      	adds	r3, #1
      wtemp += pHandle->aBuffer[i];
 80057e4:	1840      	adds	r0, r0, r1
    for ( i = 0; i < pHandle->LowPassFilterBW; i++ )
 80057e6:	b2db      	uxtb	r3, r3
 80057e8:	e7e7      	b.n	80057ba <RVBS_CalcAvVbus+0x26>
      pHandle->index = 0;
 80057ea:	2300      	movs	r3, #0
 80057ec:	9a01      	ldr	r2, [sp, #4]
 80057ee:	77d3      	strb	r3, [r2, #31]
 80057f0:	e7f0      	b.n	80057d4 <RVBS_CalcAvVbus+0x40>
 80057f2:	46c0      	nop			; (mov r8, r8)
 80057f4:	0000ffff 	.word	0x0000ffff

080057f8 <REMNG_Init>:
  * @param  pHandle related Handle of struct RampMngr_Handle_t
  * @retval none.
  */
void REMNG_Init( RampExtMngr_Handle_t * pHandle )
{
  pHandle->Ext = 0;
 80057f8:	2300      	movs	r3, #0
{
 80057fa:	b510      	push	{r4, lr}
  pHandle->Ext = 0;
 80057fc:	6083      	str	r3, [r0, #8]
  pHandle->TargetFinal = 0;
 80057fe:	6043      	str	r3, [r0, #4]
  pHandle->RampRemainingStep = 0u;
 8005800:	60c3      	str	r3, [r0, #12]
  pHandle->IncDecAmount = 0;
 8005802:	6103      	str	r3, [r0, #16]
  pHandle->ScalingFactor = 1u;
 8005804:	3301      	adds	r3, #1
 8005806:	6143      	str	r3, [r0, #20]

#ifdef FASTDIV
  FD_Init( & ( pHandle->fd ) );
 8005808:	3018      	adds	r0, #24
 800580a:	f000 fab9 	bl	8005d80 <FD_Init>
#endif

}
 800580e:	bd10      	pop	{r4, pc}

08005810 <SPD_GetElAngle>:
  * @param  pHandle: handler of the current instance of the SpeednPosFdbk component
  * @retval int16_t rotor electrical angle (s16degrees)
  */
__weak int16_t SPD_GetElAngle( SpeednPosFdbk_Handle_t * pHandle )
{
  return ( pHandle->hElAngle );
 8005810:	2304      	movs	r3, #4
 8005812:	5ec0      	ldrsh	r0, [r0, r3]
}
 8005814:	4770      	bx	lr

08005816 <SPD_GetAvrgMecSpeedUnit>:
  *         the unit defined by #SPEED_UNIT.
  * @param  pHandle: handler of the current instance of the SpeednPosFdbk component
  */
__weak int16_t SPD_GetAvrgMecSpeedUnit( SpeednPosFdbk_Handle_t * pHandle )
{
  return ( pHandle->hAvrMecSpeedUnit );
 8005816:	230c      	movs	r3, #12
 8005818:	5ec0      	ldrsh	r0, [r0, r3]
}
 800581a:	4770      	bx	lr

0800581c <SPD_GetInstElSpeedDpp>:
  * @param  pHandle: handler of the current instance of the SpeednPosFdbk component
  * @retval int16_t rotor instantaneous electrical speed (Dpp)
  */
__weak int16_t SPD_GetInstElSpeedDpp( SpeednPosFdbk_Handle_t * pHandle )
{
  return ( pHandle->InstantaneousElSpeedDpp );
 800581c:	2310      	movs	r3, #16
 800581e:	5ec0      	ldrsh	r0, [r0, r3]
}
 8005820:	4770      	bx	lr

08005822 <SPD_IsMecSpeedReliable>:
  * @param  pMecSpeedUnit pointer to int16_t, used to return the rotor average
  *         mechanical speed (expressed in the unit defined by #SPEED_UNIT)
  * @retval none
  */
__weak bool SPD_IsMecSpeedReliable( SpeednPosFdbk_Handle_t * pHandle, int16_t * pMecSpeedUnit )
{
 8005822:	b570      	push	{r4, r5, r6, lr}
  int16_t hAux;

  bSpeedErrorNumber = pHandle->bSpeedErrorNumber;

  /* Compute absoulte value of mechanical speed */
  if ( *pMecSpeedUnit < 0 )
 8005824:	2200      	movs	r2, #0
 8005826:	5e89      	ldrsh	r1, [r1, r2]
  uint8_t bMaximumSpeedErrorsNumber = pHandle->bMaximumSpeedErrorsNumber;
 8005828:	78c4      	ldrb	r4, [r0, #3]
  bSpeedErrorNumber = pHandle->bSpeedErrorNumber;
 800582a:	7803      	ldrb	r3, [r0, #0]
  {
    hAux = -( *pMecSpeedUnit );
 800582c:	b28a      	uxth	r2, r1
  if ( *pMecSpeedUnit < 0 )
 800582e:	2900      	cmp	r1, #0
 8005830:	da01      	bge.n	8005836 <SPD_IsMecSpeedReliable+0x14>
    hAux = -( *pMecSpeedUnit );
 8005832:	4252      	negs	r2, r2
 8005834:	b292      	uxth	r2, r2
  if ( hAbsMecSpeedUnit > pHandle->hMaxReliableMecSpeedUnit )
  {
    SpeedError = true;
  }

  if ( hAbsMecSpeedUnit < pHandle->hMinReliableMecSpeedUnit )
 8005836:	8ac6      	ldrh	r6, [r0, #22]
  {
    SpeedError = true;
 8005838:	2501      	movs	r5, #1
  if ( hAbsMecSpeedUnit > pHandle->hMaxReliableMecSpeedUnit )
 800583a:	8a81      	ldrh	r1, [r0, #20]
  if ( hAbsMecSpeedUnit < pHandle->hMinReliableMecSpeedUnit )
 800583c:	4296      	cmp	r6, r2
 800583e:	d802      	bhi.n	8005846 <SPD_IsMecSpeedReliable+0x24>
  if ( hAbsMecSpeedUnit > pHandle->hMaxReliableMecSpeedUnit )
 8005840:	4291      	cmp	r1, r2
 8005842:	4192      	sbcs	r2, r2
 8005844:	4255      	negs	r5, r2
  }

  /* Compute absoulte value of mechanical acceleration */
  if ( pHandle->hMecAccelUnitP < 0 )
 8005846:	2112      	movs	r1, #18
 8005848:	5e42      	ldrsh	r2, [r0, r1]
  {
    hAux = -( pHandle->hMecAccelUnitP );
 800584a:	b291      	uxth	r1, r2
  if ( pHandle->hMecAccelUnitP < 0 )
 800584c:	2a00      	cmp	r2, #0
 800584e:	da01      	bge.n	8005854 <SPD_IsMecSpeedReliable+0x32>
    hAux = -( pHandle->hMecAccelUnitP );
 8005850:	4249      	negs	r1, r1
 8005852:	b289      	uxth	r1, r1
  else
  {
    hAbsMecAccelUnitP = ( uint16_t )( pHandle->hMecAccelUnitP );
  }

  if ( hAbsMecAccelUnitP > pHandle->hMaxReliableMecAccelUnitP )
 8005854:	8b02      	ldrh	r2, [r0, #24]
 8005856:	428a      	cmp	r2, r1
 8005858:	d301      	bcc.n	800585e <SPD_IsMecSpeedReliable+0x3c>
  {
    SpeedError = true;
  }

  if ( SpeedError == true )
 800585a:	2d00      	cmp	r5, #0
 800585c:	d009      	beq.n	8005872 <SPD_IsMecSpeedReliable+0x50>
  {
    if ( bSpeedErrorNumber < bMaximumSpeedErrorsNumber )
 800585e:	429c      	cmp	r4, r3
 8005860:	d901      	bls.n	8005866 <SPD_IsMecSpeedReliable+0x44>
    {
      bSpeedErrorNumber++;
 8005862:	3301      	adds	r3, #1
 8005864:	b2db      	uxtb	r3, r3
  if ( bSpeedErrorNumber == bMaximumSpeedErrorsNumber )
  {
    SpeedSensorReliability = false;
  }

  pHandle->bSpeedErrorNumber = bSpeedErrorNumber;
 8005866:	7003      	strb	r3, [r0, #0]
  if ( bSpeedErrorNumber == bMaximumSpeedErrorsNumber )
 8005868:	1b18      	subs	r0, r3, r4
 800586a:	1e42      	subs	r2, r0, #1
 800586c:	4190      	sbcs	r0, r2

  return ( SpeedSensorReliability );
 800586e:	b2c0      	uxtb	r0, r0
}
 8005870:	bd70      	pop	{r4, r5, r6, pc}
    if ( bSpeedErrorNumber < bMaximumSpeedErrorsNumber )
 8005872:	429c      	cmp	r4, r3
 8005874:	d9f7      	bls.n	8005866 <SPD_IsMecSpeedReliable+0x44>
      bSpeedErrorNumber = 0u;
 8005876:	002b      	movs	r3, r5
 8005878:	e7f5      	b.n	8005866 <SPD_IsMecSpeedReliable+0x44>

0800587a <SPD_GetS16Speed>:
  *         -hMaxReliableMecSpeedUnit.
  * @param  pHandle: handler of the current instance of the SpeednPosFdbk component
  * @retval int16_t The average mechanical rotor speed expressed in "S16Speed".
  */
__weak int16_t SPD_GetS16Speed( SpeednPosFdbk_Handle_t * pHandle )
{
 800587a:	0003      	movs	r3, r0
 800587c:	b510      	push	{r4, lr}
  int32_t wAux = ( int32_t ) pHandle->hAvrMecSpeedUnit;
 800587e:	210c      	movs	r1, #12
 8005880:	5e42      	ldrsh	r2, [r0, r1]
  wAux *= INT16_MAX;
  wAux /= ( int16_t ) pHandle->hMaxReliableMecSpeedUnit;
 8005882:	2114      	movs	r1, #20
 8005884:	5e59      	ldrsh	r1, [r3, r1]
  wAux *= INT16_MAX;
 8005886:	03d0      	lsls	r0, r2, #15
 8005888:	1a80      	subs	r0, r0, r2
  wAux /= ( int16_t ) pHandle->hMaxReliableMecSpeedUnit;
 800588a:	f7fa fcef 	bl	800026c <__divsi3>
  return ( int16_t )wAux;
 800588e:	b200      	sxth	r0, r0
}
 8005890:	bd10      	pop	{r4, pc}

08005892 <STC_Init>:
__weak void STC_Init( SpeednTorqCtrl_Handle_t * pHandle, PID_Handle_t * pPI, SpeednPosFdbk_Handle_t * SPD_Handle )
{

  pHandle->PISpeed = pPI;
  pHandle->SPD = SPD_Handle;
  pHandle->Mode = pHandle->ModeDefault;
 8005892:	0003      	movs	r3, r0
  pHandle->SPD = SPD_Handle;
 8005894:	6142      	str	r2, [r0, #20]
  pHandle->PISpeed = pPI;
 8005896:	6101      	str	r1, [r0, #16]
  pHandle->Mode = pHandle->ModeDefault;
 8005898:	332a      	adds	r3, #42	; 0x2a
 800589a:	781b      	ldrb	r3, [r3, #0]
 800589c:	7003      	strb	r3, [r0, #0]
  pHandle->SpeedRefUnitExt = ( int32_t )pHandle->MecSpeedRefUnitDefault * 65536;
 800589e:	222c      	movs	r2, #44	; 0x2c
 80058a0:	5e83      	ldrsh	r3, [r0, r2]
 80058a2:	041b      	lsls	r3, r3, #16
 80058a4:	6043      	str	r3, [r0, #4]
  pHandle->TorqueRef = ( int32_t )pHandle->TorqueRefDefault * 65536;
 80058a6:	222e      	movs	r2, #46	; 0x2e
 80058a8:	5e83      	ldrsh	r3, [r0, r2]
 80058aa:	041b      	lsls	r3, r3, #16
 80058ac:	6083      	str	r3, [r0, #8]
  pHandle->TargetFinal = 0;
 80058ae:	2300      	movs	r3, #0
 80058b0:	8043      	strh	r3, [r0, #2]
  pHandle->RampRemainingStep = 0u;
 80058b2:	60c3      	str	r3, [r0, #12]
  pHandle->IncDecAmount = 0;
 80058b4:	6183      	str	r3, [r0, #24]
}
 80058b6:	4770      	bx	lr

080058b8 <STC_GetSpeedSensor>:
  * @param  pHandle: handler of the current instance of the SpeednTorqCtrl component
  * @retval SpeednPosFdbk_Handle_t speed sensor utilized by the FOC.
  */
__weak SpeednPosFdbk_Handle_t * STC_GetSpeedSensor( SpeednTorqCtrl_Handle_t * pHandle )
{
  return ( pHandle->SPD );
 80058b8:	6940      	ldr	r0, [r0, #20]
}
 80058ba:	4770      	bx	lr

080058bc <STC_Clear>:
  * @param  pHandle: handler of the current instance of the SpeednTorqCtrl component
  * @retval none.
  */
__weak void STC_Clear( SpeednTorqCtrl_Handle_t * pHandle )
{
  if ( pHandle->Mode == STC_SPEED_MODE )
 80058bc:	7803      	ldrb	r3, [r0, #0]
{
 80058be:	b510      	push	{r4, lr}
  if ( pHandle->Mode == STC_SPEED_MODE )
 80058c0:	2b01      	cmp	r3, #1
 80058c2:	d103      	bne.n	80058cc <STC_Clear+0x10>
  {
    PID_SetIntegralTerm( pHandle->PISpeed, 0 );
 80058c4:	2100      	movs	r1, #0
 80058c6:	6900      	ldr	r0, [r0, #16]
 80058c8:	f7ff f9fb 	bl	8004cc2 <PID_SetIntegralTerm>
  }
}
 80058cc:	bd10      	pop	{r4, pc}

080058ce <STC_GetMecSpeedRefUnit>:
  * @retval int16_t current mechanical rotor speed reference expressed in tenths
  *         of HZ.
  */
__weak int16_t STC_GetMecSpeedRefUnit( SpeednTorqCtrl_Handle_t * pHandle )
{
  return ( ( int16_t )( pHandle->SpeedRefUnitExt / 65536 ) );
 80058ce:	6842      	ldr	r2, [r0, #4]
 80058d0:	17d0      	asrs	r0, r2, #31
 80058d2:	b280      	uxth	r0, r0
 80058d4:	1880      	adds	r0, r0, r2
 80058d6:	1400      	asrs	r0, r0, #16
}
 80058d8:	4770      	bx	lr

080058da <STC_GetTorqueRef>:
  * @retval int16_t current motor torque reference. This value represents
  *         actually the Iq current expressed in digit.
  */
__weak int16_t STC_GetTorqueRef( SpeednTorqCtrl_Handle_t * pHandle )
{
  return ( ( int16_t )( pHandle->TorqueRef / 65536 ) );
 80058da:	6882      	ldr	r2, [r0, #8]
 80058dc:	17d0      	asrs	r0, r2, #31
 80058de:	b280      	uxth	r0, r0
 80058e0:	1880      	adds	r0, r0, r2
 80058e2:	1400      	asrs	r0, r0, #16
}
 80058e4:	4770      	bx	lr

080058e6 <STC_SetControlMode>:
  * @retval none
  */
__weak void STC_SetControlMode( SpeednTorqCtrl_Handle_t * pHandle, STC_Modality_t bMode )
{
  pHandle->Mode = bMode;
  pHandle->RampRemainingStep = 0u; /* Interrupts previous ramp. */
 80058e6:	2300      	movs	r3, #0
  pHandle->Mode = bMode;
 80058e8:	7001      	strb	r1, [r0, #0]
  pHandle->RampRemainingStep = 0u; /* Interrupts previous ramp. */
 80058ea:	60c3      	str	r3, [r0, #12]
}
 80058ec:	4770      	bx	lr

080058ee <STC_ExecRamp>:
  *         application torque or below min application speed depending on
  *         current modality of TSC) in this case the command is ignored and the
  *         previous ramp is not interrupted, otherwise it returns true.
  */
__weak bool STC_ExecRamp( SpeednTorqCtrl_Handle_t * pHandle, int16_t hTargetFinal, uint32_t hDurationms )
{
 80058ee:	b5f8      	push	{r3, r4, r5, r6, r7, lr}
  uint32_t wAux;
  int32_t wAux1;
  int16_t hCurrentReference;

  /* Check if the hTargetFinal is out of the bound of application. */
  if ( pHandle->Mode == STC_TORQUE_MODE )
 80058f0:	7803      	ldrb	r3, [r0, #0]
{
 80058f2:	0004      	movs	r4, r0
 80058f4:	000d      	movs	r5, r1
 80058f6:	0017      	movs	r7, r2
  if ( pHandle->Mode == STC_TORQUE_MODE )
 80058f8:	2b00      	cmp	r3, #0
 80058fa:	d108      	bne.n	800590e <STC_ExecRamp+0x20>
  {
    hCurrentReference = STC_GetTorqueRef( pHandle );
 80058fc:	f7ff ffed 	bl	80058da <STC_GetTorqueRef>
#ifdef CHECK_BOUNDARY
    if ( ( int32_t )hTargetFinal > ( int32_t )pHandle->MaxPositiveTorque )
    {
      AllowedRange = false;
    }
    if ( ( int32_t )hTargetFinal < ( int32_t )pHandle->MinNegativeTorque )
 8005900:	2228      	movs	r2, #40	; 0x28
 8005902:	5ea3      	ldrsh	r3, [r4, r2]
    hCurrentReference = STC_GetTorqueRef( pHandle );
 8005904:	0006      	movs	r6, r0
    if ( ( int32_t )hTargetFinal < ( int32_t )pHandle->MinNegativeTorque )
 8005906:	42ab      	cmp	r3, r5
 8005908:	dd20      	ble.n	800594c <STC_ExecRamp+0x5e>
    {
      AllowedRange = false;
 800590a:	2000      	movs	r0, #0
      pHandle->IncDecAmount = wAux1;
    }
  }

  return AllowedRange;
}
 800590c:	bdf8      	pop	{r3, r4, r5, r6, r7, pc}
    hCurrentReference = ( int16_t )( pHandle->SpeedRefUnitExt / 65536 );
 800590e:	6840      	ldr	r0, [r0, #4]
    if ( ( int32_t )hTargetFinal > ( int32_t )pHandle->MaxAppPositiveMecSpeedUnit )
 8005910:	8be3      	ldrh	r3, [r4, #30]
    hCurrentReference = ( int16_t )( pHandle->SpeedRefUnitExt / 65536 );
 8005912:	17c6      	asrs	r6, r0, #31
 8005914:	b2b6      	uxth	r6, r6
 8005916:	1836      	adds	r6, r6, r0
 8005918:	1436      	asrs	r6, r6, #16
    if ( ( int32_t )hTargetFinal > ( int32_t )pHandle->MaxAppPositiveMecSpeedUnit )
 800591a:	428b      	cmp	r3, r1
 800591c:	dbf5      	blt.n	800590a <STC_ExecRamp+0x1c>
    else if ( hTargetFinal < pHandle->MinAppNegativeMecSpeedUnit )
 800591e:	2224      	movs	r2, #36	; 0x24
 8005920:	5ea3      	ldrsh	r3, [r4, r2]
 8005922:	428b      	cmp	r3, r1
 8005924:	dcf1      	bgt.n	800590a <STC_ExecRamp+0x1c>
    else if ( ( int32_t )hTargetFinal < ( int32_t )pHandle->MinAppPositiveMecSpeedUnit )
 8005926:	8c23      	ldrh	r3, [r4, #32]
 8005928:	428b      	cmp	r3, r1
 800592a:	dd03      	ble.n	8005934 <STC_ExecRamp+0x46>
      if ( hTargetFinal > pHandle->MaxAppNegativeMecSpeedUnit )
 800592c:	2222      	movs	r2, #34	; 0x22
 800592e:	5ea3      	ldrsh	r3, [r4, r2]
  if ( AllowedRange == true )
 8005930:	42ab      	cmp	r3, r5
 8005932:	dbea      	blt.n	800590a <STC_ExecRamp+0x1c>
    if ( hDurationms == 0u )
 8005934:	2f00      	cmp	r7, #0
 8005936:	d10d      	bne.n	8005954 <STC_ExecRamp+0x66>
      if ( pHandle->Mode == STC_SPEED_MODE )
 8005938:	7823      	ldrb	r3, [r4, #0]
        pHandle->SpeedRefUnitExt = ( int32_t )hTargetFinal * 65536;
 800593a:	042d      	lsls	r5, r5, #16
      if ( pHandle->Mode == STC_SPEED_MODE )
 800593c:	2b01      	cmp	r3, #1
 800593e:	d107      	bne.n	8005950 <STC_ExecRamp+0x62>
        pHandle->SpeedRefUnitExt = ( int32_t )hTargetFinal * 65536;
 8005940:	6065      	str	r5, [r4, #4]
      pHandle->RampRemainingStep = 0u;
 8005942:	2300      	movs	r3, #0
 8005944:	60e3      	str	r3, [r4, #12]
      pHandle->IncDecAmount = 0;
 8005946:	61a3      	str	r3, [r4, #24]
      pHandle->IncDecAmount = wAux1;
 8005948:	2001      	movs	r0, #1
 800594a:	e7df      	b.n	800590c <STC_ExecRamp+0x1e>
    if ( ( int32_t )hTargetFinal > ( int32_t )pHandle->MaxPositiveTorque )
 800594c:	8ce3      	ldrh	r3, [r4, #38]	; 0x26
 800594e:	e7ef      	b.n	8005930 <STC_ExecRamp+0x42>
        pHandle->TorqueRef = ( int32_t )hTargetFinal * 65536;
 8005950:	60a5      	str	r5, [r4, #8]
 8005952:	e7f6      	b.n	8005942 <STC_ExecRamp+0x54>
      wAux /= 1000u;
 8005954:	21fa      	movs	r1, #250	; 0xfa
      wAux = ( uint32_t )hDurationms * ( uint32_t )pHandle->STCFrequencyHz;
 8005956:	8ba0      	ldrh	r0, [r4, #28]
      pHandle->TargetFinal = hTargetFinal;
 8005958:	8065      	strh	r5, [r4, #2]
      wAux /= 1000u;
 800595a:	0089      	lsls	r1, r1, #2
      wAux = ( uint32_t )hDurationms * ( uint32_t )pHandle->STCFrequencyHz;
 800595c:	4378      	muls	r0, r7
      wAux /= 1000u;
 800595e:	f7fa fbfb 	bl	8000158 <__udivsi3>
      wAux1 = ( ( int32_t )hTargetFinal - ( int32_t )hCurrentReference ) * 65536;
 8005962:	1bad      	subs	r5, r5, r6
      pHandle->RampRemainingStep++;
 8005964:	1c41      	adds	r1, r0, #1
 8005966:	60e1      	str	r1, [r4, #12]
      wAux1 = ( ( int32_t )hTargetFinal - ( int32_t )hCurrentReference ) * 65536;
 8005968:	0428      	lsls	r0, r5, #16
      wAux1 /= ( int32_t )pHandle->RampRemainingStep;
 800596a:	f7fa fc7f 	bl	800026c <__divsi3>
      pHandle->IncDecAmount = wAux1;
 800596e:	61a0      	str	r0, [r4, #24]
 8005970:	e7ea      	b.n	8005948 <STC_ExecRamp+0x5a>

08005972 <STC_StopRamp>:
  * @retval none
  */
__weak void STC_StopRamp( SpeednTorqCtrl_Handle_t * pHandle )
{

  pHandle->RampRemainingStep = 0u;
 8005972:	2300      	movs	r3, #0
 8005974:	60c3      	str	r3, [r0, #12]
  pHandle->IncDecAmount = 0;
 8005976:	6183      	str	r3, [r0, #24]
}
 8005978:	4770      	bx	lr

0800597a <STC_CalcTorqueReference>:
  int16_t hTorqueReference = 0;
  int16_t hMeasuredSpeed;
  int16_t hTargetSpeed;
  int16_t hError;

  if ( pHandle->Mode == STC_TORQUE_MODE )
 800597a:	7802      	ldrb	r2, [r0, #0]
{
 800597c:	b570      	push	{r4, r5, r6, lr}
 800597e:	0004      	movs	r4, r0
  if ( pHandle->Mode == STC_TORQUE_MODE )
 8005980:	2a00      	cmp	r2, #0
 8005982:	d119      	bne.n	80059b8 <STC_CalcTorqueReference+0x3e>
  {
    wCurrentReference = pHandle->TorqueRef;
 8005984:	6886      	ldr	r6, [r0, #8]
    wCurrentReference = pHandle->SpeedRefUnitExt;
  }

  /* Update the speed reference or the torque reference according to the mode
     and terminates the ramp if needed. */
  if ( pHandle->RampRemainingStep > 1u )
 8005986:	68e3      	ldr	r3, [r4, #12]
 8005988:	2b01      	cmp	r3, #1
 800598a:	d917      	bls.n	80059bc <STC_CalcTorqueReference+0x42>
  {
    /* Increment/decrement the reference value. */
    wCurrentReference += pHandle->IncDecAmount;
 800598c:	69a1      	ldr	r1, [r4, #24]

    /* Decrement the number of remaining steps */
    pHandle->RampRemainingStep--;
 800598e:	3b01      	subs	r3, #1
    wCurrentReference += pHandle->IncDecAmount;
 8005990:	1876      	adds	r6, r6, r1
  }
  else if ( pHandle->RampRemainingStep == 1u )
  {
    /* Set the backup value of hTargetFinal. */
    wCurrentReference = ( int32_t )pHandle->TargetFinal * 65536;
    pHandle->RampRemainingStep = 0u;
 8005992:	60e3      	str	r3, [r4, #12]
  if ( pHandle->Mode == STC_SPEED_MODE )
  {
    /* Run the speed control loop */

    /* Compute speed error */
    hTargetSpeed = ( int16_t )( wCurrentReference / 65536 );
 8005994:	17f0      	asrs	r0, r6, #31
 8005996:	b280      	uxth	r0, r0
 8005998:	1980      	adds	r0, r0, r6
 800599a:	1405      	asrs	r5, r0, #16
  if ( pHandle->Mode == STC_SPEED_MODE )
 800599c:	2a01      	cmp	r2, #1
 800599e:	d114      	bne.n	80059ca <STC_CalcTorqueReference+0x50>
    hMeasuredSpeed = SPD_GetAvrgMecSpeedUnit( pHandle->SPD );
 80059a0:	6960      	ldr	r0, [r4, #20]
 80059a2:	f7ff ff38 	bl	8005816 <SPD_GetAvrgMecSpeedUnit>
    hError = hTargetSpeed - hMeasuredSpeed;
 80059a6:	1a28      	subs	r0, r5, r0
    hTorqueReference = PI_Controller( pHandle->PISpeed, ( int32_t )hError );
 80059a8:	b201      	sxth	r1, r0
 80059aa:	6920      	ldr	r0, [r4, #16]
 80059ac:	f7ff f994 	bl	8004cd8 <PI_Controller>

    pHandle->SpeedRefUnitExt = wCurrentReference;
    pHandle->TorqueRef = ( int32_t )hTorqueReference * 65536;
 80059b0:	0403      	lsls	r3, r0, #16
    pHandle->SpeedRefUnitExt = wCurrentReference;
 80059b2:	6066      	str	r6, [r4, #4]
    pHandle->TorqueRef = ( int32_t )hTorqueReference * 65536;
 80059b4:	60a3      	str	r3, [r4, #8]
    pHandle->TorqueRef = wCurrentReference;
    hTorqueReference = ( int16_t )( wCurrentReference / 65536 );
  }

  return hTorqueReference;
}
 80059b6:	bd70      	pop	{r4, r5, r6, pc}
    wCurrentReference = pHandle->SpeedRefUnitExt;
 80059b8:	6846      	ldr	r6, [r0, #4]
 80059ba:	e7e4      	b.n	8005986 <STC_CalcTorqueReference+0xc>
  else if ( pHandle->RampRemainingStep == 1u )
 80059bc:	2b01      	cmp	r3, #1
 80059be:	d1e9      	bne.n	8005994 <STC_CalcTorqueReference+0x1a>
    wCurrentReference = ( int32_t )pHandle->TargetFinal * 65536;
 80059c0:	2302      	movs	r3, #2
 80059c2:	5ee6      	ldrsh	r6, [r4, r3]
    pHandle->RampRemainingStep = 0u;
 80059c4:	2300      	movs	r3, #0
    wCurrentReference = ( int32_t )pHandle->TargetFinal * 65536;
 80059c6:	0436      	lsls	r6, r6, #16
    pHandle->RampRemainingStep = 0u;
 80059c8:	e7e3      	b.n	8005992 <STC_CalcTorqueReference+0x18>
    pHandle->TorqueRef = wCurrentReference;
 80059ca:	60a6      	str	r6, [r4, #8]
    hTorqueReference = ( int16_t )( wCurrentReference / 65536 );
 80059cc:	b228      	sxth	r0, r5
 80059ce:	e7f2      	b.n	80059b6 <STC_CalcTorqueReference+0x3c>

080059d0 <STC_GetMecSpeedRefUnitDefault>:
  * @retval int16_t It returns the Default mechanical rotor speed. reference
  *         expressed in tenths of HZ.
  */
__weak int16_t STC_GetMecSpeedRefUnitDefault( SpeednTorqCtrl_Handle_t * pHandle )
{
  return pHandle->MecSpeedRefUnitDefault;
 80059d0:	232c      	movs	r3, #44	; 0x2c
 80059d2:	5ec0      	ldrsh	r0, [r0, r3]
}
 80059d4:	4770      	bx	lr

080059d6 <STC_GetMaxAppPositiveMecSpeedUnit>:
  * @brief  Returns the Application maximum positive value of rotor speed. Expressed in the unit defined by #SPEED_UNIT.
  * @param  pHandle: handler of the current instance of the SpeednTorqCtrl component
  */
__weak uint16_t STC_GetMaxAppPositiveMecSpeedUnit( SpeednTorqCtrl_Handle_t * pHandle )
{
  return pHandle->MaxAppPositiveMecSpeedUnit;
 80059d6:	8bc0      	ldrh	r0, [r0, #30]
}
 80059d8:	4770      	bx	lr

080059da <STC_GetMinAppNegativeMecSpeedUnit>:
  * @brief  Returns the Application minimum negative value of rotor speed. Expressed in the unit defined by #SPEED_UNIT.
  * @param  pHandle: handler of the current instance of the SpeednTorqCtrl component
  */
__weak int16_t STC_GetMinAppNegativeMecSpeedUnit( SpeednTorqCtrl_Handle_t * pHandle )
{
  return pHandle->MinAppNegativeMecSpeedUnit;
 80059da:	2324      	movs	r3, #36	; 0x24
 80059dc:	5ec0      	ldrsh	r0, [r0, r3]
}
 80059de:	4770      	bx	lr

080059e0 <STC_GetDefaultIqdref>:
__weak qd_t STC_GetDefaultIqdref( SpeednTorqCtrl_Handle_t * pHandle )
{
  qd_t IqdRefDefault;
  IqdRefDefault.q = pHandle->TorqueRefDefault;
  IqdRefDefault.d = pHandle->IdrefDefault;
  return IqdRefDefault;
 80059e0:	8e02      	ldrh	r2, [r0, #48]	; 0x30
 80059e2:	8dc3      	ldrh	r3, [r0, #46]	; 0x2e
 80059e4:	0412      	lsls	r2, r2, #16
 80059e6:	b298      	uxth	r0, r3
{
 80059e8:	b082      	sub	sp, #8
  return IqdRefDefault;
 80059ea:	4310      	orrs	r0, r2
}
 80059ec:	b002      	add	sp, #8
 80059ee:	4770      	bx	lr

080059f0 <STC_ForceSpeedReferenceToCurrentSpeed>:
  *         at the START_RUN state to initialize the speed reference.
  * @param  pHandle: handler of the current instance of the SpeednTorqCtrl component
  * @retval none
  */
__weak void STC_ForceSpeedReferenceToCurrentSpeed( SpeednTorqCtrl_Handle_t * pHandle )
{
 80059f0:	b510      	push	{r4, lr}
 80059f2:	0004      	movs	r4, r0
  pHandle->SpeedRefUnitExt = ( int32_t )SPD_GetAvrgMecSpeedUnit( pHandle->SPD ) * ( int32_t )65536;
 80059f4:	6940      	ldr	r0, [r0, #20]
 80059f6:	f7ff ff0e 	bl	8005816 <SPD_GetAvrgMecSpeedUnit>
 80059fa:	0400      	lsls	r0, r0, #16
 80059fc:	6060      	str	r0, [r4, #4]
}
 80059fe:	bd10      	pop	{r4, pc}

08005a00 <STM_Init>:
  * @retval none.
  */
__weak void STM_Init( STM_Handle_t * pHandle )
{

  pHandle->bState = IDLE;
 8005a00:	2300      	movs	r3, #0
 8005a02:	7003      	strb	r3, [r0, #0]
  pHandle->hFaultNow = MC_NO_FAULTS;
 8005a04:	8043      	strh	r3, [r0, #2]
  pHandle->hFaultOccurred = MC_NO_FAULTS;
 8005a06:	8083      	strh	r3, [r0, #4]
}
 8005a08:	4770      	bx	lr

08005a0a <STM_FaultProcessing>:
  * @param hResetErrors Bit field reporting faults to be cleared
  * @retval State_t New state machine state after fault processing
  */
__weak State_t STM_FaultProcessing( STM_Handle_t * pHandle, uint16_t hSetErrors, uint16_t
                             hResetErrors )
{
 8005a0a:	0003      	movs	r3, r0
 8005a0c:	b510      	push	{r4, lr}
  State_t LocalState =  pHandle->bState;

  /* Set current errors */
  pHandle->hFaultNow = ( pHandle->hFaultNow | hSetErrors ) & ( ~hResetErrors );
 8005a0e:	885c      	ldrh	r4, [r3, #2]
  State_t LocalState =  pHandle->bState;
 8005a10:	7800      	ldrb	r0, [r0, #0]
  pHandle->hFaultNow = ( pHandle->hFaultNow | hSetErrors ) & ( ~hResetErrors );
 8005a12:	430c      	orrs	r4, r1
 8005a14:	4394      	bics	r4, r2
 8005a16:	0022      	movs	r2, r4
 8005a18:	805c      	strh	r4, [r3, #2]
  pHandle->hFaultOccurred |= hSetErrors;
 8005a1a:	889c      	ldrh	r4, [r3, #4]
 8005a1c:	4321      	orrs	r1, r4
 8005a1e:	8099      	strh	r1, [r3, #4]

  if ( LocalState == FAULT_NOW )
 8005a20:	280a      	cmp	r0, #10
 8005a22:	d104      	bne.n	8005a2e <STM_FaultProcessing+0x24>
  {
    if ( pHandle->hFaultNow == MC_NO_FAULTS )
 8005a24:	2a00      	cmp	r2, #0
 8005a26:	d101      	bne.n	8005a2c <STM_FaultProcessing+0x22>
    {
      pHandle->bState = FAULT_OVER;
 8005a28:	3001      	adds	r0, #1
  }
  else
  {
    if ( pHandle->hFaultNow != MC_NO_FAULTS )
    {
      pHandle->bState = FAULT_NOW;
 8005a2a:	7018      	strb	r0, [r3, #0]
      LocalState = FAULT_NOW;
    }
  }

  return ( LocalState );
}
 8005a2c:	bd10      	pop	{r4, pc}
    if ( pHandle->hFaultNow != MC_NO_FAULTS )
 8005a2e:	2a00      	cmp	r2, #0
 8005a30:	d0fc      	beq.n	8005a2c <STM_FaultProcessing+0x22>
      pHandle->bState = FAULT_NOW;
 8005a32:	200a      	movs	r0, #10
 8005a34:	e7f9      	b.n	8005a2a <STM_FaultProcessing+0x20>
	...

08005a38 <STM_NextState>:
{
 8005a38:	0003      	movs	r3, r0
  switch ( bCurrentState )
 8005a3a:	7800      	ldrb	r0, [r0, #0]
{
 8005a3c:	b510      	push	{r4, lr}
  switch ( bCurrentState )
 8005a3e:	2814      	cmp	r0, #20
 8005a40:	d80e      	bhi.n	8005a60 <STM_NextState+0x28>
 8005a42:	f7fa fb6b 	bl	800011c <__gnu_thumb1_case_uqi>
 8005a46:	281e      	.short	0x281e
 8005a48:	61553d31 	.word	0x61553d31
 8005a4c:	69666331 	.word	0x69666331
 8005a50:	2f0b0d0d 	.word	0x2f0b0d0d
 8005a54:	49463a34 	.word	0x49463a34
 8005a58:	5d52      	.short	0x5d52
 8005a5a:	4f          	.byte	0x4f
 8005a5b:	00          	.byte	0x00
      if ( bState == IDLE )
 8005a5c:	2900      	cmp	r1, #0
 8005a5e:	d017      	beq.n	8005a90 <STM_NextState+0x58>
    if ( !( ( bState == IDLE_START ) || ( bState == IDLE_ALIGNMENT )
 8005a60:	2202      	movs	r2, #2
 8005a62:	0008      	movs	r0, r1
 8005a64:	4390      	bics	r0, r2
 8005a66:	0002      	movs	r2, r0
 8005a68:	2000      	movs	r0, #0
 8005a6a:	2a01      	cmp	r2, #1
 8005a6c:	d012      	beq.n	8005a94 <STM_NextState+0x5c>
 8005a6e:	2000      	movs	r0, #0
 8005a70:	2907      	cmp	r1, #7
 8005a72:	d00f      	beq.n	8005a94 <STM_NextState+0x5c>
      STM_FaultProcessing( pHandle, MC_SW_ERROR, 0u );
 8005a74:	2200      	movs	r2, #0
 8005a76:	2180      	movs	r1, #128	; 0x80
 8005a78:	0018      	movs	r0, r3
 8005a7a:	f7ff ffc6 	bl	8005a0a <STM_FaultProcessing>
    if ( !( ( bState == IDLE_START ) || ( bState == IDLE_ALIGNMENT )
 8005a7e:	2000      	movs	r0, #0
  return ( bChangeState );
 8005a80:	e008      	b.n	8005a94 <STM_NextState+0x5c>
      if ( ( bState == IDLE_START ) || ( bState == IDLE_ALIGNMENT )
 8005a82:	2202      	movs	r2, #2
 8005a84:	0008      	movs	r0, r1
 8005a86:	4390      	bics	r0, r2
 8005a88:	2801      	cmp	r0, #1
 8005a8a:	d001      	beq.n	8005a90 <STM_NextState+0x58>
           || ( bState == ICLWAIT ) )
 8005a8c:	290c      	cmp	r1, #12
 8005a8e:	d1ee      	bne.n	8005a6e <STM_NextState+0x36>
    pHandle->bState = bNewState;
 8005a90:	2001      	movs	r0, #1
 8005a92:	7019      	strb	r1, [r3, #0]
}
 8005a94:	bd10      	pop	{r4, pc}
      if ( ( bState == ANY_STOP ) || ( bState == ALIGN_CHARGE_BOOT_CAP )
 8005a96:	2907      	cmp	r1, #7
 8005a98:	d0fa      	beq.n	8005a90 <STM_NextState+0x58>
 8005a9a:	000a      	movs	r2, r1
 8005a9c:	3a0d      	subs	r2, #13
      if ( ( bState == RUN ) || ( bState == ANY_STOP ) )
 8005a9e:	2a01      	cmp	r2, #1
 8005aa0:	d8de      	bhi.n	8005a60 <STM_NextState+0x28>
 8005aa2:	e7f5      	b.n	8005a90 <STM_NextState+0x58>
      if ( ( bState == ALIGN_OFFSET_CALIB ) || ( bState == ANY_STOP ) )
 8005aa4:	290e      	cmp	r1, #14
 8005aa6:	d0f3      	beq.n	8005a90 <STM_NextState+0x58>
      if ( bState == ANY_STOP )
 8005aa8:	2907      	cmp	r1, #7
 8005aaa:	d1d9      	bne.n	8005a60 <STM_NextState+0x28>
 8005aac:	e7f0      	b.n	8005a90 <STM_NextState+0x58>
      if ( ( bState == ALIGN_CLEAR ) || ( bState == ANY_STOP ) )
 8005aae:	2208      	movs	r2, #8
 8005ab0:	0008      	movs	r0, r1
 8005ab2:	4390      	bics	r0, r2
 8005ab4:	2807      	cmp	r0, #7
 8005ab6:	d1d3      	bne.n	8005a60 <STM_NextState+0x28>
 8005ab8:	e7ea      	b.n	8005a90 <STM_NextState+0x58>
      if ( ( bState == ALIGNMENT ) || ( bState == ANY_STOP ) )
 8005aba:	2902      	cmp	r1, #2
 8005abc:	d1f4      	bne.n	8005aa8 <STM_NextState+0x70>
 8005abe:	e7e7      	b.n	8005a90 <STM_NextState+0x58>
           ( bState == OFFSET_CALIB ) || ( bState == IDLE_ALIGNMENT ) )
 8005ac0:	2911      	cmp	r1, #17
 8005ac2:	d8d7      	bhi.n	8005a74 <STM_NextState+0x3c>
 8005ac4:	4a17      	ldr	r2, [pc, #92]	; (8005b24 <STM_NextState+0xec>)
 8005ac6:	40ca      	lsrs	r2, r1
 8005ac8:	07d2      	lsls	r2, r2, #31
 8005aca:	d4e1      	bmi.n	8005a90 <STM_NextState+0x58>
    if ( !( ( bState == IDLE_START ) || ( bState == IDLE_ALIGNMENT )
 8005acc:	2903      	cmp	r1, #3
 8005ace:	d0d6      	beq.n	8005a7e <STM_NextState+0x46>
 8005ad0:	e7d0      	b.n	8005a74 <STM_NextState+0x3c>
      if ( ( bState == OFFSET_CALIB ) || ( bState == ANY_STOP ) )
 8005ad2:	2911      	cmp	r1, #17
 8005ad4:	d1e8      	bne.n	8005aa8 <STM_NextState+0x70>
 8005ad6:	e7db      	b.n	8005a90 <STM_NextState+0x58>
      if ( ( bState == CLEAR ) || ( bState == ANY_STOP ) || ( bState == WAIT_STOP_MOTOR ) )
 8005ad8:	000a      	movs	r2, r1
 8005ada:	20fd      	movs	r0, #253	; 0xfd
 8005adc:	3a12      	subs	r2, #18
 8005ade:	4202      	tst	r2, r0
 8005ae0:	d1e2      	bne.n	8005aa8 <STM_NextState+0x70>
 8005ae2:	e7d5      	b.n	8005a90 <STM_NextState+0x58>
      if ( ( bState == CLEAR ) || ( bState == ANY_STOP ) )
 8005ae4:	2912      	cmp	r1, #18
 8005ae6:	d1df      	bne.n	8005aa8 <STM_NextState+0x70>
 8005ae8:	e7d2      	b.n	8005a90 <STM_NextState+0x58>
      if ( ( bState == START ) || ( bState == ANY_STOP ) )
 8005aea:	2904      	cmp	r1, #4
 8005aec:	d1dc      	bne.n	8005aa8 <STM_NextState+0x70>
 8005aee:	e7cf      	b.n	8005a90 <STM_NextState+0x58>
      if ( ( bState == SWITCH_OVER ) || ( bState == ANY_STOP ) || (bState == START_RUN) )
 8005af0:	2913      	cmp	r1, #19
 8005af2:	d0cd      	beq.n	8005a90 <STM_NextState+0x58>
 8005af4:	2202      	movs	r2, #2
 8005af6:	0008      	movs	r0, r1
 8005af8:	4390      	bics	r0, r2
 8005afa:	2805      	cmp	r0, #5
 8005afc:	d1b0      	bne.n	8005a60 <STM_NextState+0x28>
 8005afe:	e7c7      	b.n	8005a90 <STM_NextState+0x58>
      if ( ( bState == START ) || ( bState == ANY_STOP ) || (bState == START_RUN) )
 8005b00:	1f0a      	subs	r2, r1, #4
 8005b02:	2a01      	cmp	r2, #1
 8005b04:	d8d0      	bhi.n	8005aa8 <STM_NextState+0x70>
 8005b06:	e7c3      	b.n	8005a90 <STM_NextState+0x58>
      if ( ( bState == RUN ) || ( bState == ANY_STOP ) )
 8005b08:	1f8a      	subs	r2, r1, #6
 8005b0a:	e7c8      	b.n	8005a9e <STM_NextState+0x66>
      if ( bState == STOP )
 8005b0c:	2908      	cmp	r1, #8
 8005b0e:	d1a7      	bne.n	8005a60 <STM_NextState+0x28>
 8005b10:	e7be      	b.n	8005a90 <STM_NextState+0x58>
      if ( bState == STOP_IDLE )
 8005b12:	2909      	cmp	r1, #9
 8005b14:	d1a4      	bne.n	8005a60 <STM_NextState+0x28>
 8005b16:	e7bb      	b.n	8005a90 <STM_NextState+0x58>
      if ( ( bState == IDLE ) || ( bState == ICLWAIT ) )
 8005b18:	2900      	cmp	r1, #0
 8005b1a:	d0b9      	beq.n	8005a90 <STM_NextState+0x58>
 8005b1c:	290c      	cmp	r1, #12
 8005b1e:	d19f      	bne.n	8005a60 <STM_NextState+0x28>
 8005b20:	e7b6      	b.n	8005a90 <STM_NextState+0x58>
 8005b22:	46c0      	nop			; (mov r8, r8)
 8005b24:	00030092 	.word	0x00030092

08005b28 <STM_GetState>:
  * @param  pHanlde pointer of type  STM_Handle_t
  * @retval State_t Current state machine state
  */
__weak State_t STM_GetState( STM_Handle_t * pHandle )
{
  return ( pHandle->bState );
 8005b28:	7800      	ldrb	r0, [r0, #0]
}
 8005b2a:	4770      	bx	lr

08005b2c <STM_FaultAcknowledged>:
  */
__weak bool STM_FaultAcknowledged( STM_Handle_t * pHandle )
{
  bool bToBeReturned = false;

  if ( pHandle->bState == FAULT_OVER )
 8005b2c:	7802      	ldrb	r2, [r0, #0]
{
 8005b2e:	0003      	movs	r3, r0
 8005b30:	2000      	movs	r0, #0
  if ( pHandle->bState == FAULT_OVER )
 8005b32:	2a0b      	cmp	r2, #11
 8005b34:	d103      	bne.n	8005b3e <STM_FaultAcknowledged+0x12>
  {
    pHandle->bState = STOP_IDLE;
 8005b36:	3a02      	subs	r2, #2
    pHandle->hFaultOccurred = MC_NO_FAULTS;
 8005b38:	8098      	strh	r0, [r3, #4]
    pHandle->bState = STOP_IDLE;
 8005b3a:	701a      	strb	r2, [r3, #0]
    bToBeReturned = true;
 8005b3c:	3001      	adds	r0, #1
  }

  return ( bToBeReturned );
}
 8005b3e:	4770      	bx	lr

08005b40 <STM_GetFaultState>:
  */
__weak uint32_t STM_GetFaultState( STM_Handle_t * pHandle )
{
  uint32_t LocalFaultState;

  LocalFaultState = ( uint32_t )( pHandle->hFaultOccurred );
 8005b40:	8883      	ldrh	r3, [r0, #4]
  LocalFaultState |= ( uint32_t )( pHandle->hFaultNow ) << 16;
 8005b42:	8840      	ldrh	r0, [r0, #2]
 8005b44:	0400      	lsls	r0, r0, #16
 8005b46:	4318      	orrs	r0, r3

  return LocalFaultState;
}
 8005b48:	4770      	bx	lr

08005b4a <UFCP_Init>:
static const uint16_t UFCP_Usart_Timeout_stop = 2;

/* Functions ---------------------------------------------------------*/

__weak void UFCP_Init( UFCP_Handle_t * pHandle )
{
 8005b4a:	b510      	push	{r4, lr}

  /* Initialize generic component part */
  FCP_Init( & pHandle->_Super );
 8005b4c:	f7fe fc7b 	bl	8004446 <FCP_Init>
}
 8005b50:	bd10      	pop	{r4, pc}

08005b52 <UFCP_TX_IRQ_Handler>:

/*
 *
 */
__weak void UFCP_TX_IRQ_Handler( UFCP_Handle_t * pHandle )
{
 8005b52:	b570      	push	{r4, r5, r6, lr}
  FCP_Handle_t * pBaseHandle = & pHandle->_Super;

  if ( FCP_TRANSFER_IDLE != pBaseHandle->TxFrameState )
 8005b54:	0004      	movs	r4, r0
 8005b56:	3497      	adds	r4, #151	; 0x97
 8005b58:	7823      	ldrb	r3, [r4, #0]
 8005b5a:	2b00      	cmp	r3, #0
 8005b5c:	d017      	beq.n	8005b8e <UFCP_TX_IRQ_Handler+0x3c>
  {
    uint16_t tx_data;

    switch ( pBaseHandle->TxFrameLevel )
 8005b5e:	0005      	movs	r5, r0
 8005b60:	3598      	adds	r5, #152	; 0x98
      case 0:
        tx_data = (uint16_t) pBaseHandle->TxFrame.Code;
        break;

      case 1:
        tx_data = (uint16_t) pBaseHandle->TxFrame.Size;
 8005b62:	7d42      	ldrb	r2, [r0, #21]
    switch ( pBaseHandle->TxFrameLevel )
 8005b64:	782b      	ldrb	r3, [r5, #0]
        break;

      default:
        if ( pBaseHandle->TxFrameLevel < pBaseHandle->TxFrame.Size + FCP_HEADER_SIZE )
 8005b66:	1c56      	adds	r6, r2, #1
    switch ( pBaseHandle->TxFrameLevel )
 8005b68:	2b00      	cmp	r3, #0
 8005b6a:	d007      	beq.n	8005b7c <UFCP_TX_IRQ_Handler+0x2a>
        tx_data = (uint16_t) pBaseHandle->TxFrame.Size;
 8005b6c:	b292      	uxth	r2, r2
    switch ( pBaseHandle->TxFrameLevel )
 8005b6e:	2b01      	cmp	r3, #1
 8005b70:	d005      	beq.n	8005b7e <UFCP_TX_IRQ_Handler+0x2c>
        if ( pBaseHandle->TxFrameLevel < pBaseHandle->TxFrame.Size + FCP_HEADER_SIZE )
 8005b72:	42b3      	cmp	r3, r6
 8005b74:	dc0c      	bgt.n	8005b90 <UFCP_TX_IRQ_Handler+0x3e>
        {
          tx_data = (uint16_t) pBaseHandle->TxFrame.Buffer[ pBaseHandle->TxFrameLevel - FCP_HEADER_SIZE ];
 8005b76:	18c2      	adds	r2, r0, r3
 8005b78:	7d12      	ldrb	r2, [r2, #20]
 8005b7a:	e000      	b.n	8005b7e <UFCP_TX_IRQ_Handler+0x2c>
        tx_data = (uint16_t) pBaseHandle->TxFrame.Code;
 8005b7c:	7d02      	ldrb	r2, [r0, #20]
          tx_data = (uint16_t) pBaseHandle->TxFrame.FrameCRC;
        }
    } /* end of switch ( pBaseHandle->TxFrameLevel ) */

    /* Send the data byte */
    LL_USART_TransmitData8(pHandle->USARTx, tx_data);
 8005b7e:	0001      	movs	r1, r0
 8005b80:	31fc      	adds	r1, #252	; 0xfc
 8005b82:	6a49      	ldr	r1, [r1, #36]	; 0x24
  * @param  Value between Min_Data=0x00 and Max_Data=0xFF
  * @retval None
  */
__STATIC_INLINE void LL_USART_TransmitData8(USART_TypeDef *USARTx, uint8_t Value)
{
  USARTx->TDR = Value;
 8005b84:	850a      	strh	r2, [r1, #40]	; 0x28

    if ( pBaseHandle->TxFrameLevel < pBaseHandle->TxFrame.Size + FCP_HEADER_SIZE )
 8005b86:	42b3      	cmp	r3, r6
 8005b88:	dc06      	bgt.n	8005b98 <UFCP_TX_IRQ_Handler+0x46>
    {
      pBaseHandle->TxFrameLevel++;
 8005b8a:	3301      	adds	r3, #1
 8005b8c:	702b      	strb	r3, [r5, #0]

      pBaseHandle->ClientFrameSentCallback( pBaseHandle->ClientEntity );
    }

  } /* end of if ( FCP_TRANSFER_IDLE != pBaseHandle->TxFrameState ) */
}
 8005b8e:	bd70      	pop	{r4, r5, r6, pc}
          tx_data = (uint16_t) pBaseHandle->TxFrame.FrameCRC;
 8005b90:	0002      	movs	r2, r0
 8005b92:	3296      	adds	r2, #150	; 0x96
 8005b94:	7812      	ldrb	r2, [r2, #0]
 8005b96:	e7f2      	b.n	8005b7e <UFCP_TX_IRQ_Handler+0x2c>
  __ASM volatile ("MRS %0, primask" : "=r" (result) :: "memory");
 8005b98:	f3ef 8210 	mrs	r2, PRIMASK
  __ASM volatile ("MSR primask, %0" : : "r" (priMask) : "memory");
 8005b9c:	2301      	movs	r3, #1
 8005b9e:	f383 8810 	msr	PRIMASK, r3
  ATOMIC_CLEAR_BIT(USARTx->CR1, USART_CR1_TXEIE);
 8005ba2:	2580      	movs	r5, #128	; 0x80
 8005ba4:	680b      	ldr	r3, [r1, #0]
 8005ba6:	43ab      	bics	r3, r5
 8005ba8:	600b      	str	r3, [r1, #0]
 8005baa:	f382 8810 	msr	PRIMASK, r2
      pBaseHandle->TxFrameState = FCP_TRANSFER_IDLE;
 8005bae:	2300      	movs	r3, #0
 8005bb0:	7023      	strb	r3, [r4, #0]
      pBaseHandle->ClientFrameSentCallback( pBaseHandle->ClientEntity );
 8005bb2:	c809      	ldmia	r0, {r0, r3}
 8005bb4:	4798      	blx	r3
}
 8005bb6:	e7ea      	b.n	8005b8e <UFCP_TX_IRQ_Handler+0x3c>

08005bb8 <UFCP_Receive>:

__weak uint8_t UFCP_Receive( FCP_Handle_t * pHandle )
{
  uint8_t ret_val;

  if ( FCP_TRANSFER_IDLE == pHandle->RxFrameState )
 8005bb8:	0002      	movs	r2, r0
 8005bba:	32ff      	adds	r2, #255	; 0xff
 8005bbc:	7f52      	ldrb	r2, [r2, #29]
{
 8005bbe:	0003      	movs	r3, r0
 8005bc0:	2001      	movs	r0, #1
  if ( FCP_TRANSFER_IDLE == pHandle->RxFrameState )
 8005bc2:	2a00      	cmp	r2, #0
 8005bc4:	d10f      	bne.n	8005be6 <UFCP_Receive+0x2e>
  {
    UFCP_Handle_t * pActualHandle = (UFCP_Handle_t *) pHandle;

    pHandle->RxFrameLevel = 0;
    pHandle->RxFrameState = FCP_TRANSFER_ONGOING;
 8005bc6:	001a      	movs	r2, r3
 8005bc8:	32fe      	adds	r2, #254	; 0xfe
 8005bca:	83d0      	strh	r0, [r2, #30]

    LL_USART_EnableIT_RXNE(pActualHandle->USARTx);
 8005bcc:	33fc      	adds	r3, #252	; 0xfc
 8005bce:	6a5a      	ldr	r2, [r3, #36]	; 0x24
  __ASM volatile ("MRS %0, primask" : "=r" (result) :: "memory");
 8005bd0:	f3ef 8110 	mrs	r1, PRIMASK
  __ASM volatile ("MSR primask, %0" : : "r" (priMask) : "memory");
 8005bd4:	f380 8810 	msr	PRIMASK, r0
  ATOMIC_SET_BIT(USARTx->CR1, USART_CR1_RXNEIE);
 8005bd8:	2320      	movs	r3, #32
 8005bda:	6810      	ldr	r0, [r2, #0]
 8005bdc:	4303      	orrs	r3, r0
 8005bde:	6013      	str	r3, [r2, #0]
 8005be0:	f381 8810 	msr	PRIMASK, r1
    ret_val = FCP_STATUS_WAITING_TRANSFER;
 8005be4:	2002      	movs	r0, #2
  {
    ret_val = FCP_STATUS_TRANSFER_ONGOING;
  }

  return ret_val;
}
 8005be6:	4770      	bx	lr

08005be8 <UFCP_Send>:

__weak uint8_t UFCP_Send( FCP_Handle_t * pHandle, uint8_t code, uint8_t *buffer, uint8_t size)
{
 8005be8:	b570      	push	{r4, r5, r6, lr}
  uint8_t ret_val;

  if ( FCP_TRANSFER_IDLE == pHandle->TxFrameState )
 8005bea:	0005      	movs	r5, r0
 8005bec:	3597      	adds	r5, #151	; 0x97
{
 8005bee:	000e      	movs	r6, r1
  if ( FCP_TRANSFER_IDLE == pHandle->TxFrameState )
 8005bf0:	7829      	ldrb	r1, [r5, #0]
{
 8005bf2:	0004      	movs	r4, r0
    LL_USART_EnableIT_TXE(pActualHandle->USARTx);
    ret_val = FCP_STATUS_WAITING_TRANSFER;
  }
  else
  {
    ret_val = FCP_STATUS_TRANSFER_ONGOING;
 8005bf4:	2001      	movs	r0, #1
  if ( FCP_TRANSFER_IDLE == pHandle->TxFrameState )
 8005bf6:	2900      	cmp	r1, #0
 8005bf8:	d11d      	bne.n	8005c36 <UFCP_Send+0x4e>
    while ( size-- ) *dest++ = *buffer++;
 8005bfa:	0020      	movs	r0, r4
    pHandle->TxFrame.Code = code;
 8005bfc:	7526      	strb	r6, [r4, #20]
    pHandle->TxFrame.Size = size;
 8005bfe:	7563      	strb	r3, [r4, #21]
    while ( size-- ) *dest++ = *buffer++;
 8005c00:	3016      	adds	r0, #22
 8005c02:	4299      	cmp	r1, r3
 8005c04:	d118      	bne.n	8005c38 <UFCP_Send+0x50>
    pHandle->TxFrame.FrameCRC = FCP_CalcCRC( & pHandle->TxFrame );
 8005c06:	0020      	movs	r0, r4
 8005c08:	3014      	adds	r0, #20
 8005c0a:	f7fe fc31 	bl	8004470 <FCP_CalcCRC>
 8005c0e:	0023      	movs	r3, r4
    pHandle->TxFrameLevel = 0;
 8005c10:	2200      	movs	r2, #0
    pHandle->TxFrame.FrameCRC = FCP_CalcCRC( & pHandle->TxFrame );
 8005c12:	3396      	adds	r3, #150	; 0x96
 8005c14:	7018      	strb	r0, [r3, #0]
    pHandle->TxFrameLevel = 0;
 8005c16:	709a      	strb	r2, [r3, #2]
    pHandle->TxFrameState = FCP_TRANSFER_ONGOING;
 8005c18:	2301      	movs	r3, #1
    LL_USART_EnableIT_TXE(pActualHandle->USARTx);
 8005c1a:	34fc      	adds	r4, #252	; 0xfc
    pHandle->TxFrameState = FCP_TRANSFER_ONGOING;
 8005c1c:	702b      	strb	r3, [r5, #0]
    LL_USART_EnableIT_TXE(pActualHandle->USARTx);
 8005c1e:	6a62      	ldr	r2, [r4, #36]	; 0x24
  __ASM volatile ("MRS %0, primask" : "=r" (result) :: "memory");
 8005c20:	f3ef 8110 	mrs	r1, PRIMASK
  __ASM volatile ("MSR primask, %0" : : "r" (priMask) : "memory");
 8005c24:	f383 8810 	msr	PRIMASK, r3
  ATOMIC_SET_BIT(USARTx->CR1, USART_CR1_TXEIE);
 8005c28:	6810      	ldr	r0, [r2, #0]
 8005c2a:	337f      	adds	r3, #127	; 0x7f
 8005c2c:	4303      	orrs	r3, r0
 8005c2e:	6013      	str	r3, [r2, #0]
 8005c30:	f381 8810 	msr	PRIMASK, r1
 8005c34:	2002      	movs	r0, #2
  }

  return ret_val;
}
 8005c36:	bd70      	pop	{r4, r5, r6, pc}
    while ( size-- ) *dest++ = *buffer++;
 8005c38:	5c56      	ldrb	r6, [r2, r1]
 8005c3a:	5446      	strb	r6, [r0, r1]
 8005c3c:	3101      	adds	r1, #1
 8005c3e:	e7e0      	b.n	8005c02 <UFCP_Send+0x1a>

08005c40 <UFCP_RX_IRQ_Handler>:
{
 8005c40:	b5f0      	push	{r4, r5, r6, r7, lr}
  if ( FCP_TRANSFER_IDLE != pBaseHandle->RxFrameState )
 8005c42:	0005      	movs	r5, r0
 8005c44:	35ff      	adds	r5, #255	; 0xff
 8005c46:	7f6b      	ldrb	r3, [r5, #29]
{
 8005c48:	0004      	movs	r4, r0
 8005c4a:	b085      	sub	sp, #20
  if ( FCP_TRANSFER_IDLE != pBaseHandle->RxFrameState )
 8005c4c:	2b00      	cmp	r3, #0
 8005c4e:	d101      	bne.n	8005c54 <UFCP_RX_IRQ_Handler+0x14>
  void * ret_val = (void *) & UFCP_Usart_Timeout_none;
 8005c50:	482b      	ldr	r0, [pc, #172]	; (8005d00 <UFCP_RX_IRQ_Handler+0xc0>)
 8005c52:	e018      	b.n	8005c86 <UFCP_RX_IRQ_Handler+0x46>
    switch ( pBaseHandle->RxFrameLevel )
 8005c54:	7fab      	ldrb	r3, [r5, #30]
    uint8_t rx_byte = (uint8_t) rx_data;
 8005c56:	b2ca      	uxtb	r2, r1
    switch ( pBaseHandle->RxFrameLevel )
 8005c58:	2b00      	cmp	r3, #0
 8005c5a:	d00c      	beq.n	8005c76 <UFCP_RX_IRQ_Handler+0x36>
 8005c5c:	0006      	movs	r6, r0
 8005c5e:	369a      	adds	r6, #154	; 0x9a
 8005c60:	2b01      	cmp	r3, #1
 8005c62:	d012      	beq.n	8005c8a <UFCP_RX_IRQ_Handler+0x4a>
        if ( pBaseHandle->RxFrameLevel < pBaseHandle->RxFrame.Size + FCP_HEADER_SIZE )
 8005c64:	7831      	ldrb	r1, [r6, #0]
 8005c66:	3101      	adds	r1, #1
 8005c68:	428b      	cmp	r3, r1
 8005c6a:	dc16      	bgt.n	8005c9a <UFCP_RX_IRQ_Handler+0x5a>
          pBaseHandle->RxFrame.Buffer[pBaseHandle->RxFrameLevel - FCP_HEADER_SIZE] = rx_byte;
 8005c6c:	18c4      	adds	r4, r0, r3
 8005c6e:	3499      	adds	r4, #153	; 0x99
 8005c70:	7022      	strb	r2, [r4, #0]
          pBaseHandle->RxFrameLevel++;
 8005c72:	3301      	adds	r3, #1
 8005c74:	e00d      	b.n	8005c92 <UFCP_RX_IRQ_Handler+0x52>
        pBaseHandle->RxFrame.Code = rx_byte;
 8005c76:	0003      	movs	r3, r0
 8005c78:	3399      	adds	r3, #153	; 0x99
 8005c7a:	701a      	strb	r2, [r3, #0]
        pBaseHandle->RxTimeoutCountdown = pBaseHandle->RxTimeout;
 8005c7c:	8a03      	ldrh	r3, [r0, #16]
 8005c7e:	8243      	strh	r3, [r0, #18]
        pBaseHandle->RxFrameLevel++;
 8005c80:	2301      	movs	r3, #1
        ret_val = (void *) & UFCP_Usart_Timeout_start;
 8005c82:	4820      	ldr	r0, [pc, #128]	; (8005d04 <UFCP_RX_IRQ_Handler+0xc4>)
        pBaseHandle->RxFrameLevel++;
 8005c84:	77ab      	strb	r3, [r5, #30]
}
 8005c86:	b005      	add	sp, #20
 8005c88:	bdf0      	pop	{r4, r5, r6, r7, pc}
        pBaseHandle->RxFrame.Size = rx_byte;
 8005c8a:	7032      	strb	r2, [r6, #0]
        if ( pBaseHandle->RxFrame.Size >= FCP_MAX_PAYLOAD_SIZE)
 8005c8c:	060b      	lsls	r3, r1, #24
 8005c8e:	d402      	bmi.n	8005c96 <UFCP_RX_IRQ_Handler+0x56>
        pBaseHandle->RxFrameLevel++;
 8005c90:	2302      	movs	r3, #2
          pBaseHandle->RxFrameLevel++;
 8005c92:	77ab      	strb	r3, [r5, #30]
 8005c94:	e7dc      	b.n	8005c50 <UFCP_RX_IRQ_Handler+0x10>
          pBaseHandle->RxFrameLevel =0 ;
 8005c96:	2300      	movs	r3, #0
 8005c98:	e7fb      	b.n	8005c92 <UFCP_RX_IRQ_Handler+0x52>
          pBaseHandle->RxTimeoutCountdown = 0;
 8005c9a:	2300      	movs	r3, #0
          pBaseHandle->RxFrame.FrameCRC = rx_byte;
 8005c9c:	772a      	strb	r2, [r5, #28]
          pBaseHandle->RxTimeoutCountdown = 0;
 8005c9e:	8243      	strh	r3, [r0, #18]
          LL_USART_DisableIT_RXNE(pHandle->USARTx);
 8005ca0:	0003      	movs	r3, r0
 8005ca2:	33fc      	adds	r3, #252	; 0xfc
 8005ca4:	6a59      	ldr	r1, [r3, #36]	; 0x24
  __ASM volatile ("MRS %0, primask" : "=r" (result) :: "memory");
 8005ca6:	f3ef 8010 	mrs	r0, PRIMASK
  __ASM volatile ("MSR primask, %0" : : "r" (priMask) : "memory");
 8005caa:	2701      	movs	r7, #1
 8005cac:	f387 8810 	msr	PRIMASK, r7
  ATOMIC_CLEAR_BIT(USARTx->CR1, USART_CR1_RXNEIE);
 8005cb0:	680b      	ldr	r3, [r1, #0]
 8005cb2:	001a      	movs	r2, r3
 8005cb4:	2320      	movs	r3, #32
 8005cb6:	439a      	bics	r2, r3
 8005cb8:	600a      	str	r2, [r1, #0]
 8005cba:	f380 8810 	msr	PRIMASK, r0
          pBaseHandle->RxFrameState = FCP_TRANSFER_IDLE;
 8005cbe:	2300      	movs	r3, #0
 8005cc0:	776b      	strb	r3, [r5, #29]
          if ( FCP_CalcCRC( & pBaseHandle->RxFrame ) == pBaseHandle->RxFrame.FrameCRC )
 8005cc2:	0023      	movs	r3, r4
 8005cc4:	3399      	adds	r3, #153	; 0x99
 8005cc6:	0018      	movs	r0, r3
 8005cc8:	9301      	str	r3, [sp, #4]
 8005cca:	f7fe fbd1 	bl	8004470 <FCP_CalcCRC>
 8005cce:	7f2b      	ldrb	r3, [r5, #28]
 8005cd0:	4d0d      	ldr	r5, [pc, #52]	; (8005d08 <UFCP_RX_IRQ_Handler+0xc8>)
 8005cd2:	4283      	cmp	r3, r0
 8005cd4:	d109      	bne.n	8005cea <UFCP_RX_IRQ_Handler+0xaa>
                                                      pBaseHandle->RxFrame.Buffer,
 8005cd6:	0022      	movs	r2, r4
            pBaseHandle->ClientFrameReceivedCallback( pBaseHandle->ClientEntity,
 8005cd8:	9901      	ldr	r1, [sp, #4]
 8005cda:	7833      	ldrb	r3, [r6, #0]
 8005cdc:	7809      	ldrb	r1, [r1, #0]
 8005cde:	68a6      	ldr	r6, [r4, #8]
 8005ce0:	6820      	ldr	r0, [r4, #0]
                                                      pBaseHandle->RxFrame.Buffer,
 8005ce2:	329b      	adds	r2, #155	; 0x9b
            pBaseHandle->ClientFrameReceivedCallback( pBaseHandle->ClientEntity,
 8005ce4:	47b0      	blx	r6
          ret_val = (void *) & UFCP_Usart_Timeout_stop;
 8005ce6:	0028      	movs	r0, r5
  return ret_val;
 8005ce8:	e7cd      	b.n	8005c86 <UFCP_RX_IRQ_Handler+0x46>
            error_code = FCP_MSG_RX_BAD_CRC;
 8005cea:	ab02      	add	r3, sp, #8
 8005cec:	1dda      	adds	r2, r3, #7
 8005cee:	230a      	movs	r3, #10
            (void) UFCP_Send( pBaseHandle, FCP_CODE_NACK, & error_code, 1 );
 8005cf0:	21ff      	movs	r1, #255	; 0xff
            error_code = FCP_MSG_RX_BAD_CRC;
 8005cf2:	7013      	strb	r3, [r2, #0]
            (void) UFCP_Send( pBaseHandle, FCP_CODE_NACK, & error_code, 1 );
 8005cf4:	0020      	movs	r0, r4
 8005cf6:	003b      	movs	r3, r7
 8005cf8:	f7ff ff76 	bl	8005be8 <UFCP_Send>
 8005cfc:	e7f3      	b.n	8005ce6 <UFCP_RX_IRQ_Handler+0xa6>
 8005cfe:	46c0      	nop			; (mov r8, r8)
 8005d00:	08006a52 	.word	0x08006a52
 8005d04:	08006a54 	.word	0x08006a54
 8005d08:	08006a56 	.word	0x08006a56

08005d0c <UFCP_OVR_IRQ_Handler>:
{
 8005d0c:	b507      	push	{r0, r1, r2, lr}
  error_code = UFCP_MSG_OVERRUN;
 8005d0e:	466b      	mov	r3, sp
 8005d10:	1dda      	adds	r2, r3, #7
 8005d12:	2308      	movs	r3, #8
  (void) UFCP_Send( pBaseHandle, FCP_CODE_NACK, & error_code, 1 );
 8005d14:	21ff      	movs	r1, #255	; 0xff
  error_code = UFCP_MSG_OVERRUN;
 8005d16:	7013      	strb	r3, [r2, #0]
  (void) UFCP_Send( pBaseHandle, FCP_CODE_NACK, & error_code, 1 );
 8005d18:	3b07      	subs	r3, #7
 8005d1a:	f7ff ff65 	bl	8005be8 <UFCP_Send>
}
 8005d1e:	bd07      	pop	{r0, r1, r2, pc}

08005d20 <UFCP_AbortReceive>:

__weak void UFCP_AbortReceive( FCP_Handle_t * pHandle )
{
  pHandle->RxFrameState = FCP_TRANSFER_IDLE;
 8005d20:	2300      	movs	r3, #0
 8005d22:	30ff      	adds	r0, #255	; 0xff
 8005d24:	7743      	strb	r3, [r0, #29]
}
 8005d26:	4770      	bx	lr

08005d28 <RUC_SetPhaseDurationms>:
 8005d28:	004b      	lsls	r3, r1, #1
 8005d2a:	1859      	adds	r1, r3, r1
 8005d2c:	0089      	lsls	r1, r1, #2
 8005d2e:	1841      	adds	r1, r0, r1
 8005d30:	818a      	strh	r2, [r1, #12]
 8005d32:	4770      	bx	lr

08005d34 <RUC_SetPhaseFinalMecSpeedUnit>:
 8005d34:	004b      	lsls	r3, r1, #1
 8005d36:	1859      	adds	r1, r3, r1
 8005d38:	0089      	lsls	r1, r1, #2
 8005d3a:	1841      	adds	r1, r0, r1
 8005d3c:	81ca      	strh	r2, [r1, #14]
 8005d3e:	4770      	bx	lr

08005d40 <RUC_SetPhaseFinalTorque>:
 8005d40:	004b      	lsls	r3, r1, #1
 8005d42:	1859      	adds	r1, r3, r1
 8005d44:	0089      	lsls	r1, r1, #2
 8005d46:	1841      	adds	r1, r0, r1
 8005d48:	820a      	strh	r2, [r1, #16]
 8005d4a:	4770      	bx	lr

08005d4c <RUC_GetPhaseDurationms>:
 8005d4c:	004b      	lsls	r3, r1, #1
 8005d4e:	1859      	adds	r1, r3, r1
 8005d50:	0089      	lsls	r1, r1, #2
 8005d52:	1841      	adds	r1, r0, r1
 8005d54:	8988      	ldrh	r0, [r1, #12]
 8005d56:	4770      	bx	lr

08005d58 <RUC_GetPhaseFinalMecSpeedUnit>:
 8005d58:	004b      	lsls	r3, r1, #1
 8005d5a:	1859      	adds	r1, r3, r1
 8005d5c:	0089      	lsls	r1, r1, #2
 8005d5e:	1841      	adds	r1, r0, r1
 8005d60:	230e      	movs	r3, #14
 8005d62:	5ec8      	ldrsh	r0, [r1, r3]
 8005d64:	4770      	bx	lr
 8005d66:	46c0      	nop			; (mov r8, r8)

08005d68 <RUC_GetPhaseFinalTorque>:
 8005d68:	004b      	lsls	r3, r1, #1
 8005d6a:	1859      	adds	r1, r3, r1
 8005d6c:	0089      	lsls	r1, r1, #2
 8005d6e:	1841      	adds	r1, r0, r1
 8005d70:	2310      	movs	r3, #16
 8005d72:	5ec8      	ldrsh	r0, [r1, r3]
 8005d74:	4770      	bx	lr
 8005d76:	46c0      	nop			; (mov r8, r8)

08005d78 <RUC_GetNumberOfPhases>:
 8005d78:	2348      	movs	r3, #72	; 0x48
 8005d7a:	5cc0      	ldrb	r0, [r0, r3]
 8005d7c:	4770      	bx	lr
 8005d7e:	46c0      	nop			; (mov r8, r8)

08005d80 <FD_Init>:
 8005d80:	2300      	movs	r3, #0
 8005d82:	7003      	strb	r3, [r0, #0]
 8005d84:	6043      	str	r3, [r0, #4]
 8005d86:	6083      	str	r3, [r0, #8]
 8005d88:	60c3      	str	r3, [r0, #12]
 8005d8a:	6103      	str	r3, [r0, #16]
 8005d8c:	6143      	str	r3, [r0, #20]
 8005d8e:	6183      	str	r3, [r0, #24]
 8005d90:	61c3      	str	r3, [r0, #28]
 8005d92:	6203      	str	r3, [r0, #32]
 8005d94:	6243      	str	r3, [r0, #36]	; 0x24
 8005d96:	6283      	str	r3, [r0, #40]	; 0x28
 8005d98:	62c3      	str	r3, [r0, #44]	; 0x2c
 8005d9a:	6303      	str	r3, [r0, #48]	; 0x30
 8005d9c:	6343      	str	r3, [r0, #52]	; 0x34
 8005d9e:	6383      	str	r3, [r0, #56]	; 0x38
 8005da0:	63c3      	str	r3, [r0, #60]	; 0x3c
 8005da2:	4770      	bx	lr

08005da4 <__errno>:
 8005da4:	4b01      	ldr	r3, [pc, #4]	; (8005dac <__errno+0x8>)
 8005da6:	6818      	ldr	r0, [r3, #0]
 8005da8:	4770      	bx	lr
 8005daa:	46c0      	nop			; (mov r8, r8)
 8005dac:	20000630 	.word	0x20000630

08005db0 <__libc_init_array>:
 8005db0:	b570      	push	{r4, r5, r6, lr}
 8005db2:	2600      	movs	r6, #0
 8005db4:	4d0c      	ldr	r5, [pc, #48]	; (8005de8 <__libc_init_array+0x38>)
 8005db6:	4c0d      	ldr	r4, [pc, #52]	; (8005dec <__libc_init_array+0x3c>)
 8005db8:	1b64      	subs	r4, r4, r5
 8005dba:	10a4      	asrs	r4, r4, #2
 8005dbc:	42a6      	cmp	r6, r4
 8005dbe:	d109      	bne.n	8005dd4 <__libc_init_array+0x24>
 8005dc0:	2600      	movs	r6, #0
 8005dc2:	f000 fc8b 	bl	80066dc <_init>
 8005dc6:	4d0a      	ldr	r5, [pc, #40]	; (8005df0 <__libc_init_array+0x40>)
 8005dc8:	4c0a      	ldr	r4, [pc, #40]	; (8005df4 <__libc_init_array+0x44>)
 8005dca:	1b64      	subs	r4, r4, r5
 8005dcc:	10a4      	asrs	r4, r4, #2
 8005dce:	42a6      	cmp	r6, r4
 8005dd0:	d105      	bne.n	8005dde <__libc_init_array+0x2e>
 8005dd2:	bd70      	pop	{r4, r5, r6, pc}
 8005dd4:	00b3      	lsls	r3, r6, #2
 8005dd6:	58eb      	ldr	r3, [r5, r3]
 8005dd8:	4798      	blx	r3
 8005dda:	3601      	adds	r6, #1
 8005ddc:	e7ee      	b.n	8005dbc <__libc_init_array+0xc>
 8005dde:	00b3      	lsls	r3, r6, #2
 8005de0:	58eb      	ldr	r3, [r5, r3]
 8005de2:	4798      	blx	r3
 8005de4:	3601      	adds	r6, #1
 8005de6:	e7f2      	b.n	8005dce <__libc_init_array+0x1e>
 8005de8:	08006a8c 	.word	0x08006a8c
 8005dec:	08006a8c 	.word	0x08006a8c
 8005df0:	08006a8c 	.word	0x08006a8c
 8005df4:	08006a90 	.word	0x08006a90

08005df8 <memcpy>:
 8005df8:	2300      	movs	r3, #0
 8005dfa:	b510      	push	{r4, lr}
 8005dfc:	429a      	cmp	r2, r3
 8005dfe:	d100      	bne.n	8005e02 <memcpy+0xa>
 8005e00:	bd10      	pop	{r4, pc}
 8005e02:	5ccc      	ldrb	r4, [r1, r3]
 8005e04:	54c4      	strb	r4, [r0, r3]
 8005e06:	3301      	adds	r3, #1
 8005e08:	e7f8      	b.n	8005dfc <memcpy+0x4>

08005e0a <memset>:
 8005e0a:	0003      	movs	r3, r0
 8005e0c:	1882      	adds	r2, r0, r2
 8005e0e:	4293      	cmp	r3, r2
 8005e10:	d100      	bne.n	8005e14 <memset+0xa>
 8005e12:	4770      	bx	lr
 8005e14:	7019      	strb	r1, [r3, #0]
 8005e16:	3301      	adds	r3, #1
 8005e18:	e7f9      	b.n	8005e0e <memset+0x4>
	...

08005e1c <siprintf>:
 8005e1c:	b40e      	push	{r1, r2, r3}
 8005e1e:	b500      	push	{lr}
 8005e20:	490b      	ldr	r1, [pc, #44]	; (8005e50 <siprintf+0x34>)
 8005e22:	b09c      	sub	sp, #112	; 0x70
 8005e24:	ab1d      	add	r3, sp, #116	; 0x74
 8005e26:	9002      	str	r0, [sp, #8]
 8005e28:	9006      	str	r0, [sp, #24]
 8005e2a:	9107      	str	r1, [sp, #28]
 8005e2c:	9104      	str	r1, [sp, #16]
 8005e2e:	4809      	ldr	r0, [pc, #36]	; (8005e54 <siprintf+0x38>)
 8005e30:	4909      	ldr	r1, [pc, #36]	; (8005e58 <siprintf+0x3c>)
 8005e32:	cb04      	ldmia	r3!, {r2}
 8005e34:	9105      	str	r1, [sp, #20]
 8005e36:	6800      	ldr	r0, [r0, #0]
 8005e38:	a902      	add	r1, sp, #8
 8005e3a:	9301      	str	r3, [sp, #4]
 8005e3c:	f000 f870 	bl	8005f20 <_svfiprintf_r>
 8005e40:	2300      	movs	r3, #0
 8005e42:	9a02      	ldr	r2, [sp, #8]
 8005e44:	7013      	strb	r3, [r2, #0]
 8005e46:	b01c      	add	sp, #112	; 0x70
 8005e48:	bc08      	pop	{r3}
 8005e4a:	b003      	add	sp, #12
 8005e4c:	4718      	bx	r3
 8005e4e:	46c0      	nop			; (mov r8, r8)
 8005e50:	7fffffff 	.word	0x7fffffff
 8005e54:	20000630 	.word	0x20000630
 8005e58:	ffff0208 	.word	0xffff0208

08005e5c <__ssputs_r>:
 8005e5c:	b5f0      	push	{r4, r5, r6, r7, lr}
 8005e5e:	688e      	ldr	r6, [r1, #8]
 8005e60:	b085      	sub	sp, #20
 8005e62:	0007      	movs	r7, r0
 8005e64:	000c      	movs	r4, r1
 8005e66:	9203      	str	r2, [sp, #12]
 8005e68:	9301      	str	r3, [sp, #4]
 8005e6a:	429e      	cmp	r6, r3
 8005e6c:	d83c      	bhi.n	8005ee8 <__ssputs_r+0x8c>
 8005e6e:	2390      	movs	r3, #144	; 0x90
 8005e70:	898a      	ldrh	r2, [r1, #12]
 8005e72:	00db      	lsls	r3, r3, #3
 8005e74:	421a      	tst	r2, r3
 8005e76:	d034      	beq.n	8005ee2 <__ssputs_r+0x86>
 8005e78:	6909      	ldr	r1, [r1, #16]
 8005e7a:	6823      	ldr	r3, [r4, #0]
 8005e7c:	6960      	ldr	r0, [r4, #20]
 8005e7e:	1a5b      	subs	r3, r3, r1
 8005e80:	9302      	str	r3, [sp, #8]
 8005e82:	2303      	movs	r3, #3
 8005e84:	4343      	muls	r3, r0
 8005e86:	0fdd      	lsrs	r5, r3, #31
 8005e88:	18ed      	adds	r5, r5, r3
 8005e8a:	9b01      	ldr	r3, [sp, #4]
 8005e8c:	9802      	ldr	r0, [sp, #8]
 8005e8e:	3301      	adds	r3, #1
 8005e90:	181b      	adds	r3, r3, r0
 8005e92:	106d      	asrs	r5, r5, #1
 8005e94:	42ab      	cmp	r3, r5
 8005e96:	d900      	bls.n	8005e9a <__ssputs_r+0x3e>
 8005e98:	001d      	movs	r5, r3
 8005e9a:	0553      	lsls	r3, r2, #21
 8005e9c:	d532      	bpl.n	8005f04 <__ssputs_r+0xa8>
 8005e9e:	0029      	movs	r1, r5
 8005ea0:	0038      	movs	r0, r7
 8005ea2:	f000 fb49 	bl	8006538 <_malloc_r>
 8005ea6:	1e06      	subs	r6, r0, #0
 8005ea8:	d109      	bne.n	8005ebe <__ssputs_r+0x62>
 8005eaa:	230c      	movs	r3, #12
 8005eac:	603b      	str	r3, [r7, #0]
 8005eae:	2340      	movs	r3, #64	; 0x40
 8005eb0:	2001      	movs	r0, #1
 8005eb2:	89a2      	ldrh	r2, [r4, #12]
 8005eb4:	4240      	negs	r0, r0
 8005eb6:	4313      	orrs	r3, r2
 8005eb8:	81a3      	strh	r3, [r4, #12]
 8005eba:	b005      	add	sp, #20
 8005ebc:	bdf0      	pop	{r4, r5, r6, r7, pc}
 8005ebe:	9a02      	ldr	r2, [sp, #8]
 8005ec0:	6921      	ldr	r1, [r4, #16]
 8005ec2:	f7ff ff99 	bl	8005df8 <memcpy>
 8005ec6:	89a3      	ldrh	r3, [r4, #12]
 8005ec8:	4a14      	ldr	r2, [pc, #80]	; (8005f1c <__ssputs_r+0xc0>)
 8005eca:	401a      	ands	r2, r3
 8005ecc:	2380      	movs	r3, #128	; 0x80
 8005ece:	4313      	orrs	r3, r2
 8005ed0:	81a3      	strh	r3, [r4, #12]
 8005ed2:	9b02      	ldr	r3, [sp, #8]
 8005ed4:	6126      	str	r6, [r4, #16]
 8005ed6:	18f6      	adds	r6, r6, r3
 8005ed8:	6026      	str	r6, [r4, #0]
 8005eda:	6165      	str	r5, [r4, #20]
 8005edc:	9e01      	ldr	r6, [sp, #4]
 8005ede:	1aed      	subs	r5, r5, r3
 8005ee0:	60a5      	str	r5, [r4, #8]
 8005ee2:	9b01      	ldr	r3, [sp, #4]
 8005ee4:	429e      	cmp	r6, r3
 8005ee6:	d900      	bls.n	8005eea <__ssputs_r+0x8e>
 8005ee8:	9e01      	ldr	r6, [sp, #4]
 8005eea:	0032      	movs	r2, r6
 8005eec:	9903      	ldr	r1, [sp, #12]
 8005eee:	6820      	ldr	r0, [r4, #0]
 8005ef0:	f000 faa3 	bl	800643a <memmove>
 8005ef4:	68a3      	ldr	r3, [r4, #8]
 8005ef6:	2000      	movs	r0, #0
 8005ef8:	1b9b      	subs	r3, r3, r6
 8005efa:	60a3      	str	r3, [r4, #8]
 8005efc:	6823      	ldr	r3, [r4, #0]
 8005efe:	199e      	adds	r6, r3, r6
 8005f00:	6026      	str	r6, [r4, #0]
 8005f02:	e7da      	b.n	8005eba <__ssputs_r+0x5e>
 8005f04:	002a      	movs	r2, r5
 8005f06:	0038      	movs	r0, r7
 8005f08:	f000 fb8c 	bl	8006624 <_realloc_r>
 8005f0c:	1e06      	subs	r6, r0, #0
 8005f0e:	d1e0      	bne.n	8005ed2 <__ssputs_r+0x76>
 8005f10:	0038      	movs	r0, r7
 8005f12:	6921      	ldr	r1, [r4, #16]
 8005f14:	f000 faa4 	bl	8006460 <_free_r>
 8005f18:	e7c7      	b.n	8005eaa <__ssputs_r+0x4e>
 8005f1a:	46c0      	nop			; (mov r8, r8)
 8005f1c:	fffffb7f 	.word	0xfffffb7f

08005f20 <_svfiprintf_r>:
 8005f20:	b5f0      	push	{r4, r5, r6, r7, lr}
 8005f22:	b0a1      	sub	sp, #132	; 0x84
 8005f24:	9003      	str	r0, [sp, #12]
 8005f26:	001d      	movs	r5, r3
 8005f28:	898b      	ldrh	r3, [r1, #12]
 8005f2a:	000f      	movs	r7, r1
 8005f2c:	0016      	movs	r6, r2
 8005f2e:	061b      	lsls	r3, r3, #24
 8005f30:	d511      	bpl.n	8005f56 <_svfiprintf_r+0x36>
 8005f32:	690b      	ldr	r3, [r1, #16]
 8005f34:	2b00      	cmp	r3, #0
 8005f36:	d10e      	bne.n	8005f56 <_svfiprintf_r+0x36>
 8005f38:	2140      	movs	r1, #64	; 0x40
 8005f3a:	f000 fafd 	bl	8006538 <_malloc_r>
 8005f3e:	6038      	str	r0, [r7, #0]
 8005f40:	6138      	str	r0, [r7, #16]
 8005f42:	2800      	cmp	r0, #0
 8005f44:	d105      	bne.n	8005f52 <_svfiprintf_r+0x32>
 8005f46:	230c      	movs	r3, #12
 8005f48:	9a03      	ldr	r2, [sp, #12]
 8005f4a:	3801      	subs	r0, #1
 8005f4c:	6013      	str	r3, [r2, #0]
 8005f4e:	b021      	add	sp, #132	; 0x84
 8005f50:	bdf0      	pop	{r4, r5, r6, r7, pc}
 8005f52:	2340      	movs	r3, #64	; 0x40
 8005f54:	617b      	str	r3, [r7, #20]
 8005f56:	2300      	movs	r3, #0
 8005f58:	ac08      	add	r4, sp, #32
 8005f5a:	6163      	str	r3, [r4, #20]
 8005f5c:	3320      	adds	r3, #32
 8005f5e:	7663      	strb	r3, [r4, #25]
 8005f60:	3310      	adds	r3, #16
 8005f62:	76a3      	strb	r3, [r4, #26]
 8005f64:	9507      	str	r5, [sp, #28]
 8005f66:	0035      	movs	r5, r6
 8005f68:	782b      	ldrb	r3, [r5, #0]
 8005f6a:	2b00      	cmp	r3, #0
 8005f6c:	d001      	beq.n	8005f72 <_svfiprintf_r+0x52>
 8005f6e:	2b25      	cmp	r3, #37	; 0x25
 8005f70:	d147      	bne.n	8006002 <_svfiprintf_r+0xe2>
 8005f72:	1bab      	subs	r3, r5, r6
 8005f74:	9305      	str	r3, [sp, #20]
 8005f76:	42b5      	cmp	r5, r6
 8005f78:	d00c      	beq.n	8005f94 <_svfiprintf_r+0x74>
 8005f7a:	0032      	movs	r2, r6
 8005f7c:	0039      	movs	r1, r7
 8005f7e:	9803      	ldr	r0, [sp, #12]
 8005f80:	f7ff ff6c 	bl	8005e5c <__ssputs_r>
 8005f84:	1c43      	adds	r3, r0, #1
 8005f86:	d100      	bne.n	8005f8a <_svfiprintf_r+0x6a>
 8005f88:	e0ae      	b.n	80060e8 <_svfiprintf_r+0x1c8>
 8005f8a:	6962      	ldr	r2, [r4, #20]
 8005f8c:	9b05      	ldr	r3, [sp, #20]
 8005f8e:	4694      	mov	ip, r2
 8005f90:	4463      	add	r3, ip
 8005f92:	6163      	str	r3, [r4, #20]
 8005f94:	782b      	ldrb	r3, [r5, #0]
 8005f96:	2b00      	cmp	r3, #0
 8005f98:	d100      	bne.n	8005f9c <_svfiprintf_r+0x7c>
 8005f9a:	e0a5      	b.n	80060e8 <_svfiprintf_r+0x1c8>
 8005f9c:	2201      	movs	r2, #1
 8005f9e:	2300      	movs	r3, #0
 8005fa0:	4252      	negs	r2, r2
 8005fa2:	6062      	str	r2, [r4, #4]
 8005fa4:	a904      	add	r1, sp, #16
 8005fa6:	3254      	adds	r2, #84	; 0x54
 8005fa8:	1852      	adds	r2, r2, r1
 8005faa:	1c6e      	adds	r6, r5, #1
 8005fac:	6023      	str	r3, [r4, #0]
 8005fae:	60e3      	str	r3, [r4, #12]
 8005fb0:	60a3      	str	r3, [r4, #8]
 8005fb2:	7013      	strb	r3, [r2, #0]
 8005fb4:	65a3      	str	r3, [r4, #88]	; 0x58
 8005fb6:	2205      	movs	r2, #5
 8005fb8:	7831      	ldrb	r1, [r6, #0]
 8005fba:	4854      	ldr	r0, [pc, #336]	; (800610c <_svfiprintf_r+0x1ec>)
 8005fbc:	f000 fa32 	bl	8006424 <memchr>
 8005fc0:	1c75      	adds	r5, r6, #1
 8005fc2:	2800      	cmp	r0, #0
 8005fc4:	d11f      	bne.n	8006006 <_svfiprintf_r+0xe6>
 8005fc6:	6822      	ldr	r2, [r4, #0]
 8005fc8:	06d3      	lsls	r3, r2, #27
 8005fca:	d504      	bpl.n	8005fd6 <_svfiprintf_r+0xb6>
 8005fcc:	2353      	movs	r3, #83	; 0x53
 8005fce:	a904      	add	r1, sp, #16
 8005fd0:	185b      	adds	r3, r3, r1
 8005fd2:	2120      	movs	r1, #32
 8005fd4:	7019      	strb	r1, [r3, #0]
 8005fd6:	0713      	lsls	r3, r2, #28
 8005fd8:	d504      	bpl.n	8005fe4 <_svfiprintf_r+0xc4>
 8005fda:	2353      	movs	r3, #83	; 0x53
 8005fdc:	a904      	add	r1, sp, #16
 8005fde:	185b      	adds	r3, r3, r1
 8005fe0:	212b      	movs	r1, #43	; 0x2b
 8005fe2:	7019      	strb	r1, [r3, #0]
 8005fe4:	7833      	ldrb	r3, [r6, #0]
 8005fe6:	2b2a      	cmp	r3, #42	; 0x2a
 8005fe8:	d016      	beq.n	8006018 <_svfiprintf_r+0xf8>
 8005fea:	0035      	movs	r5, r6
 8005fec:	2100      	movs	r1, #0
 8005fee:	200a      	movs	r0, #10
 8005ff0:	68e3      	ldr	r3, [r4, #12]
 8005ff2:	782a      	ldrb	r2, [r5, #0]
 8005ff4:	1c6e      	adds	r6, r5, #1
 8005ff6:	3a30      	subs	r2, #48	; 0x30
 8005ff8:	2a09      	cmp	r2, #9
 8005ffa:	d94e      	bls.n	800609a <_svfiprintf_r+0x17a>
 8005ffc:	2900      	cmp	r1, #0
 8005ffe:	d111      	bne.n	8006024 <_svfiprintf_r+0x104>
 8006000:	e017      	b.n	8006032 <_svfiprintf_r+0x112>
 8006002:	3501      	adds	r5, #1
 8006004:	e7b0      	b.n	8005f68 <_svfiprintf_r+0x48>
 8006006:	4b41      	ldr	r3, [pc, #260]	; (800610c <_svfiprintf_r+0x1ec>)
 8006008:	6822      	ldr	r2, [r4, #0]
 800600a:	1ac0      	subs	r0, r0, r3
 800600c:	2301      	movs	r3, #1
 800600e:	4083      	lsls	r3, r0
 8006010:	4313      	orrs	r3, r2
 8006012:	002e      	movs	r6, r5
 8006014:	6023      	str	r3, [r4, #0]
 8006016:	e7ce      	b.n	8005fb6 <_svfiprintf_r+0x96>
 8006018:	9b07      	ldr	r3, [sp, #28]
 800601a:	1d19      	adds	r1, r3, #4
 800601c:	681b      	ldr	r3, [r3, #0]
 800601e:	9107      	str	r1, [sp, #28]
 8006020:	2b00      	cmp	r3, #0
 8006022:	db01      	blt.n	8006028 <_svfiprintf_r+0x108>
 8006024:	930b      	str	r3, [sp, #44]	; 0x2c
 8006026:	e004      	b.n	8006032 <_svfiprintf_r+0x112>
 8006028:	425b      	negs	r3, r3
 800602a:	60e3      	str	r3, [r4, #12]
 800602c:	2302      	movs	r3, #2
 800602e:	4313      	orrs	r3, r2
 8006030:	6023      	str	r3, [r4, #0]
 8006032:	782b      	ldrb	r3, [r5, #0]
 8006034:	2b2e      	cmp	r3, #46	; 0x2e
 8006036:	d10a      	bne.n	800604e <_svfiprintf_r+0x12e>
 8006038:	786b      	ldrb	r3, [r5, #1]
 800603a:	2b2a      	cmp	r3, #42	; 0x2a
 800603c:	d135      	bne.n	80060aa <_svfiprintf_r+0x18a>
 800603e:	9b07      	ldr	r3, [sp, #28]
 8006040:	3502      	adds	r5, #2
 8006042:	1d1a      	adds	r2, r3, #4
 8006044:	681b      	ldr	r3, [r3, #0]
 8006046:	9207      	str	r2, [sp, #28]
 8006048:	2b00      	cmp	r3, #0
 800604a:	db2b      	blt.n	80060a4 <_svfiprintf_r+0x184>
 800604c:	9309      	str	r3, [sp, #36]	; 0x24
 800604e:	4e30      	ldr	r6, [pc, #192]	; (8006110 <_svfiprintf_r+0x1f0>)
 8006050:	2203      	movs	r2, #3
 8006052:	0030      	movs	r0, r6
 8006054:	7829      	ldrb	r1, [r5, #0]
 8006056:	f000 f9e5 	bl	8006424 <memchr>
 800605a:	2800      	cmp	r0, #0
 800605c:	d006      	beq.n	800606c <_svfiprintf_r+0x14c>
 800605e:	2340      	movs	r3, #64	; 0x40
 8006060:	1b80      	subs	r0, r0, r6
 8006062:	4083      	lsls	r3, r0
 8006064:	6822      	ldr	r2, [r4, #0]
 8006066:	3501      	adds	r5, #1
 8006068:	4313      	orrs	r3, r2
 800606a:	6023      	str	r3, [r4, #0]
 800606c:	7829      	ldrb	r1, [r5, #0]
 800606e:	2206      	movs	r2, #6
 8006070:	4828      	ldr	r0, [pc, #160]	; (8006114 <_svfiprintf_r+0x1f4>)
 8006072:	1c6e      	adds	r6, r5, #1
 8006074:	7621      	strb	r1, [r4, #24]
 8006076:	f000 f9d5 	bl	8006424 <memchr>
 800607a:	2800      	cmp	r0, #0
 800607c:	d03c      	beq.n	80060f8 <_svfiprintf_r+0x1d8>
 800607e:	4b26      	ldr	r3, [pc, #152]	; (8006118 <_svfiprintf_r+0x1f8>)
 8006080:	2b00      	cmp	r3, #0
 8006082:	d125      	bne.n	80060d0 <_svfiprintf_r+0x1b0>
 8006084:	2207      	movs	r2, #7
 8006086:	9b07      	ldr	r3, [sp, #28]
 8006088:	3307      	adds	r3, #7
 800608a:	4393      	bics	r3, r2
 800608c:	3308      	adds	r3, #8
 800608e:	9307      	str	r3, [sp, #28]
 8006090:	6963      	ldr	r3, [r4, #20]
 8006092:	9a04      	ldr	r2, [sp, #16]
 8006094:	189b      	adds	r3, r3, r2
 8006096:	6163      	str	r3, [r4, #20]
 8006098:	e765      	b.n	8005f66 <_svfiprintf_r+0x46>
 800609a:	4343      	muls	r3, r0
 800609c:	0035      	movs	r5, r6
 800609e:	2101      	movs	r1, #1
 80060a0:	189b      	adds	r3, r3, r2
 80060a2:	e7a6      	b.n	8005ff2 <_svfiprintf_r+0xd2>
 80060a4:	2301      	movs	r3, #1
 80060a6:	425b      	negs	r3, r3
 80060a8:	e7d0      	b.n	800604c <_svfiprintf_r+0x12c>
 80060aa:	2300      	movs	r3, #0
 80060ac:	200a      	movs	r0, #10
 80060ae:	001a      	movs	r2, r3
 80060b0:	3501      	adds	r5, #1
 80060b2:	6063      	str	r3, [r4, #4]
 80060b4:	7829      	ldrb	r1, [r5, #0]
 80060b6:	1c6e      	adds	r6, r5, #1
 80060b8:	3930      	subs	r1, #48	; 0x30
 80060ba:	2909      	cmp	r1, #9
 80060bc:	d903      	bls.n	80060c6 <_svfiprintf_r+0x1a6>
 80060be:	2b00      	cmp	r3, #0
 80060c0:	d0c5      	beq.n	800604e <_svfiprintf_r+0x12e>
 80060c2:	9209      	str	r2, [sp, #36]	; 0x24
 80060c4:	e7c3      	b.n	800604e <_svfiprintf_r+0x12e>
 80060c6:	4342      	muls	r2, r0
 80060c8:	0035      	movs	r5, r6
 80060ca:	2301      	movs	r3, #1
 80060cc:	1852      	adds	r2, r2, r1
 80060ce:	e7f1      	b.n	80060b4 <_svfiprintf_r+0x194>
 80060d0:	ab07      	add	r3, sp, #28
 80060d2:	9300      	str	r3, [sp, #0]
 80060d4:	003a      	movs	r2, r7
 80060d6:	0021      	movs	r1, r4
 80060d8:	4b10      	ldr	r3, [pc, #64]	; (800611c <_svfiprintf_r+0x1fc>)
 80060da:	9803      	ldr	r0, [sp, #12]
 80060dc:	e000      	b.n	80060e0 <_svfiprintf_r+0x1c0>
 80060de:	bf00      	nop
 80060e0:	9004      	str	r0, [sp, #16]
 80060e2:	9b04      	ldr	r3, [sp, #16]
 80060e4:	3301      	adds	r3, #1
 80060e6:	d1d3      	bne.n	8006090 <_svfiprintf_r+0x170>
 80060e8:	89bb      	ldrh	r3, [r7, #12]
 80060ea:	980d      	ldr	r0, [sp, #52]	; 0x34
 80060ec:	065b      	lsls	r3, r3, #25
 80060ee:	d400      	bmi.n	80060f2 <_svfiprintf_r+0x1d2>
 80060f0:	e72d      	b.n	8005f4e <_svfiprintf_r+0x2e>
 80060f2:	2001      	movs	r0, #1
 80060f4:	4240      	negs	r0, r0
 80060f6:	e72a      	b.n	8005f4e <_svfiprintf_r+0x2e>
 80060f8:	ab07      	add	r3, sp, #28
 80060fa:	9300      	str	r3, [sp, #0]
 80060fc:	003a      	movs	r2, r7
 80060fe:	0021      	movs	r1, r4
 8006100:	4b06      	ldr	r3, [pc, #24]	; (800611c <_svfiprintf_r+0x1fc>)
 8006102:	9803      	ldr	r0, [sp, #12]
 8006104:	f000 f87c 	bl	8006200 <_printf_i>
 8006108:	e7ea      	b.n	80060e0 <_svfiprintf_r+0x1c0>
 800610a:	46c0      	nop			; (mov r8, r8)
 800610c:	08006a58 	.word	0x08006a58
 8006110:	08006a5e 	.word	0x08006a5e
 8006114:	08006a62 	.word	0x08006a62
 8006118:	00000000 	.word	0x00000000
 800611c:	08005e5d 	.word	0x08005e5d

08006120 <_printf_common>:
 8006120:	b5f7      	push	{r0, r1, r2, r4, r5, r6, r7, lr}
 8006122:	0015      	movs	r5, r2
 8006124:	9301      	str	r3, [sp, #4]
 8006126:	688a      	ldr	r2, [r1, #8]
 8006128:	690b      	ldr	r3, [r1, #16]
 800612a:	000c      	movs	r4, r1
 800612c:	9000      	str	r0, [sp, #0]
 800612e:	4293      	cmp	r3, r2
 8006130:	da00      	bge.n	8006134 <_printf_common+0x14>
 8006132:	0013      	movs	r3, r2
 8006134:	0022      	movs	r2, r4
 8006136:	602b      	str	r3, [r5, #0]
 8006138:	3243      	adds	r2, #67	; 0x43
 800613a:	7812      	ldrb	r2, [r2, #0]
 800613c:	2a00      	cmp	r2, #0
 800613e:	d001      	beq.n	8006144 <_printf_common+0x24>
 8006140:	3301      	adds	r3, #1
 8006142:	602b      	str	r3, [r5, #0]
 8006144:	6823      	ldr	r3, [r4, #0]
 8006146:	069b      	lsls	r3, r3, #26
 8006148:	d502      	bpl.n	8006150 <_printf_common+0x30>
 800614a:	682b      	ldr	r3, [r5, #0]
 800614c:	3302      	adds	r3, #2
 800614e:	602b      	str	r3, [r5, #0]
 8006150:	6822      	ldr	r2, [r4, #0]
 8006152:	2306      	movs	r3, #6
 8006154:	0017      	movs	r7, r2
 8006156:	401f      	ands	r7, r3
 8006158:	421a      	tst	r2, r3
 800615a:	d027      	beq.n	80061ac <_printf_common+0x8c>
 800615c:	0023      	movs	r3, r4
 800615e:	3343      	adds	r3, #67	; 0x43
 8006160:	781b      	ldrb	r3, [r3, #0]
 8006162:	1e5a      	subs	r2, r3, #1
 8006164:	4193      	sbcs	r3, r2
 8006166:	6822      	ldr	r2, [r4, #0]
 8006168:	0692      	lsls	r2, r2, #26
 800616a:	d430      	bmi.n	80061ce <_printf_common+0xae>
 800616c:	0022      	movs	r2, r4
 800616e:	9901      	ldr	r1, [sp, #4]
 8006170:	9800      	ldr	r0, [sp, #0]
 8006172:	9e08      	ldr	r6, [sp, #32]
 8006174:	3243      	adds	r2, #67	; 0x43
 8006176:	47b0      	blx	r6
 8006178:	1c43      	adds	r3, r0, #1
 800617a:	d025      	beq.n	80061c8 <_printf_common+0xa8>
 800617c:	2306      	movs	r3, #6
 800617e:	6820      	ldr	r0, [r4, #0]
 8006180:	682a      	ldr	r2, [r5, #0]
 8006182:	68e1      	ldr	r1, [r4, #12]
 8006184:	2500      	movs	r5, #0
 8006186:	4003      	ands	r3, r0
 8006188:	2b04      	cmp	r3, #4
 800618a:	d103      	bne.n	8006194 <_printf_common+0x74>
 800618c:	1a8d      	subs	r5, r1, r2
 800618e:	43eb      	mvns	r3, r5
 8006190:	17db      	asrs	r3, r3, #31
 8006192:	401d      	ands	r5, r3
 8006194:	68a3      	ldr	r3, [r4, #8]
 8006196:	6922      	ldr	r2, [r4, #16]
 8006198:	4293      	cmp	r3, r2
 800619a:	dd01      	ble.n	80061a0 <_printf_common+0x80>
 800619c:	1a9b      	subs	r3, r3, r2
 800619e:	18ed      	adds	r5, r5, r3
 80061a0:	2700      	movs	r7, #0
 80061a2:	42bd      	cmp	r5, r7
 80061a4:	d120      	bne.n	80061e8 <_printf_common+0xc8>
 80061a6:	2000      	movs	r0, #0
 80061a8:	e010      	b.n	80061cc <_printf_common+0xac>
 80061aa:	3701      	adds	r7, #1
 80061ac:	68e3      	ldr	r3, [r4, #12]
 80061ae:	682a      	ldr	r2, [r5, #0]
 80061b0:	1a9b      	subs	r3, r3, r2
 80061b2:	42bb      	cmp	r3, r7
 80061b4:	ddd2      	ble.n	800615c <_printf_common+0x3c>
 80061b6:	0022      	movs	r2, r4
 80061b8:	2301      	movs	r3, #1
 80061ba:	9901      	ldr	r1, [sp, #4]
 80061bc:	9800      	ldr	r0, [sp, #0]
 80061be:	9e08      	ldr	r6, [sp, #32]
 80061c0:	3219      	adds	r2, #25
 80061c2:	47b0      	blx	r6
 80061c4:	1c43      	adds	r3, r0, #1
 80061c6:	d1f0      	bne.n	80061aa <_printf_common+0x8a>
 80061c8:	2001      	movs	r0, #1
 80061ca:	4240      	negs	r0, r0
 80061cc:	bdfe      	pop	{r1, r2, r3, r4, r5, r6, r7, pc}
 80061ce:	2030      	movs	r0, #48	; 0x30
 80061d0:	18e1      	adds	r1, r4, r3
 80061d2:	3143      	adds	r1, #67	; 0x43
 80061d4:	7008      	strb	r0, [r1, #0]
 80061d6:	0021      	movs	r1, r4
 80061d8:	1c5a      	adds	r2, r3, #1
 80061da:	3145      	adds	r1, #69	; 0x45
 80061dc:	7809      	ldrb	r1, [r1, #0]
 80061de:	18a2      	adds	r2, r4, r2
 80061e0:	3243      	adds	r2, #67	; 0x43
 80061e2:	3302      	adds	r3, #2
 80061e4:	7011      	strb	r1, [r2, #0]
 80061e6:	e7c1      	b.n	800616c <_printf_common+0x4c>
 80061e8:	0022      	movs	r2, r4
 80061ea:	2301      	movs	r3, #1
 80061ec:	9901      	ldr	r1, [sp, #4]
 80061ee:	9800      	ldr	r0, [sp, #0]
 80061f0:	9e08      	ldr	r6, [sp, #32]
 80061f2:	321a      	adds	r2, #26
 80061f4:	47b0      	blx	r6
 80061f6:	1c43      	adds	r3, r0, #1
 80061f8:	d0e6      	beq.n	80061c8 <_printf_common+0xa8>
 80061fa:	3701      	adds	r7, #1
 80061fc:	e7d1      	b.n	80061a2 <_printf_common+0x82>
	...

08006200 <_printf_i>:
 8006200:	b5f0      	push	{r4, r5, r6, r7, lr}
 8006202:	b08b      	sub	sp, #44	; 0x2c
 8006204:	9206      	str	r2, [sp, #24]
 8006206:	000a      	movs	r2, r1
 8006208:	3243      	adds	r2, #67	; 0x43
 800620a:	9307      	str	r3, [sp, #28]
 800620c:	9005      	str	r0, [sp, #20]
 800620e:	9204      	str	r2, [sp, #16]
 8006210:	7e0a      	ldrb	r2, [r1, #24]
 8006212:	000c      	movs	r4, r1
 8006214:	9b10      	ldr	r3, [sp, #64]	; 0x40
 8006216:	2a78      	cmp	r2, #120	; 0x78
 8006218:	d807      	bhi.n	800622a <_printf_i+0x2a>
 800621a:	2a62      	cmp	r2, #98	; 0x62
 800621c:	d809      	bhi.n	8006232 <_printf_i+0x32>
 800621e:	2a00      	cmp	r2, #0
 8006220:	d100      	bne.n	8006224 <_printf_i+0x24>
 8006222:	e0c1      	b.n	80063a8 <_printf_i+0x1a8>
 8006224:	2a58      	cmp	r2, #88	; 0x58
 8006226:	d100      	bne.n	800622a <_printf_i+0x2a>
 8006228:	e08c      	b.n	8006344 <_printf_i+0x144>
 800622a:	0026      	movs	r6, r4
 800622c:	3642      	adds	r6, #66	; 0x42
 800622e:	7032      	strb	r2, [r6, #0]
 8006230:	e022      	b.n	8006278 <_printf_i+0x78>
 8006232:	0010      	movs	r0, r2
 8006234:	3863      	subs	r0, #99	; 0x63
 8006236:	2815      	cmp	r0, #21
 8006238:	d8f7      	bhi.n	800622a <_printf_i+0x2a>
 800623a:	f7f9 ff79 	bl	8000130 <__gnu_thumb1_case_shi>
 800623e:	0016      	.short	0x0016
 8006240:	fff6001f 	.word	0xfff6001f
 8006244:	fff6fff6 	.word	0xfff6fff6
 8006248:	001ffff6 	.word	0x001ffff6
 800624c:	fff6fff6 	.word	0xfff6fff6
 8006250:	fff6fff6 	.word	0xfff6fff6
 8006254:	003600a8 	.word	0x003600a8
 8006258:	fff6009a 	.word	0xfff6009a
 800625c:	00b9fff6 	.word	0x00b9fff6
 8006260:	0036fff6 	.word	0x0036fff6
 8006264:	fff6fff6 	.word	0xfff6fff6
 8006268:	009e      	.short	0x009e
 800626a:	0026      	movs	r6, r4
 800626c:	681a      	ldr	r2, [r3, #0]
 800626e:	3642      	adds	r6, #66	; 0x42
 8006270:	1d11      	adds	r1, r2, #4
 8006272:	6019      	str	r1, [r3, #0]
 8006274:	6813      	ldr	r3, [r2, #0]
 8006276:	7033      	strb	r3, [r6, #0]
 8006278:	2301      	movs	r3, #1
 800627a:	e0a7      	b.n	80063cc <_printf_i+0x1cc>
 800627c:	6808      	ldr	r0, [r1, #0]
 800627e:	6819      	ldr	r1, [r3, #0]
 8006280:	1d0a      	adds	r2, r1, #4
 8006282:	0605      	lsls	r5, r0, #24
 8006284:	d50b      	bpl.n	800629e <_printf_i+0x9e>
 8006286:	680d      	ldr	r5, [r1, #0]
 8006288:	601a      	str	r2, [r3, #0]
 800628a:	2d00      	cmp	r5, #0
 800628c:	da03      	bge.n	8006296 <_printf_i+0x96>
 800628e:	232d      	movs	r3, #45	; 0x2d
 8006290:	9a04      	ldr	r2, [sp, #16]
 8006292:	426d      	negs	r5, r5
 8006294:	7013      	strb	r3, [r2, #0]
 8006296:	4b61      	ldr	r3, [pc, #388]	; (800641c <_printf_i+0x21c>)
 8006298:	270a      	movs	r7, #10
 800629a:	9303      	str	r3, [sp, #12]
 800629c:	e01b      	b.n	80062d6 <_printf_i+0xd6>
 800629e:	680d      	ldr	r5, [r1, #0]
 80062a0:	601a      	str	r2, [r3, #0]
 80062a2:	0641      	lsls	r1, r0, #25
 80062a4:	d5f1      	bpl.n	800628a <_printf_i+0x8a>
 80062a6:	b22d      	sxth	r5, r5
 80062a8:	e7ef      	b.n	800628a <_printf_i+0x8a>
 80062aa:	680d      	ldr	r5, [r1, #0]
 80062ac:	6819      	ldr	r1, [r3, #0]
 80062ae:	1d08      	adds	r0, r1, #4
 80062b0:	6018      	str	r0, [r3, #0]
 80062b2:	062e      	lsls	r6, r5, #24
 80062b4:	d501      	bpl.n	80062ba <_printf_i+0xba>
 80062b6:	680d      	ldr	r5, [r1, #0]
 80062b8:	e003      	b.n	80062c2 <_printf_i+0xc2>
 80062ba:	066d      	lsls	r5, r5, #25
 80062bc:	d5fb      	bpl.n	80062b6 <_printf_i+0xb6>
 80062be:	680d      	ldr	r5, [r1, #0]
 80062c0:	b2ad      	uxth	r5, r5
 80062c2:	4b56      	ldr	r3, [pc, #344]	; (800641c <_printf_i+0x21c>)
 80062c4:	2708      	movs	r7, #8
 80062c6:	9303      	str	r3, [sp, #12]
 80062c8:	2a6f      	cmp	r2, #111	; 0x6f
 80062ca:	d000      	beq.n	80062ce <_printf_i+0xce>
 80062cc:	3702      	adds	r7, #2
 80062ce:	0023      	movs	r3, r4
 80062d0:	2200      	movs	r2, #0
 80062d2:	3343      	adds	r3, #67	; 0x43
 80062d4:	701a      	strb	r2, [r3, #0]
 80062d6:	6863      	ldr	r3, [r4, #4]
 80062d8:	60a3      	str	r3, [r4, #8]
 80062da:	2b00      	cmp	r3, #0
 80062dc:	db03      	blt.n	80062e6 <_printf_i+0xe6>
 80062de:	2204      	movs	r2, #4
 80062e0:	6821      	ldr	r1, [r4, #0]
 80062e2:	4391      	bics	r1, r2
 80062e4:	6021      	str	r1, [r4, #0]
 80062e6:	2d00      	cmp	r5, #0
 80062e8:	d102      	bne.n	80062f0 <_printf_i+0xf0>
 80062ea:	9e04      	ldr	r6, [sp, #16]
 80062ec:	2b00      	cmp	r3, #0
 80062ee:	d00c      	beq.n	800630a <_printf_i+0x10a>
 80062f0:	9e04      	ldr	r6, [sp, #16]
 80062f2:	0028      	movs	r0, r5
 80062f4:	0039      	movs	r1, r7
 80062f6:	f7f9 ffb5 	bl	8000264 <__aeabi_uidivmod>
 80062fa:	9b03      	ldr	r3, [sp, #12]
 80062fc:	3e01      	subs	r6, #1
 80062fe:	5c5b      	ldrb	r3, [r3, r1]
 8006300:	7033      	strb	r3, [r6, #0]
 8006302:	002b      	movs	r3, r5
 8006304:	0005      	movs	r5, r0
 8006306:	429f      	cmp	r7, r3
 8006308:	d9f3      	bls.n	80062f2 <_printf_i+0xf2>
 800630a:	2f08      	cmp	r7, #8
 800630c:	d109      	bne.n	8006322 <_printf_i+0x122>
 800630e:	6823      	ldr	r3, [r4, #0]
 8006310:	07db      	lsls	r3, r3, #31
 8006312:	d506      	bpl.n	8006322 <_printf_i+0x122>
 8006314:	6863      	ldr	r3, [r4, #4]
 8006316:	6922      	ldr	r2, [r4, #16]
 8006318:	4293      	cmp	r3, r2
 800631a:	dc02      	bgt.n	8006322 <_printf_i+0x122>
 800631c:	2330      	movs	r3, #48	; 0x30
 800631e:	3e01      	subs	r6, #1
 8006320:	7033      	strb	r3, [r6, #0]
 8006322:	9b04      	ldr	r3, [sp, #16]
 8006324:	1b9b      	subs	r3, r3, r6
 8006326:	6123      	str	r3, [r4, #16]
 8006328:	9b07      	ldr	r3, [sp, #28]
 800632a:	0021      	movs	r1, r4
 800632c:	9300      	str	r3, [sp, #0]
 800632e:	9805      	ldr	r0, [sp, #20]
 8006330:	9b06      	ldr	r3, [sp, #24]
 8006332:	aa09      	add	r2, sp, #36	; 0x24
 8006334:	f7ff fef4 	bl	8006120 <_printf_common>
 8006338:	1c43      	adds	r3, r0, #1
 800633a:	d14c      	bne.n	80063d6 <_printf_i+0x1d6>
 800633c:	2001      	movs	r0, #1
 800633e:	4240      	negs	r0, r0
 8006340:	b00b      	add	sp, #44	; 0x2c
 8006342:	bdf0      	pop	{r4, r5, r6, r7, pc}
 8006344:	3145      	adds	r1, #69	; 0x45
 8006346:	700a      	strb	r2, [r1, #0]
 8006348:	4a34      	ldr	r2, [pc, #208]	; (800641c <_printf_i+0x21c>)
 800634a:	9203      	str	r2, [sp, #12]
 800634c:	681a      	ldr	r2, [r3, #0]
 800634e:	6821      	ldr	r1, [r4, #0]
 8006350:	ca20      	ldmia	r2!, {r5}
 8006352:	601a      	str	r2, [r3, #0]
 8006354:	0608      	lsls	r0, r1, #24
 8006356:	d516      	bpl.n	8006386 <_printf_i+0x186>
 8006358:	07cb      	lsls	r3, r1, #31
 800635a:	d502      	bpl.n	8006362 <_printf_i+0x162>
 800635c:	2320      	movs	r3, #32
 800635e:	4319      	orrs	r1, r3
 8006360:	6021      	str	r1, [r4, #0]
 8006362:	2710      	movs	r7, #16
 8006364:	2d00      	cmp	r5, #0
 8006366:	d1b2      	bne.n	80062ce <_printf_i+0xce>
 8006368:	2320      	movs	r3, #32
 800636a:	6822      	ldr	r2, [r4, #0]
 800636c:	439a      	bics	r2, r3
 800636e:	6022      	str	r2, [r4, #0]
 8006370:	e7ad      	b.n	80062ce <_printf_i+0xce>
 8006372:	2220      	movs	r2, #32
 8006374:	6809      	ldr	r1, [r1, #0]
 8006376:	430a      	orrs	r2, r1
 8006378:	6022      	str	r2, [r4, #0]
 800637a:	0022      	movs	r2, r4
 800637c:	2178      	movs	r1, #120	; 0x78
 800637e:	3245      	adds	r2, #69	; 0x45
 8006380:	7011      	strb	r1, [r2, #0]
 8006382:	4a27      	ldr	r2, [pc, #156]	; (8006420 <_printf_i+0x220>)
 8006384:	e7e1      	b.n	800634a <_printf_i+0x14a>
 8006386:	0648      	lsls	r0, r1, #25
 8006388:	d5e6      	bpl.n	8006358 <_printf_i+0x158>
 800638a:	b2ad      	uxth	r5, r5
 800638c:	e7e4      	b.n	8006358 <_printf_i+0x158>
 800638e:	681a      	ldr	r2, [r3, #0]
 8006390:	680d      	ldr	r5, [r1, #0]
 8006392:	1d10      	adds	r0, r2, #4
 8006394:	6949      	ldr	r1, [r1, #20]
 8006396:	6018      	str	r0, [r3, #0]
 8006398:	6813      	ldr	r3, [r2, #0]
 800639a:	062e      	lsls	r6, r5, #24
 800639c:	d501      	bpl.n	80063a2 <_printf_i+0x1a2>
 800639e:	6019      	str	r1, [r3, #0]
 80063a0:	e002      	b.n	80063a8 <_printf_i+0x1a8>
 80063a2:	066d      	lsls	r5, r5, #25
 80063a4:	d5fb      	bpl.n	800639e <_printf_i+0x19e>
 80063a6:	8019      	strh	r1, [r3, #0]
 80063a8:	2300      	movs	r3, #0
 80063aa:	9e04      	ldr	r6, [sp, #16]
 80063ac:	6123      	str	r3, [r4, #16]
 80063ae:	e7bb      	b.n	8006328 <_printf_i+0x128>
 80063b0:	681a      	ldr	r2, [r3, #0]
 80063b2:	1d11      	adds	r1, r2, #4
 80063b4:	6019      	str	r1, [r3, #0]
 80063b6:	6816      	ldr	r6, [r2, #0]
 80063b8:	2100      	movs	r1, #0
 80063ba:	0030      	movs	r0, r6
 80063bc:	6862      	ldr	r2, [r4, #4]
 80063be:	f000 f831 	bl	8006424 <memchr>
 80063c2:	2800      	cmp	r0, #0
 80063c4:	d001      	beq.n	80063ca <_printf_i+0x1ca>
 80063c6:	1b80      	subs	r0, r0, r6
 80063c8:	6060      	str	r0, [r4, #4]
 80063ca:	6863      	ldr	r3, [r4, #4]
 80063cc:	6123      	str	r3, [r4, #16]
 80063ce:	2300      	movs	r3, #0
 80063d0:	9a04      	ldr	r2, [sp, #16]
 80063d2:	7013      	strb	r3, [r2, #0]
 80063d4:	e7a8      	b.n	8006328 <_printf_i+0x128>
 80063d6:	6923      	ldr	r3, [r4, #16]
 80063d8:	0032      	movs	r2, r6
 80063da:	9906      	ldr	r1, [sp, #24]
 80063dc:	9805      	ldr	r0, [sp, #20]
 80063de:	9d07      	ldr	r5, [sp, #28]
 80063e0:	47a8      	blx	r5
 80063e2:	1c43      	adds	r3, r0, #1
 80063e4:	d0aa      	beq.n	800633c <_printf_i+0x13c>
 80063e6:	6823      	ldr	r3, [r4, #0]
 80063e8:	079b      	lsls	r3, r3, #30
 80063ea:	d415      	bmi.n	8006418 <_printf_i+0x218>
 80063ec:	9b09      	ldr	r3, [sp, #36]	; 0x24
 80063ee:	68e0      	ldr	r0, [r4, #12]
 80063f0:	4298      	cmp	r0, r3
 80063f2:	daa5      	bge.n	8006340 <_printf_i+0x140>
 80063f4:	0018      	movs	r0, r3
 80063f6:	e7a3      	b.n	8006340 <_printf_i+0x140>
 80063f8:	0022      	movs	r2, r4
 80063fa:	2301      	movs	r3, #1
 80063fc:	9906      	ldr	r1, [sp, #24]
 80063fe:	9805      	ldr	r0, [sp, #20]
 8006400:	9e07      	ldr	r6, [sp, #28]
 8006402:	3219      	adds	r2, #25
 8006404:	47b0      	blx	r6
 8006406:	1c43      	adds	r3, r0, #1
 8006408:	d098      	beq.n	800633c <_printf_i+0x13c>
 800640a:	3501      	adds	r5, #1
 800640c:	68e3      	ldr	r3, [r4, #12]
 800640e:	9a09      	ldr	r2, [sp, #36]	; 0x24
 8006410:	1a9b      	subs	r3, r3, r2
 8006412:	42ab      	cmp	r3, r5
 8006414:	dcf0      	bgt.n	80063f8 <_printf_i+0x1f8>
 8006416:	e7e9      	b.n	80063ec <_printf_i+0x1ec>
 8006418:	2500      	movs	r5, #0
 800641a:	e7f7      	b.n	800640c <_printf_i+0x20c>
 800641c:	08006a69 	.word	0x08006a69
 8006420:	08006a7a 	.word	0x08006a7a

08006424 <memchr>:
 8006424:	b2c9      	uxtb	r1, r1
 8006426:	1882      	adds	r2, r0, r2
 8006428:	4290      	cmp	r0, r2
 800642a:	d101      	bne.n	8006430 <memchr+0xc>
 800642c:	2000      	movs	r0, #0
 800642e:	4770      	bx	lr
 8006430:	7803      	ldrb	r3, [r0, #0]
 8006432:	428b      	cmp	r3, r1
 8006434:	d0fb      	beq.n	800642e <memchr+0xa>
 8006436:	3001      	adds	r0, #1
 8006438:	e7f6      	b.n	8006428 <memchr+0x4>

0800643a <memmove>:
 800643a:	b510      	push	{r4, lr}
 800643c:	4288      	cmp	r0, r1
 800643e:	d902      	bls.n	8006446 <memmove+0xc>
 8006440:	188b      	adds	r3, r1, r2
 8006442:	4298      	cmp	r0, r3
 8006444:	d303      	bcc.n	800644e <memmove+0x14>
 8006446:	2300      	movs	r3, #0
 8006448:	e007      	b.n	800645a <memmove+0x20>
 800644a:	5c8b      	ldrb	r3, [r1, r2]
 800644c:	5483      	strb	r3, [r0, r2]
 800644e:	3a01      	subs	r2, #1
 8006450:	d2fb      	bcs.n	800644a <memmove+0x10>
 8006452:	bd10      	pop	{r4, pc}
 8006454:	5ccc      	ldrb	r4, [r1, r3]
 8006456:	54c4      	strb	r4, [r0, r3]
 8006458:	3301      	adds	r3, #1
 800645a:	429a      	cmp	r2, r3
 800645c:	d1fa      	bne.n	8006454 <memmove+0x1a>
 800645e:	e7f8      	b.n	8006452 <memmove+0x18>

08006460 <_free_r>:
 8006460:	b570      	push	{r4, r5, r6, lr}
 8006462:	0005      	movs	r5, r0
 8006464:	2900      	cmp	r1, #0
 8006466:	d010      	beq.n	800648a <_free_r+0x2a>
 8006468:	1f0c      	subs	r4, r1, #4
 800646a:	6823      	ldr	r3, [r4, #0]
 800646c:	2b00      	cmp	r3, #0
 800646e:	da00      	bge.n	8006472 <_free_r+0x12>
 8006470:	18e4      	adds	r4, r4, r3
 8006472:	0028      	movs	r0, r5
 8006474:	f000 f918 	bl	80066a8 <__malloc_lock>
 8006478:	4a1d      	ldr	r2, [pc, #116]	; (80064f0 <_free_r+0x90>)
 800647a:	6813      	ldr	r3, [r2, #0]
 800647c:	2b00      	cmp	r3, #0
 800647e:	d105      	bne.n	800648c <_free_r+0x2c>
 8006480:	6063      	str	r3, [r4, #4]
 8006482:	6014      	str	r4, [r2, #0]
 8006484:	0028      	movs	r0, r5
 8006486:	f000 f917 	bl	80066b8 <__malloc_unlock>
 800648a:	bd70      	pop	{r4, r5, r6, pc}
 800648c:	42a3      	cmp	r3, r4
 800648e:	d908      	bls.n	80064a2 <_free_r+0x42>
 8006490:	6821      	ldr	r1, [r4, #0]
 8006492:	1860      	adds	r0, r4, r1
 8006494:	4283      	cmp	r3, r0
 8006496:	d1f3      	bne.n	8006480 <_free_r+0x20>
 8006498:	6818      	ldr	r0, [r3, #0]
 800649a:	685b      	ldr	r3, [r3, #4]
 800649c:	1841      	adds	r1, r0, r1
 800649e:	6021      	str	r1, [r4, #0]
 80064a0:	e7ee      	b.n	8006480 <_free_r+0x20>
 80064a2:	001a      	movs	r2, r3
 80064a4:	685b      	ldr	r3, [r3, #4]
 80064a6:	2b00      	cmp	r3, #0
 80064a8:	d001      	beq.n	80064ae <_free_r+0x4e>
 80064aa:	42a3      	cmp	r3, r4
 80064ac:	d9f9      	bls.n	80064a2 <_free_r+0x42>
 80064ae:	6811      	ldr	r1, [r2, #0]
 80064b0:	1850      	adds	r0, r2, r1
 80064b2:	42a0      	cmp	r0, r4
 80064b4:	d10b      	bne.n	80064ce <_free_r+0x6e>
 80064b6:	6820      	ldr	r0, [r4, #0]
 80064b8:	1809      	adds	r1, r1, r0
 80064ba:	1850      	adds	r0, r2, r1
 80064bc:	6011      	str	r1, [r2, #0]
 80064be:	4283      	cmp	r3, r0
 80064c0:	d1e0      	bne.n	8006484 <_free_r+0x24>
 80064c2:	6818      	ldr	r0, [r3, #0]
 80064c4:	685b      	ldr	r3, [r3, #4]
 80064c6:	1841      	adds	r1, r0, r1
 80064c8:	6011      	str	r1, [r2, #0]
 80064ca:	6053      	str	r3, [r2, #4]
 80064cc:	e7da      	b.n	8006484 <_free_r+0x24>
 80064ce:	42a0      	cmp	r0, r4
 80064d0:	d902      	bls.n	80064d8 <_free_r+0x78>
 80064d2:	230c      	movs	r3, #12
 80064d4:	602b      	str	r3, [r5, #0]
 80064d6:	e7d5      	b.n	8006484 <_free_r+0x24>
 80064d8:	6821      	ldr	r1, [r4, #0]
 80064da:	1860      	adds	r0, r4, r1
 80064dc:	4283      	cmp	r3, r0
 80064de:	d103      	bne.n	80064e8 <_free_r+0x88>
 80064e0:	6818      	ldr	r0, [r3, #0]
 80064e2:	685b      	ldr	r3, [r3, #4]
 80064e4:	1841      	adds	r1, r0, r1
 80064e6:	6021      	str	r1, [r4, #0]
 80064e8:	6063      	str	r3, [r4, #4]
 80064ea:	6054      	str	r4, [r2, #4]
 80064ec:	e7ca      	b.n	8006484 <_free_r+0x24>
 80064ee:	46c0      	nop			; (mov r8, r8)
 80064f0:	20000ad8 	.word	0x20000ad8

080064f4 <sbrk_aligned>:
 80064f4:	b570      	push	{r4, r5, r6, lr}
 80064f6:	4e0f      	ldr	r6, [pc, #60]	; (8006534 <sbrk_aligned+0x40>)
 80064f8:	000d      	movs	r5, r1
 80064fa:	6831      	ldr	r1, [r6, #0]
 80064fc:	0004      	movs	r4, r0
 80064fe:	2900      	cmp	r1, #0
 8006500:	d102      	bne.n	8006508 <sbrk_aligned+0x14>
 8006502:	f000 f8bf 	bl	8006684 <_sbrk_r>
 8006506:	6030      	str	r0, [r6, #0]
 8006508:	0029      	movs	r1, r5
 800650a:	0020      	movs	r0, r4
 800650c:	f000 f8ba 	bl	8006684 <_sbrk_r>
 8006510:	1c43      	adds	r3, r0, #1
 8006512:	d00a      	beq.n	800652a <sbrk_aligned+0x36>
 8006514:	2303      	movs	r3, #3
 8006516:	1cc5      	adds	r5, r0, #3
 8006518:	439d      	bics	r5, r3
 800651a:	42a8      	cmp	r0, r5
 800651c:	d007      	beq.n	800652e <sbrk_aligned+0x3a>
 800651e:	1a29      	subs	r1, r5, r0
 8006520:	0020      	movs	r0, r4
 8006522:	f000 f8af 	bl	8006684 <_sbrk_r>
 8006526:	1c43      	adds	r3, r0, #1
 8006528:	d101      	bne.n	800652e <sbrk_aligned+0x3a>
 800652a:	2501      	movs	r5, #1
 800652c:	426d      	negs	r5, r5
 800652e:	0028      	movs	r0, r5
 8006530:	bd70      	pop	{r4, r5, r6, pc}
 8006532:	46c0      	nop			; (mov r8, r8)
 8006534:	20000adc 	.word	0x20000adc

08006538 <_malloc_r>:
 8006538:	b5f7      	push	{r0, r1, r2, r4, r5, r6, r7, lr}
 800653a:	2203      	movs	r2, #3
 800653c:	1ccb      	adds	r3, r1, #3
 800653e:	4393      	bics	r3, r2
 8006540:	3308      	adds	r3, #8
 8006542:	0006      	movs	r6, r0
 8006544:	001f      	movs	r7, r3
 8006546:	2b0c      	cmp	r3, #12
 8006548:	d232      	bcs.n	80065b0 <_malloc_r+0x78>
 800654a:	270c      	movs	r7, #12
 800654c:	42b9      	cmp	r1, r7
 800654e:	d831      	bhi.n	80065b4 <_malloc_r+0x7c>
 8006550:	0030      	movs	r0, r6
 8006552:	f000 f8a9 	bl	80066a8 <__malloc_lock>
 8006556:	4d32      	ldr	r5, [pc, #200]	; (8006620 <_malloc_r+0xe8>)
 8006558:	682b      	ldr	r3, [r5, #0]
 800655a:	001c      	movs	r4, r3
 800655c:	2c00      	cmp	r4, #0
 800655e:	d12e      	bne.n	80065be <_malloc_r+0x86>
 8006560:	0039      	movs	r1, r7
 8006562:	0030      	movs	r0, r6
 8006564:	f7ff ffc6 	bl	80064f4 <sbrk_aligned>
 8006568:	0004      	movs	r4, r0
 800656a:	1c43      	adds	r3, r0, #1
 800656c:	d11e      	bne.n	80065ac <_malloc_r+0x74>
 800656e:	682c      	ldr	r4, [r5, #0]
 8006570:	0025      	movs	r5, r4
 8006572:	2d00      	cmp	r5, #0
 8006574:	d14a      	bne.n	800660c <_malloc_r+0xd4>
 8006576:	6823      	ldr	r3, [r4, #0]
 8006578:	0029      	movs	r1, r5
 800657a:	18e3      	adds	r3, r4, r3
 800657c:	0030      	movs	r0, r6
 800657e:	9301      	str	r3, [sp, #4]
 8006580:	f000 f880 	bl	8006684 <_sbrk_r>
 8006584:	9b01      	ldr	r3, [sp, #4]
 8006586:	4283      	cmp	r3, r0
 8006588:	d143      	bne.n	8006612 <_malloc_r+0xda>
 800658a:	6823      	ldr	r3, [r4, #0]
 800658c:	3703      	adds	r7, #3
 800658e:	1aff      	subs	r7, r7, r3
 8006590:	2303      	movs	r3, #3
 8006592:	439f      	bics	r7, r3
 8006594:	3708      	adds	r7, #8
 8006596:	2f0c      	cmp	r7, #12
 8006598:	d200      	bcs.n	800659c <_malloc_r+0x64>
 800659a:	270c      	movs	r7, #12
 800659c:	0039      	movs	r1, r7
 800659e:	0030      	movs	r0, r6
 80065a0:	f7ff ffa8 	bl	80064f4 <sbrk_aligned>
 80065a4:	1c43      	adds	r3, r0, #1
 80065a6:	d034      	beq.n	8006612 <_malloc_r+0xda>
 80065a8:	6823      	ldr	r3, [r4, #0]
 80065aa:	19df      	adds	r7, r3, r7
 80065ac:	6027      	str	r7, [r4, #0]
 80065ae:	e013      	b.n	80065d8 <_malloc_r+0xa0>
 80065b0:	2b00      	cmp	r3, #0
 80065b2:	dacb      	bge.n	800654c <_malloc_r+0x14>
 80065b4:	230c      	movs	r3, #12
 80065b6:	2500      	movs	r5, #0
 80065b8:	6033      	str	r3, [r6, #0]
 80065ba:	0028      	movs	r0, r5
 80065bc:	bdfe      	pop	{r1, r2, r3, r4, r5, r6, r7, pc}
 80065be:	6822      	ldr	r2, [r4, #0]
 80065c0:	1bd1      	subs	r1, r2, r7
 80065c2:	d420      	bmi.n	8006606 <_malloc_r+0xce>
 80065c4:	290b      	cmp	r1, #11
 80065c6:	d917      	bls.n	80065f8 <_malloc_r+0xc0>
 80065c8:	19e2      	adds	r2, r4, r7
 80065ca:	6027      	str	r7, [r4, #0]
 80065cc:	42a3      	cmp	r3, r4
 80065ce:	d111      	bne.n	80065f4 <_malloc_r+0xbc>
 80065d0:	602a      	str	r2, [r5, #0]
 80065d2:	6863      	ldr	r3, [r4, #4]
 80065d4:	6011      	str	r1, [r2, #0]
 80065d6:	6053      	str	r3, [r2, #4]
 80065d8:	0030      	movs	r0, r6
 80065da:	0025      	movs	r5, r4
 80065dc:	f000 f86c 	bl	80066b8 <__malloc_unlock>
 80065e0:	2207      	movs	r2, #7
 80065e2:	350b      	adds	r5, #11
 80065e4:	1d23      	adds	r3, r4, #4
 80065e6:	4395      	bics	r5, r2
 80065e8:	1aea      	subs	r2, r5, r3
 80065ea:	429d      	cmp	r5, r3
 80065ec:	d0e5      	beq.n	80065ba <_malloc_r+0x82>
 80065ee:	1b5b      	subs	r3, r3, r5
 80065f0:	50a3      	str	r3, [r4, r2]
 80065f2:	e7e2      	b.n	80065ba <_malloc_r+0x82>
 80065f4:	605a      	str	r2, [r3, #4]
 80065f6:	e7ec      	b.n	80065d2 <_malloc_r+0x9a>
 80065f8:	6862      	ldr	r2, [r4, #4]
 80065fa:	42a3      	cmp	r3, r4
 80065fc:	d101      	bne.n	8006602 <_malloc_r+0xca>
 80065fe:	602a      	str	r2, [r5, #0]
 8006600:	e7ea      	b.n	80065d8 <_malloc_r+0xa0>
 8006602:	605a      	str	r2, [r3, #4]
 8006604:	e7e8      	b.n	80065d8 <_malloc_r+0xa0>
 8006606:	0023      	movs	r3, r4
 8006608:	6864      	ldr	r4, [r4, #4]
 800660a:	e7a7      	b.n	800655c <_malloc_r+0x24>
 800660c:	002c      	movs	r4, r5
 800660e:	686d      	ldr	r5, [r5, #4]
 8006610:	e7af      	b.n	8006572 <_malloc_r+0x3a>
 8006612:	230c      	movs	r3, #12
 8006614:	0030      	movs	r0, r6
 8006616:	6033      	str	r3, [r6, #0]
 8006618:	f000 f84e 	bl	80066b8 <__malloc_unlock>
 800661c:	e7cd      	b.n	80065ba <_malloc_r+0x82>
 800661e:	46c0      	nop			; (mov r8, r8)
 8006620:	20000ad8 	.word	0x20000ad8

08006624 <_realloc_r>:
 8006624:	b5f7      	push	{r0, r1, r2, r4, r5, r6, r7, lr}
 8006626:	0007      	movs	r7, r0
 8006628:	000e      	movs	r6, r1
 800662a:	0014      	movs	r4, r2
 800662c:	2900      	cmp	r1, #0
 800662e:	d105      	bne.n	800663c <_realloc_r+0x18>
 8006630:	0011      	movs	r1, r2
 8006632:	f7ff ff81 	bl	8006538 <_malloc_r>
 8006636:	0005      	movs	r5, r0
 8006638:	0028      	movs	r0, r5
 800663a:	bdfe      	pop	{r1, r2, r3, r4, r5, r6, r7, pc}
 800663c:	2a00      	cmp	r2, #0
 800663e:	d103      	bne.n	8006648 <_realloc_r+0x24>
 8006640:	f7ff ff0e 	bl	8006460 <_free_r>
 8006644:	0025      	movs	r5, r4
 8006646:	e7f7      	b.n	8006638 <_realloc_r+0x14>
 8006648:	f000 f83e 	bl	80066c8 <_malloc_usable_size_r>
 800664c:	9001      	str	r0, [sp, #4]
 800664e:	4284      	cmp	r4, r0
 8006650:	d803      	bhi.n	800665a <_realloc_r+0x36>
 8006652:	0035      	movs	r5, r6
 8006654:	0843      	lsrs	r3, r0, #1
 8006656:	42a3      	cmp	r3, r4
 8006658:	d3ee      	bcc.n	8006638 <_realloc_r+0x14>
 800665a:	0021      	movs	r1, r4
 800665c:	0038      	movs	r0, r7
 800665e:	f7ff ff6b 	bl	8006538 <_malloc_r>
 8006662:	1e05      	subs	r5, r0, #0
 8006664:	d0e8      	beq.n	8006638 <_realloc_r+0x14>
 8006666:	9b01      	ldr	r3, [sp, #4]
 8006668:	0022      	movs	r2, r4
 800666a:	429c      	cmp	r4, r3
 800666c:	d900      	bls.n	8006670 <_realloc_r+0x4c>
 800666e:	001a      	movs	r2, r3
 8006670:	0031      	movs	r1, r6
 8006672:	0028      	movs	r0, r5
 8006674:	f7ff fbc0 	bl	8005df8 <memcpy>
 8006678:	0031      	movs	r1, r6
 800667a:	0038      	movs	r0, r7
 800667c:	f7ff fef0 	bl	8006460 <_free_r>
 8006680:	e7da      	b.n	8006638 <_realloc_r+0x14>
	...

08006684 <_sbrk_r>:
 8006684:	2300      	movs	r3, #0
 8006686:	b570      	push	{r4, r5, r6, lr}
 8006688:	4d06      	ldr	r5, [pc, #24]	; (80066a4 <_sbrk_r+0x20>)
 800668a:	0004      	movs	r4, r0
 800668c:	0008      	movs	r0, r1
 800668e:	602b      	str	r3, [r5, #0]
 8006690:	f7fb fe4e 	bl	8002330 <_sbrk>
 8006694:	1c43      	adds	r3, r0, #1
 8006696:	d103      	bne.n	80066a0 <_sbrk_r+0x1c>
 8006698:	682b      	ldr	r3, [r5, #0]
 800669a:	2b00      	cmp	r3, #0
 800669c:	d000      	beq.n	80066a0 <_sbrk_r+0x1c>
 800669e:	6023      	str	r3, [r4, #0]
 80066a0:	bd70      	pop	{r4, r5, r6, pc}
 80066a2:	46c0      	nop			; (mov r8, r8)
 80066a4:	20000ae0 	.word	0x20000ae0

080066a8 <__malloc_lock>:
 80066a8:	b510      	push	{r4, lr}
 80066aa:	4802      	ldr	r0, [pc, #8]	; (80066b4 <__malloc_lock+0xc>)
 80066ac:	f000 f814 	bl	80066d8 <__retarget_lock_acquire_recursive>
 80066b0:	bd10      	pop	{r4, pc}
 80066b2:	46c0      	nop			; (mov r8, r8)
 80066b4:	20000ae4 	.word	0x20000ae4

080066b8 <__malloc_unlock>:
 80066b8:	b510      	push	{r4, lr}
 80066ba:	4802      	ldr	r0, [pc, #8]	; (80066c4 <__malloc_unlock+0xc>)
 80066bc:	f000 f80d 	bl	80066da <__retarget_lock_release_recursive>
 80066c0:	bd10      	pop	{r4, pc}
 80066c2:	46c0      	nop			; (mov r8, r8)
 80066c4:	20000ae4 	.word	0x20000ae4

080066c8 <_malloc_usable_size_r>:
 80066c8:	1f0b      	subs	r3, r1, #4
 80066ca:	681b      	ldr	r3, [r3, #0]
 80066cc:	1f18      	subs	r0, r3, #4
 80066ce:	2b00      	cmp	r3, #0
 80066d0:	da01      	bge.n	80066d6 <_malloc_usable_size_r+0xe>
 80066d2:	580b      	ldr	r3, [r1, r0]
 80066d4:	18c0      	adds	r0, r0, r3
 80066d6:	4770      	bx	lr

080066d8 <__retarget_lock_acquire_recursive>:
 80066d8:	4770      	bx	lr

080066da <__retarget_lock_release_recursive>:
 80066da:	4770      	bx	lr

080066dc <_init>:
 80066dc:	b5f8      	push	{r3, r4, r5, r6, r7, lr}
 80066de:	46c0      	nop			; (mov r8, r8)
 80066e0:	bcf8      	pop	{r3, r4, r5, r6, r7}
 80066e2:	bc08      	pop	{r3}
 80066e4:	469e      	mov	lr, r3
 80066e6:	4770      	bx	lr

080066e8 <_fini>:
 80066e8:	b5f8      	push	{r3, r4, r5, r6, r7, lr}
 80066ea:	46c0      	nop			; (mov r8, r8)
 80066ec:	bcf8      	pop	{r3, r4, r5, r6, r7}
 80066ee:	bc08      	pop	{r3}
 80066f0:	469e      	mov	lr, r3
 80066f2:	4770      	bx	lr
